ARM GAS  /tmp/ccn4wgg2.s 			page 1


   1              		.cpu cortex-m3
   2              		.eabi_attribute 20, 1
   3              		.eabi_attribute 21, 1
   4              		.eabi_attribute 23, 3
   5              		.eabi_attribute 24, 1
   6              		.eabi_attribute 25, 1
   7              		.eabi_attribute 26, 1
   8              		.eabi_attribute 30, 4
   9              		.eabi_attribute 34, 1
  10              		.eabi_attribute 18, 4
  11              		.file	"stm32f1xx_ll_usb.c"
  12              		.section	.text.USB_CoreInit,"ax",%progbits
  13              		.align	1
  14              		.global	USB_CoreInit
  15              		.syntax unified
  16              		.thumb
  17              		.thumb_func
  18              		.fpu softvfp
  20              	USB_CoreInit:
  21              		@ args = 36, pretend = 16, frame = 0
  22              		@ frame_needed = 0, uses_anonymous_args = 0
  23              		@ link register save eliminated.
  24 0000 84B0     		sub	sp, sp, #16
  25 0002 01A8     		add	r0, sp, #4
  26 0004 80E80E00 		stm	r0, {r1, r2, r3}
  27 0008 04B0     		add	sp, sp, #16
  28 000a 0020     		movs	r0, #0
  29 000c 7047     		bx	lr
  31              		.section	.text.USB_EnableGlobalInt,"ax",%progbits
  32              		.align	1
  33              		.global	USB_EnableGlobalInt
  34              		.syntax unified
  35              		.thumb
  36              		.thumb_func
  37              		.fpu softvfp
  39              	USB_EnableGlobalInt:
  40              		@ args = 0, pretend = 0, frame = 0
  41              		@ frame_needed = 0, uses_anonymous_args = 0
  42              		@ link register save eliminated.
  43 0000 B0F84030 		ldrh	r3, [r0, #64]
  44 0004 9BB2     		uxth	r3, r3
  45 0006 43F43F43 		orr	r3, r3, #48896
  46 000a A0F84030 		strh	r3, [r0, #64]	@ movhi
  47 000e 0020     		movs	r0, #0
  48 0010 7047     		bx	lr
  50              		.section	.text.USB_DisableGlobalInt,"ax",%progbits
  51              		.align	1
  52              		.global	USB_DisableGlobalInt
  53              		.syntax unified
  54              		.thumb
  55              		.thumb_func
  56              		.fpu softvfp
  58              	USB_DisableGlobalInt:
  59              		@ args = 0, pretend = 0, frame = 0
  60              		@ frame_needed = 0, uses_anonymous_args = 0
  61              		@ link register save eliminated.
  62 0000 B0F84030 		ldrh	r3, [r0, #64]
ARM GAS  /tmp/ccn4wgg2.s 			page 2


  63 0004 23F47C53 		bic	r3, r3, #16128
  64 0008 5B04     		lsls	r3, r3, #17
  65 000a 5B0C     		lsrs	r3, r3, #17
  66 000c A0F84030 		strh	r3, [r0, #64]	@ movhi
  67 0010 0020     		movs	r0, #0
  68 0012 7047     		bx	lr
  70              		.section	.text.USB_SetCurrentMode,"ax",%progbits
  71              		.align	1
  72              		.global	USB_SetCurrentMode
  73              		.syntax unified
  74              		.thumb
  75              		.thumb_func
  76              		.fpu softvfp
  78              	USB_SetCurrentMode:
  79              		@ args = 0, pretend = 0, frame = 0
  80              		@ frame_needed = 0, uses_anonymous_args = 0
  81              		@ link register save eliminated.
  82 0000 0020     		movs	r0, #0
  83 0002 7047     		bx	lr
  85              		.section	.text.USB_DevInit,"ax",%progbits
  86              		.align	1
  87              		.global	USB_DevInit
  88              		.syntax unified
  89              		.thumb
  90              		.thumb_func
  91              		.fpu softvfp
  93              	USB_DevInit:
  94              		@ args = 36, pretend = 16, frame = 0
  95              		@ frame_needed = 0, uses_anonymous_args = 0
  96 0000 84B0     		sub	sp, sp, #16
  97 0002 10B5     		push	{r4, lr}
  98 0004 03AC     		add	r4, sp, #12
  99 0006 84E80E00 		stm	r4, {r1, r2, r3}
 100 000a BDE81040 		pop	{r4, lr}
 101 000e 0022     		movs	r2, #0
 102 0010 0123     		movs	r3, #1
 103 0012 A0F84030 		strh	r3, [r0, #64]	@ movhi
 104 0016 A0F84020 		strh	r2, [r0, #64]	@ movhi
 105 001a A0F84420 		strh	r2, [r0, #68]	@ movhi
 106 001e A0F85020 		strh	r2, [r0, #80]	@ movhi
 107 0022 B0F84030 		ldrh	r3, [r0, #64]
 108 0026 04B0     		add	sp, sp, #16
 109 0028 9BB2     		uxth	r3, r3
 110 002a 43F43F43 		orr	r3, r3, #48896
 111 002e A0F84030 		strh	r3, [r0, #64]	@ movhi
 112 0032 1046     		mov	r0, r2
 113 0034 7047     		bx	lr
 115              		.section	.text.USB_SetDevSpeed,"ax",%progbits
 116              		.align	1
 117              		.global	USB_SetDevSpeed
 118              		.syntax unified
 119              		.thumb
 120              		.thumb_func
 121              		.fpu softvfp
 123              	USB_SetDevSpeed:
 124              		@ args = 0, pretend = 0, frame = 0
 125              		@ frame_needed = 0, uses_anonymous_args = 0
ARM GAS  /tmp/ccn4wgg2.s 			page 3


 126              		@ link register save eliminated.
 127 0000 0020     		movs	r0, #0
 128 0002 7047     		bx	lr
 130              		.section	.text.USB_FlushTxFifo,"ax",%progbits
 131              		.align	1
 132              		.global	USB_FlushTxFifo
 133              		.syntax unified
 134              		.thumb
 135              		.thumb_func
 136              		.fpu softvfp
 138              	USB_FlushTxFifo:
 139              		@ args = 0, pretend = 0, frame = 0
 140              		@ frame_needed = 0, uses_anonymous_args = 0
 141              		@ link register save eliminated.
 142 0000 0020     		movs	r0, #0
 143 0002 7047     		bx	lr
 145              		.section	.text.USB_FlushRxFifo,"ax",%progbits
 146              		.align	1
 147              		.global	USB_FlushRxFifo
 148              		.syntax unified
 149              		.thumb
 150              		.thumb_func
 151              		.fpu softvfp
 153              	USB_FlushRxFifo:
 154              		@ args = 0, pretend = 0, frame = 0
 155              		@ frame_needed = 0, uses_anonymous_args = 0
 156              		@ link register save eliminated.
 157 0000 0020     		movs	r0, #0
 158 0002 7047     		bx	lr
 160              		.section	.text.USB_ActivateEndpoint,"ax",%progbits
 161              		.align	1
 162              		.global	USB_ActivateEndpoint
 163              		.syntax unified
 164              		.thumb
 165              		.thumb_func
 166              		.fpu softvfp
 168              	USB_ActivateEndpoint:
 169              		@ args = 0, pretend = 0, frame = 0
 170              		@ frame_needed = 0, uses_anonymous_args = 0
 171 0000 F0B5     		push	{r4, r5, r6, r7, lr}
 172 0002 0D78     		ldrb	r5, [r1]	@ zero_extendqisi2
 173 0004 0346     		mov	r3, r0
 174 0006 30F82520 		ldrh	r2, [r0, r5, lsl #2]
 175 000a C878     		ldrb	r0, [r1, #3]	@ zero_extendqisi2
 176 000c 22F4EC42 		bic	r2, r2, #30208
 177 0010 22F07002 		bic	r2, r2, #112
 178 0014 1204     		lsls	r2, r2, #16
 179 0016 120C     		lsrs	r2, r2, #16
 180 0018 0328     		cmp	r0, #3
 181 001a 4ED8     		bhi	.L34
 182 001c DFE800F0 		tbb	[pc, r0]
 183              	.L12:
 184 0020 02       		.byte	(.L11-.L12)/2
 185 0021 4A       		.byte	(.L13-.L12)/2
 186 0022 04       		.byte	(.L56-.L12)/2
 187 0023 47       		.byte	(.L15-.L12)/2
 188              		.p2align 1
ARM GAS  /tmp/ccn4wgg2.s 			page 4


 189              	.L11:
 190 0024 42F40072 		orr	r2, r2, #512
 191              	.L56:
 192 0028 0020     		movs	r0, #0
 193              	.L10:
 194 002a 48F28004 		movw	r4, #32896
 195 002e 2243     		orrs	r2, r2, r4
 196 0030 23F82520 		strh	r2, [r3, r5, lsl #2]	@ movhi
 197 0034 0E78     		ldrb	r6, [r1]	@ zero_extendqisi2
 198 0036 AB4D     		ldr	r5, .L60
 199 0038 33F82620 		ldrh	r2, [r3, r6, lsl #2]
 200 003c 3443     		orrs	r4, r4, r6
 201 003e 92B2     		uxth	r2, r2
 202 0040 2A40     		ands	r2, r2, r5
 203 0042 2243     		orrs	r2, r2, r4
 204 0044 23F82620 		strh	r2, [r3, r6, lsl #2]	@ movhi
 205 0048 0C7B     		ldrb	r4, [r1, #12]	@ zero_extendqisi2
 206 004a 0A78     		ldrb	r2, [r1]	@ zero_extendqisi2
 207 004c 002C     		cmp	r4, #0
 208 004e 40F08880 		bne	.L16
 209 0052 4E78     		ldrb	r6, [r1, #1]	@ zero_extendqisi2
 210 0054 CC88     		ldrh	r4, [r1, #6]
 211 0056 96B3     		cbz	r6, .L17
 212 0058 B3F85060 		ldrh	r6, [r3, #80]
 213 005c 03EB0212 		add	r2, r3, r2, lsl #4
 214 0060 24F00104 		bic	r4, r4, #1
 215 0064 B6B2     		uxth	r6, r6
 216 0066 02F58062 		add	r2, r2, #1024
 217 006a A4B2     		uxth	r4, r4
 218 006c 9453     		strh	r4, [r2, r6]	@ movhi
 219 006e 0C78     		ldrb	r4, [r1]	@ zero_extendqisi2
 220 0070 33F82420 		ldrh	r2, [r3, r4, lsl #2]
 221 0074 5606     		lsls	r6, r2, #25
 222 0076 09D5     		bpl	.L18
 223 0078 33F82420 		ldrh	r2, [r3, r4, lsl #2]
 224 007c 92B2     		uxth	r2, r2
 225 007e 2A40     		ands	r2, r2, r5
 226 0080 42F40042 		orr	r2, r2, #32768
 227 0084 42F0C002 		orr	r2, r2, #192
 228 0088 23F82420 		strh	r2, [r3, r4, lsl #2]	@ movhi
 229              	.L18:
 230 008c CA78     		ldrb	r2, [r1, #3]	@ zero_extendqisi2
 231 008e 0978     		ldrb	r1, [r1]	@ zero_extendqisi2
 232 0090 012A     		cmp	r2, #1
 233 0092 33F82120 		ldrh	r2, [r3, r1, lsl #2]
 234 0096 944C     		ldr	r4, .L60+4
 235 0098 92B2     		uxth	r2, r2
 236 009a 02EA0402 		and	r2, r2, r4
 237 009e 01D0     		beq	.L58
 238 00a0 82F02002 		eor	r2, r2, #32
 239              	.L58:
 240 00a4 42F40042 		orr	r2, r2, #32768
 241 00a8 42F08002 		orr	r2, r2, #128
 242 00ac CBE0     		b	.L59
 243              	.L15:
 244 00ae 42F4C062 		orr	r2, r2, #1536
 245 00b2 B9E7     		b	.L56
ARM GAS  /tmp/ccn4wgg2.s 			page 5


 246              	.L13:
 247 00b4 42F48062 		orr	r2, r2, #1024
 248 00b8 B6E7     		b	.L56
 249              	.L34:
 250 00ba 0120     		movs	r0, #1
 251 00bc B5E7     		b	.L10
 252              	.L17:
 253 00be B3F85050 		ldrh	r5, [r3, #80]
 254 00c2 03EB0212 		add	r2, r3, r2, lsl #4
 255 00c6 24F00104 		bic	r4, r4, #1
 256 00ca ADB2     		uxth	r5, r5
 257 00cc 02F58162 		add	r2, r2, #1032
 258 00d0 A4B2     		uxth	r4, r4
 259 00d2 5453     		strh	r4, [r2, r5]	@ movhi
 260 00d4 0A78     		ldrb	r2, [r1]	@ zero_extendqisi2
 261 00d6 B3F85060 		ldrh	r6, [r3, #80]
 262 00da 0D69     		ldr	r5, [r1, #16]
 263 00dc 03EB0212 		add	r2, r3, r2, lsl #4
 264 00e0 B6B2     		uxth	r6, r6
 265 00e2 02F20C42 		addw	r2, r2, #1036
 266 00e6 5DBB     		cbnz	r5, .L21
 267 00e8 945B     		ldrh	r4, [r2, r6]
 268 00ea 24F4F844 		bic	r4, r4, #31744
 269 00ee 2404     		lsls	r4, r4, #16
 270 00f0 240C     		lsrs	r4, r4, #16
 271 00f2 9453     		strh	r4, [r2, r6]	@ movhi
 272 00f4 945B     		ldrh	r4, [r2, r6]
 273 00f6 6FEA4444 		mvn	r4, r4, lsl #17
 274 00fa 6FEA5444 		mvn	r4, r4, lsr #17
 275              	.L57:
 276 00fe A4B2     		uxth	r4, r4
 277 0100 9453     		strh	r4, [r2, r6]	@ movhi
 278 0102 0C78     		ldrb	r4, [r1]	@ zero_extendqisi2
 279 0104 33F82420 		ldrh	r2, [r3, r4, lsl #2]
 280 0108 5504     		lsls	r5, r2, #17
 281 010a 0DD5     		bpl	.L26
 282 010c 33F82420 		ldrh	r2, [r3, r4, lsl #2]
 283 0110 22F4E042 		bic	r2, r2, #28672
 284 0114 22F07002 		bic	r2, r2, #112
 285 0118 1204     		lsls	r2, r2, #16
 286 011a 120C     		lsrs	r2, r2, #16
 287 011c 42F44042 		orr	r2, r2, #49152
 288 0120 42F08002 		orr	r2, r2, #128
 289 0124 23F82420 		strh	r2, [r3, r4, lsl #2]	@ movhi
 290              	.L26:
 291 0128 0978     		ldrb	r1, [r1]	@ zero_extendqisi2
 292 012a 33F82120 		ldrh	r2, [r3, r1, lsl #2]
 293 012e 22F48042 		bic	r2, r2, #16384
 294 0132 22F07002 		bic	r2, r2, #112
 295 0136 1204     		lsls	r2, r2, #16
 296 0138 120C     		lsrs	r2, r2, #16
 297 013a 82F44052 		eor	r2, r2, #12288
 298 013e B1E7     		b	.L58
 299              	.L21:
 300 0140 3E2D     		cmp	r5, #62
 301 0142 05D8     		bhi	.L23
 302 0144 6C08     		lsrs	r4, r5, #1
ARM GAS  /tmp/ccn4wgg2.s 			page 6


 303 0146 ED07     		lsls	r5, r5, #31
 304 0148 48BF     		it	mi
 305 014a 0134     		addmi	r4, r4, #1
 306 014c A402     		lsls	r4, r4, #10
 307 014e D6E7     		b	.L57
 308              	.L23:
 309 0150 6F09     		lsrs	r7, r5, #5
 310 0152 EC06     		lsls	r4, r5, #27
 311 0154 654C     		ldr	r4, .L60+8
 312 0156 08BF     		it	eq
 313 0158 07F1FF37 		addeq	r7, r7, #-1
 314 015c 44EA8724 		orr	r4, r4, r7, lsl #10
 315 0160 CDE7     		b	.L57
 316              	.L16:
 317 0162 33F82240 		ldrh	r4, [r3, r2, lsl #2]
 318 0166 A4B2     		uxth	r4, r4
 319 0168 2C40     		ands	r4, r4, r5
 320 016a 44F40144 		orr	r4, r4, #33024
 321 016e 44F08004 		orr	r4, r4, #128
 322 0172 23F82240 		strh	r4, [r3, r2, lsl #2]	@ movhi
 323 0176 0A78     		ldrb	r2, [r1]	@ zero_extendqisi2
 324 0178 0C89     		ldrh	r4, [r1, #8]
 325 017a B3F85060 		ldrh	r6, [r3, #80]
 326 017e 03EB0212 		add	r2, r3, r2, lsl #4
 327 0182 24F00104 		bic	r4, r4, #1
 328 0186 B6B2     		uxth	r6, r6
 329 0188 02F58062 		add	r2, r2, #1024
 330 018c A4B2     		uxth	r4, r4
 331 018e 9453     		strh	r4, [r2, r6]	@ movhi
 332 0190 0A78     		ldrb	r2, [r1]	@ zero_extendqisi2
 333 0192 4C89     		ldrh	r4, [r1, #10]
 334 0194 B3F85060 		ldrh	r6, [r3, #80]
 335 0198 03EB0212 		add	r2, r3, r2, lsl #4
 336 019c 24F00104 		bic	r4, r4, #1
 337 01a0 02F58162 		add	r2, r2, #1032
 338 01a4 A4B2     		uxth	r4, r4
 339 01a6 B6B2     		uxth	r6, r6
 340 01a8 9453     		strh	r4, [r2, r6]	@ movhi
 341 01aa 4A78     		ldrb	r2, [r1, #1]	@ zero_extendqisi2
 342 01ac 0C78     		ldrb	r4, [r1]	@ zero_extendqisi2
 343 01ae 002A     		cmp	r2, #0
 344 01b0 4CD1     		bne	.L27
 345 01b2 33F82420 		ldrh	r2, [r3, r4, lsl #2]
 346 01b6 5204     		lsls	r2, r2, #17
 347 01b8 09D5     		bpl	.L28
 348 01ba 33F82420 		ldrh	r2, [r3, r4, lsl #2]
 349 01be 92B2     		uxth	r2, r2
 350 01c0 2A40     		ands	r2, r2, r5
 351 01c2 42F44042 		orr	r2, r2, #49152
 352 01c6 42F08002 		orr	r2, r2, #128
 353 01ca 23F82420 		strh	r2, [r3, r4, lsl #2]	@ movhi
 354              	.L28:
 355 01ce 0C78     		ldrb	r4, [r1]	@ zero_extendqisi2
 356 01d0 33F82420 		ldrh	r2, [r3, r4, lsl #2]
 357 01d4 5706     		lsls	r7, r2, #25
 358 01d6 0DD5     		bpl	.L29
 359 01d8 33F82420 		ldrh	r2, [r3, r4, lsl #2]
ARM GAS  /tmp/ccn4wgg2.s 			page 7


 360 01dc 22F4E042 		bic	r2, r2, #28672
 361 01e0 22F07002 		bic	r2, r2, #112
 362 01e4 1204     		lsls	r2, r2, #16
 363 01e6 120C     		lsrs	r2, r2, #16
 364 01e8 42F40042 		orr	r2, r2, #32768
 365 01ec 42F0C002 		orr	r2, r2, #192
 366 01f0 23F82420 		strh	r2, [r3, r4, lsl #2]	@ movhi
 367              	.L29:
 368 01f4 0C78     		ldrb	r4, [r1]	@ zero_extendqisi2
 369 01f6 33F82420 		ldrh	r2, [r3, r4, lsl #2]
 370 01fa 22F4E042 		bic	r2, r2, #28672
 371 01fe 22F07002 		bic	r2, r2, #112
 372 0202 1204     		lsls	r2, r2, #16
 373 0204 120C     		lsrs	r2, r2, #16
 374 0206 42F40042 		orr	r2, r2, #32768
 375 020a 42F0C002 		orr	r2, r2, #192
 376 020e 23F82420 		strh	r2, [r3, r4, lsl #2]	@ movhi
 377 0212 48F28004 		movw	r4, #32896
 378 0216 0D78     		ldrb	r5, [r1]	@ zero_extendqisi2
 379 0218 33F82520 		ldrh	r2, [r3, r5, lsl #2]
 380 021c 22F48042 		bic	r2, r2, #16384
 381 0220 22F07002 		bic	r2, r2, #112
 382 0224 1204     		lsls	r2, r2, #16
 383 0226 120C     		lsrs	r2, r2, #16
 384 0228 82F44052 		eor	r2, r2, #12288
 385 022c 2243     		orrs	r2, r2, r4
 386 022e 23F82520 		strh	r2, [r3, r5, lsl #2]	@ movhi
 387 0232 0978     		ldrb	r1, [r1]	@ zero_extendqisi2
 388 0234 33F82120 		ldrh	r2, [r3, r1, lsl #2]
 389 0238 22F4E042 		bic	r2, r2, #28672
 390 023c 22F04002 		bic	r2, r2, #64
 391 0240 1204     		lsls	r2, r2, #16
 392 0242 120C     		lsrs	r2, r2, #16
 393 0244 2243     		orrs	r2, r2, r4
 394              	.L59:
 395 0246 23F82120 		strh	r2, [r3, r1, lsl #2]	@ movhi
 396 024a F0BD     		pop	{r4, r5, r6, r7, pc}
 397              	.L27:
 398 024c 33F82420 		ldrh	r2, [r3, r4, lsl #2]
 399 0250 5604     		lsls	r6, r2, #17
 400 0252 09D5     		bpl	.L30
 401 0254 33F82420 		ldrh	r2, [r3, r4, lsl #2]
 402 0258 92B2     		uxth	r2, r2
 403 025a 2A40     		ands	r2, r2, r5
 404 025c 42F44042 		orr	r2, r2, #49152
 405 0260 42F08002 		orr	r2, r2, #128
 406 0264 23F82420 		strh	r2, [r3, r4, lsl #2]	@ movhi
 407              	.L30:
 408 0268 0C78     		ldrb	r4, [r1]	@ zero_extendqisi2
 409 026a 33F82420 		ldrh	r2, [r3, r4, lsl #2]
 410 026e 5206     		lsls	r2, r2, #25
 411 0270 0DD5     		bpl	.L31
 412 0272 33F82420 		ldrh	r2, [r3, r4, lsl #2]
 413 0276 22F4E042 		bic	r2, r2, #28672
 414 027a 22F07002 		bic	r2, r2, #112
 415 027e 1204     		lsls	r2, r2, #16
 416 0280 120C     		lsrs	r2, r2, #16
ARM GAS  /tmp/ccn4wgg2.s 			page 8


 417 0282 42F40042 		orr	r2, r2, #32768
 418 0286 42F0C002 		orr	r2, r2, #192
 419 028a 23F82420 		strh	r2, [r3, r4, lsl #2]	@ movhi
 420              	.L31:
 421 028e 0C78     		ldrb	r4, [r1]	@ zero_extendqisi2
 422 0290 154D     		ldr	r5, .L60+4
 423 0292 33F82420 		ldrh	r2, [r3, r4, lsl #2]
 424 0296 22F4E042 		bic	r2, r2, #28672
 425 029a 22F07002 		bic	r2, r2, #112
 426 029e 1204     		lsls	r2, r2, #16
 427 02a0 120C     		lsrs	r2, r2, #16
 428 02a2 42F44042 		orr	r2, r2, #49152
 429 02a6 42F08002 		orr	r2, r2, #128
 430 02aa 23F82420 		strh	r2, [r3, r4, lsl #2]	@ movhi
 431 02ae CA78     		ldrb	r2, [r1, #3]	@ zero_extendqisi2
 432 02b0 0C78     		ldrb	r4, [r1]	@ zero_extendqisi2
 433 02b2 012A     		cmp	r2, #1
 434 02b4 33F82420 		ldrh	r2, [r3, r4, lsl #2]
 435 02b8 92B2     		uxth	r2, r2
 436 02ba 02EA0502 		and	r2, r2, r5
 437 02be 18BF     		it	ne
 438 02c0 82F02002 		eorne	r2, r2, #32
 439 02c4 42F40042 		orr	r2, r2, #32768
 440 02c8 42F08002 		orr	r2, r2, #128
 441 02cc 23F82420 		strh	r2, [r3, r4, lsl #2]	@ movhi
 442 02d0 0978     		ldrb	r1, [r1]	@ zero_extendqisi2
 443 02d2 33F82120 		ldrh	r2, [r3, r1, lsl #2]
 444 02d6 22F48042 		bic	r2, r2, #16384
 445 02da 22F07002 		bic	r2, r2, #112
 446 02de 1204     		lsls	r2, r2, #16
 447 02e0 120C     		lsrs	r2, r2, #16
 448 02e2 DFE6     		b	.L58
 449              	.L61:
 450              		.align	2
 451              	.L60:
 452 02e4 8F8FFFFF 		.word	-28785
 453 02e8 BF8FFFFF 		.word	-28737
 454 02ec 0080FFFF 		.word	-32768
 456              		.section	.text.USB_DeactivateEndpoint,"ax",%progbits
 457              		.align	1
 458              		.global	USB_DeactivateEndpoint
 459              		.syntax unified
 460              		.thumb
 461              		.thumb_func
 462              		.fpu softvfp
 464              	USB_DeactivateEndpoint:
 465              		@ args = 0, pretend = 0, frame = 0
 466              		@ frame_needed = 0, uses_anonymous_args = 0
 467 0000 10B5     		push	{r4, lr}
 468 0002 0C7B     		ldrb	r4, [r1, #12]	@ zero_extendqisi2
 469 0004 4B78     		ldrb	r3, [r1, #1]	@ zero_extendqisi2
 470 0006 0A78     		ldrb	r2, [r1]	@ zero_extendqisi2
 471 0008 002C     		cmp	r4, #0
 472 000a 3DD1     		bne	.L63
 473 000c 13B3     		cbz	r3, .L64
 474 000e 30F82230 		ldrh	r3, [r0, r2, lsl #2]
 475 0012 5C06     		lsls	r4, r3, #25
ARM GAS  /tmp/ccn4wgg2.s 			page 9


 476 0014 0DD5     		bpl	.L65
 477 0016 30F82230 		ldrh	r3, [r0, r2, lsl #2]
 478 001a 23F4E043 		bic	r3, r3, #28672
 479 001e 23F07003 		bic	r3, r3, #112
 480 0022 1B04     		lsls	r3, r3, #16
 481 0024 1B0C     		lsrs	r3, r3, #16
 482 0026 43F40043 		orr	r3, r3, #32768
 483 002a 43F0C003 		orr	r3, r3, #192
 484 002e 20F82230 		strh	r3, [r0, r2, lsl #2]	@ movhi
 485              	.L65:
 486 0032 0A78     		ldrb	r2, [r1]	@ zero_extendqisi2
 487 0034 30F82230 		ldrh	r3, [r0, r2, lsl #2]
 488 0038 23F4E043 		bic	r3, r3, #28672
 489 003c 23F04003 		bic	r3, r3, #64
 490              	.L91:
 491 0040 1B04     		lsls	r3, r3, #16
 492 0042 1B0C     		lsrs	r3, r3, #16
 493 0044 43F40043 		orr	r3, r3, #32768
 494 0048 43F08003 		orr	r3, r3, #128
 495 004c 20F82230 		strh	r3, [r0, r2, lsl #2]	@ movhi
 496              	.L66:
 497 0050 0020     		movs	r0, #0
 498 0052 10BD     		pop	{r4, pc}
 499              	.L64:
 500 0054 30F82230 		ldrh	r3, [r0, r2, lsl #2]
 501 0058 5B04     		lsls	r3, r3, #17
 502 005a 0DD5     		bpl	.L67
 503 005c 30F82230 		ldrh	r3, [r0, r2, lsl #2]
 504 0060 23F4E043 		bic	r3, r3, #28672
 505 0064 23F07003 		bic	r3, r3, #112
 506 0068 1B04     		lsls	r3, r3, #16
 507 006a 1B0C     		lsrs	r3, r3, #16
 508 006c 43F44043 		orr	r3, r3, #49152
 509 0070 43F08003 		orr	r3, r3, #128
 510 0074 20F82230 		strh	r3, [r0, r2, lsl #2]	@ movhi
 511              	.L67:
 512 0078 0A78     		ldrb	r2, [r1]	@ zero_extendqisi2
 513 007a 30F82230 		ldrh	r3, [r0, r2, lsl #2]
 514 007e 23F48043 		bic	r3, r3, #16384
 515 0082 23F07003 		bic	r3, r3, #112
 516 0086 DBE7     		b	.L91
 517              	.L63:
 518 0088 002B     		cmp	r3, #0
 519 008a 4ED1     		bne	.L68
 520 008c 30F82230 		ldrh	r3, [r0, r2, lsl #2]
 521 0090 5C04     		lsls	r4, r3, #17
 522 0092 0DD5     		bpl	.L69
 523 0094 30F82230 		ldrh	r3, [r0, r2, lsl #2]
 524 0098 23F4E043 		bic	r3, r3, #28672
 525 009c 23F07003 		bic	r3, r3, #112
 526 00a0 1B04     		lsls	r3, r3, #16
 527 00a2 1B0C     		lsrs	r3, r3, #16
 528 00a4 43F44043 		orr	r3, r3, #49152
 529 00a8 43F08003 		orr	r3, r3, #128
 530 00ac 20F82230 		strh	r3, [r0, r2, lsl #2]	@ movhi
 531              	.L69:
 532 00b0 0A78     		ldrb	r2, [r1]	@ zero_extendqisi2
ARM GAS  /tmp/ccn4wgg2.s 			page 10


 533 00b2 30F82230 		ldrh	r3, [r0, r2, lsl #2]
 534 00b6 5B06     		lsls	r3, r3, #25
 535 00b8 0DD5     		bpl	.L70
 536 00ba 30F82230 		ldrh	r3, [r0, r2, lsl #2]
 537 00be 23F4E043 		bic	r3, r3, #28672
 538 00c2 23F07003 		bic	r3, r3, #112
 539 00c6 1B04     		lsls	r3, r3, #16
 540 00c8 1B0C     		lsrs	r3, r3, #16
 541 00ca 43F40043 		orr	r3, r3, #32768
 542 00ce 43F0C003 		orr	r3, r3, #192
 543 00d2 20F82230 		strh	r3, [r0, r2, lsl #2]	@ movhi
 544              	.L70:
 545 00d6 0A78     		ldrb	r2, [r1]	@ zero_extendqisi2
 546 00d8 30F82230 		ldrh	r3, [r0, r2, lsl #2]
 547 00dc 23F4E043 		bic	r3, r3, #28672
 548 00e0 23F07003 		bic	r3, r3, #112
 549 00e4 1B04     		lsls	r3, r3, #16
 550 00e6 1B0C     		lsrs	r3, r3, #16
 551 00e8 43F40043 		orr	r3, r3, #32768
 552 00ec 43F0C003 		orr	r3, r3, #192
 553 00f0 20F82230 		strh	r3, [r0, r2, lsl #2]	@ movhi
 554 00f4 48F28002 		movw	r2, #32896
 555 00f8 0C78     		ldrb	r4, [r1]	@ zero_extendqisi2
 556 00fa 30F82430 		ldrh	r3, [r0, r4, lsl #2]
 557 00fe 23F48043 		bic	r3, r3, #16384
 558 0102 23F07003 		bic	r3, r3, #112
 559 0106 1B04     		lsls	r3, r3, #16
 560 0108 1B0C     		lsrs	r3, r3, #16
 561 010a 1343     		orrs	r3, r3, r2
 562 010c 20F82430 		strh	r3, [r0, r4, lsl #2]	@ movhi
 563 0110 0978     		ldrb	r1, [r1]	@ zero_extendqisi2
 564 0112 30F82130 		ldrh	r3, [r0, r1, lsl #2]
 565 0116 23F4E043 		bic	r3, r3, #28672
 566 011a 23F04003 		bic	r3, r3, #64
 567              	.L92:
 568 011e 1B04     		lsls	r3, r3, #16
 569 0120 1B0C     		lsrs	r3, r3, #16
 570 0122 1343     		orrs	r3, r3, r2
 571 0124 20F82130 		strh	r3, [r0, r1, lsl #2]	@ movhi
 572 0128 92E7     		b	.L66
 573              	.L68:
 574 012a 30F82230 		ldrh	r3, [r0, r2, lsl #2]
 575 012e 5C04     		lsls	r4, r3, #17
 576 0130 0DD5     		bpl	.L71
 577 0132 30F82230 		ldrh	r3, [r0, r2, lsl #2]
 578 0136 23F4E043 		bic	r3, r3, #28672
 579 013a 23F07003 		bic	r3, r3, #112
 580 013e 1B04     		lsls	r3, r3, #16
 581 0140 1B0C     		lsrs	r3, r3, #16
 582 0142 43F44043 		orr	r3, r3, #49152
 583 0146 43F08003 		orr	r3, r3, #128
 584 014a 20F82230 		strh	r3, [r0, r2, lsl #2]	@ movhi
 585              	.L71:
 586 014e 0A78     		ldrb	r2, [r1]	@ zero_extendqisi2
 587 0150 30F82230 		ldrh	r3, [r0, r2, lsl #2]
 588 0154 5B06     		lsls	r3, r3, #25
 589 0156 0DD5     		bpl	.L72
ARM GAS  /tmp/ccn4wgg2.s 			page 11


 590 0158 30F82230 		ldrh	r3, [r0, r2, lsl #2]
 591 015c 23F4E043 		bic	r3, r3, #28672
 592 0160 23F07003 		bic	r3, r3, #112
 593 0164 1B04     		lsls	r3, r3, #16
 594 0166 1B0C     		lsrs	r3, r3, #16
 595 0168 43F40043 		orr	r3, r3, #32768
 596 016c 43F0C003 		orr	r3, r3, #192
 597 0170 20F82230 		strh	r3, [r0, r2, lsl #2]	@ movhi
 598              	.L72:
 599 0174 0A78     		ldrb	r2, [r1]	@ zero_extendqisi2
 600 0176 30F82230 		ldrh	r3, [r0, r2, lsl #2]
 601 017a 23F4E043 		bic	r3, r3, #28672
 602 017e 23F07003 		bic	r3, r3, #112
 603 0182 1B04     		lsls	r3, r3, #16
 604 0184 1B0C     		lsrs	r3, r3, #16
 605 0186 43F44043 		orr	r3, r3, #49152
 606 018a 43F08003 		orr	r3, r3, #128
 607 018e 20F82230 		strh	r3, [r0, r2, lsl #2]	@ movhi
 608 0192 48F28002 		movw	r2, #32896
 609 0196 0C78     		ldrb	r4, [r1]	@ zero_extendqisi2
 610 0198 30F82430 		ldrh	r3, [r0, r4, lsl #2]
 611 019c 23F4E043 		bic	r3, r3, #28672
 612 01a0 23F04003 		bic	r3, r3, #64
 613 01a4 1B04     		lsls	r3, r3, #16
 614 01a6 1B0C     		lsrs	r3, r3, #16
 615 01a8 1343     		orrs	r3, r3, r2
 616 01aa 20F82430 		strh	r3, [r0, r4, lsl #2]	@ movhi
 617 01ae 0978     		ldrb	r1, [r1]	@ zero_extendqisi2
 618 01b0 30F82130 		ldrh	r3, [r0, r1, lsl #2]
 619 01b4 23F48043 		bic	r3, r3, #16384
 620 01b8 23F07003 		bic	r3, r3, #112
 621 01bc AFE7     		b	.L92
 623              		.section	.text.USB_WritePacket,"ax",%progbits
 624              		.align	1
 625              		.global	USB_WritePacket
 626              		.syntax unified
 627              		.thumb
 628              		.thumb_func
 629              		.fpu softvfp
 631              	USB_WritePacket:
 632              		@ args = 0, pretend = 0, frame = 0
 633              		@ frame_needed = 0, uses_anonymous_args = 0
 634              		@ link register save eliminated.
 635 0000 0020     		movs	r0, #0
 636 0002 7047     		bx	lr
 638              		.section	.text.USB_ReadPacket,"ax",%progbits
 639              		.align	1
 640              		.global	USB_ReadPacket
 641              		.syntax unified
 642              		.thumb
 643              		.thumb_func
 644              		.fpu softvfp
 646              	USB_ReadPacket:
 647              		@ args = 0, pretend = 0, frame = 0
 648              		@ frame_needed = 0, uses_anonymous_args = 0
 649              		@ link register save eliminated.
 650 0000 0020     		movs	r0, #0
ARM GAS  /tmp/ccn4wgg2.s 			page 12


 651 0002 7047     		bx	lr
 653              		.section	.text.USB_EPSetStall,"ax",%progbits
 654              		.align	1
 655              		.global	USB_EPSetStall
 656              		.syntax unified
 657              		.thumb
 658              		.thumb_func
 659              		.fpu softvfp
 661              	USB_EPSetStall:
 662              		@ args = 0, pretend = 0, frame = 0
 663              		@ frame_needed = 0, uses_anonymous_args = 0
 664              		@ link register save eliminated.
 665 0000 4B78     		ldrb	r3, [r1, #1]	@ zero_extendqisi2
 666 0002 0A78     		ldrb	r2, [r1]	@ zero_extendqisi2
 667 0004 8BB1     		cbz	r3, .L96
 668 0006 30F82230 		ldrh	r3, [r0, r2, lsl #2]
 669 000a 23F4E043 		bic	r3, r3, #28672
 670 000e 23F04003 		bic	r3, r3, #64
 671 0012 1B04     		lsls	r3, r3, #16
 672 0014 1B0C     		lsrs	r3, r3, #16
 673 0016 83F01003 		eor	r3, r3, #16
 674              	.L98:
 675 001a 43F40043 		orr	r3, r3, #32768
 676 001e 43F08003 		orr	r3, r3, #128
 677 0022 20F82230 		strh	r3, [r0, r2, lsl #2]	@ movhi
 678 0026 0020     		movs	r0, #0
 679 0028 7047     		bx	lr
 680              	.L96:
 681 002a 30F82230 		ldrh	r3, [r0, r2, lsl #2]
 682 002e 23F48043 		bic	r3, r3, #16384
 683 0032 23F07003 		bic	r3, r3, #112
 684 0036 1B04     		lsls	r3, r3, #16
 685 0038 1B0C     		lsrs	r3, r3, #16
 686 003a 83F48053 		eor	r3, r3, #4096
 687 003e ECE7     		b	.L98
 689              		.section	.text.USB_EPClearStall,"ax",%progbits
 690              		.align	1
 691              		.global	USB_EPClearStall
 692              		.syntax unified
 693              		.thumb
 694              		.thumb_func
 695              		.fpu softvfp
 697              	USB_EPClearStall:
 698              		@ args = 0, pretend = 0, frame = 0
 699              		@ frame_needed = 0, uses_anonymous_args = 0
 700              		@ link register save eliminated.
 701 0000 0B7B     		ldrb	r3, [r1, #12]	@ zero_extendqisi2
 702 0002 43BB     		cbnz	r3, .L101
 703 0004 4B78     		ldrb	r3, [r1, #1]	@ zero_extendqisi2
 704 0006 0A78     		ldrb	r2, [r1]	@ zero_extendqisi2
 705 0008 3BB3     		cbz	r3, .L102
 706 000a 30F82230 		ldrh	r3, [r0, r2, lsl #2]
 707 000e 5B06     		lsls	r3, r3, #25
 708 0010 0DD5     		bpl	.L103
 709 0012 30F82230 		ldrh	r3, [r0, r2, lsl #2]
 710 0016 23F4E043 		bic	r3, r3, #28672
 711 001a 23F07003 		bic	r3, r3, #112
ARM GAS  /tmp/ccn4wgg2.s 			page 13


 712 001e 1B04     		lsls	r3, r3, #16
 713 0020 1B0C     		lsrs	r3, r3, #16
 714 0022 43F40043 		orr	r3, r3, #32768
 715 0026 43F0C003 		orr	r3, r3, #192
 716 002a 20F82230 		strh	r3, [r0, r2, lsl #2]	@ movhi
 717              	.L103:
 718 002e CB78     		ldrb	r3, [r1, #3]	@ zero_extendqisi2
 719 0030 012B     		cmp	r3, #1
 720 0032 10D0     		beq	.L101
 721 0034 0A78     		ldrb	r2, [r1]	@ zero_extendqisi2
 722 0036 30F82230 		ldrh	r3, [r0, r2, lsl #2]
 723 003a 23F4E043 		bic	r3, r3, #28672
 724 003e 23F04003 		bic	r3, r3, #64
 725 0042 1B04     		lsls	r3, r3, #16
 726 0044 1B0C     		lsrs	r3, r3, #16
 727 0046 83F02003 		eor	r3, r3, #32
 728              	.L115:
 729 004a 43F40043 		orr	r3, r3, #32768
 730 004e 43F08003 		orr	r3, r3, #128
 731 0052 20F82230 		strh	r3, [r0, r2, lsl #2]	@ movhi
 732              	.L101:
 733 0056 0020     		movs	r0, #0
 734 0058 7047     		bx	lr
 735              	.L102:
 736 005a 30F82230 		ldrh	r3, [r0, r2, lsl #2]
 737 005e 5B04     		lsls	r3, r3, #17
 738 0060 0DD5     		bpl	.L105
 739 0062 30F82230 		ldrh	r3, [r0, r2, lsl #2]
 740 0066 23F4E043 		bic	r3, r3, #28672
 741 006a 23F07003 		bic	r3, r3, #112
 742 006e 1B04     		lsls	r3, r3, #16
 743 0070 1B0C     		lsrs	r3, r3, #16
 744 0072 43F44043 		orr	r3, r3, #49152
 745 0076 43F08003 		orr	r3, r3, #128
 746 007a 20F82230 		strh	r3, [r0, r2, lsl #2]	@ movhi
 747              	.L105:
 748 007e 0A78     		ldrb	r2, [r1]	@ zero_extendqisi2
 749 0080 30F82230 		ldrh	r3, [r0, r2, lsl #2]
 750 0084 23F48043 		bic	r3, r3, #16384
 751 0088 23F07003 		bic	r3, r3, #112
 752 008c 1B04     		lsls	r3, r3, #16
 753 008e 1B0C     		lsrs	r3, r3, #16
 754 0090 83F44053 		eor	r3, r3, #12288
 755 0094 D9E7     		b	.L115
 757              		.section	.text.USB_StopDevice,"ax",%progbits
 758              		.align	1
 759              		.global	USB_StopDevice
 760              		.syntax unified
 761              		.thumb
 762              		.thumb_func
 763              		.fpu softvfp
 765              	USB_StopDevice:
 766              		@ args = 0, pretend = 0, frame = 0
 767              		@ frame_needed = 0, uses_anonymous_args = 0
 768              		@ link register save eliminated.
 769 0000 0122     		movs	r2, #1
 770 0002 0346     		mov	r3, r0
ARM GAS  /tmp/ccn4wgg2.s 			page 14


 771 0004 A0F84020 		strh	r2, [r0, #64]	@ movhi
 772 0008 0020     		movs	r0, #0
 773 000a 0322     		movs	r2, #3
 774 000c A3F84400 		strh	r0, [r3, #68]	@ movhi
 775 0010 A3F84020 		strh	r2, [r3, #64]	@ movhi
 776 0014 7047     		bx	lr
 778              		.section	.text.USB_SetDevAddress,"ax",%progbits
 779              		.align	1
 780              		.global	USB_SetDevAddress
 781              		.syntax unified
 782              		.thumb
 783              		.thumb_func
 784              		.fpu softvfp
 786              	USB_SetDevAddress:
 787              		@ args = 0, pretend = 0, frame = 0
 788              		@ frame_needed = 0, uses_anonymous_args = 0
 789              		@ link register save eliminated.
 790 0000 11B9     		cbnz	r1, .L118
 791 0002 8023     		movs	r3, #128
 792 0004 A0F84C30 		strh	r3, [r0, #76]	@ movhi
 793              	.L118:
 794 0008 0020     		movs	r0, #0
 795 000a 7047     		bx	lr
 797              		.section	.text.USB_DevConnect,"ax",%progbits
 798              		.align	1
 799              		.global	USB_DevConnect
 800              		.syntax unified
 801              		.thumb
 802              		.thumb_func
 803              		.fpu softvfp
 805              	USB_DevConnect:
 806              		@ args = 0, pretend = 0, frame = 0
 807              		@ frame_needed = 0, uses_anonymous_args = 0
 808              		@ link register save eliminated.
 809 0000 0020     		movs	r0, #0
 810 0002 7047     		bx	lr
 812              		.section	.text.USB_DevDisconnect,"ax",%progbits
 813              		.align	1
 814              		.global	USB_DevDisconnect
 815              		.syntax unified
 816              		.thumb
 817              		.thumb_func
 818              		.fpu softvfp
 820              	USB_DevDisconnect:
 821              		@ args = 0, pretend = 0, frame = 0
 822              		@ frame_needed = 0, uses_anonymous_args = 0
 823              		@ link register save eliminated.
 824 0000 0020     		movs	r0, #0
 825 0002 7047     		bx	lr
 827              		.section	.text.USB_ReadInterrupts,"ax",%progbits
 828              		.align	1
 829              		.global	USB_ReadInterrupts
 830              		.syntax unified
 831              		.thumb
 832              		.thumb_func
 833              		.fpu softvfp
 835              	USB_ReadInterrupts:
ARM GAS  /tmp/ccn4wgg2.s 			page 15


 836              		@ args = 0, pretend = 0, frame = 0
 837              		@ frame_needed = 0, uses_anonymous_args = 0
 838              		@ link register save eliminated.
 839 0000 B0F84400 		ldrh	r0, [r0, #68]
 840 0004 80B2     		uxth	r0, r0
 841 0006 7047     		bx	lr
 843              		.section	.text.USB_ReadDevAllOutEpInterrupt,"ax",%progbits
 844              		.align	1
 845              		.global	USB_ReadDevAllOutEpInterrupt
 846              		.syntax unified
 847              		.thumb
 848              		.thumb_func
 849              		.fpu softvfp
 851              	USB_ReadDevAllOutEpInterrupt:
 852              		@ args = 0, pretend = 0, frame = 0
 853              		@ frame_needed = 0, uses_anonymous_args = 0
 854              		@ link register save eliminated.
 855 0000 0020     		movs	r0, #0
 856 0002 7047     		bx	lr
 858              		.section	.text.USB_ReadDevAllInEpInterrupt,"ax",%progbits
 859              		.align	1
 860              		.global	USB_ReadDevAllInEpInterrupt
 861              		.syntax unified
 862              		.thumb
 863              		.thumb_func
 864              		.fpu softvfp
 866              	USB_ReadDevAllInEpInterrupt:
 867              		@ args = 0, pretend = 0, frame = 0
 868              		@ frame_needed = 0, uses_anonymous_args = 0
 869              		@ link register save eliminated.
 870 0000 0020     		movs	r0, #0
 871 0002 7047     		bx	lr
 873              		.section	.text.USB_ReadDevOutEPInterrupt,"ax",%progbits
 874              		.align	1
 875              		.global	USB_ReadDevOutEPInterrupt
 876              		.syntax unified
 877              		.thumb
 878              		.thumb_func
 879              		.fpu softvfp
 881              	USB_ReadDevOutEPInterrupt:
 882              		@ args = 0, pretend = 0, frame = 0
 883              		@ frame_needed = 0, uses_anonymous_args = 0
 884              		@ link register save eliminated.
 885 0000 0020     		movs	r0, #0
 886 0002 7047     		bx	lr
 888              		.section	.text.USB_ReadDevInEPInterrupt,"ax",%progbits
 889              		.align	1
 890              		.global	USB_ReadDevInEPInterrupt
 891              		.syntax unified
 892              		.thumb
 893              		.thumb_func
 894              		.fpu softvfp
 896              	USB_ReadDevInEPInterrupt:
 897              		@ args = 0, pretend = 0, frame = 0
 898              		@ frame_needed = 0, uses_anonymous_args = 0
 899              		@ link register save eliminated.
 900 0000 0020     		movs	r0, #0
ARM GAS  /tmp/ccn4wgg2.s 			page 16


 901 0002 7047     		bx	lr
 903              		.section	.text.USB_ClearInterrupts,"ax",%progbits
 904              		.align	1
 905              		.global	USB_ClearInterrupts
 906              		.syntax unified
 907              		.thumb
 908              		.thumb_func
 909              		.fpu softvfp
 911              	USB_ClearInterrupts:
 912              		@ args = 0, pretend = 0, frame = 0
 913              		@ frame_needed = 0, uses_anonymous_args = 0
 914              		@ link register save eliminated.
 915 0000 7047     		bx	lr
 917              		.section	.text.USB_EP0_OutStart,"ax",%progbits
 918              		.align	1
 919              		.global	USB_EP0_OutStart
 920              		.syntax unified
 921              		.thumb
 922              		.thumb_func
 923              		.fpu softvfp
 925              	USB_EP0_OutStart:
 926              		@ args = 0, pretend = 0, frame = 0
 927              		@ frame_needed = 0, uses_anonymous_args = 0
 928              		@ link register save eliminated.
 929 0000 0020     		movs	r0, #0
 930 0002 7047     		bx	lr
 932              		.section	.text.USB_ActivateRemoteWakeup,"ax",%progbits
 933              		.align	1
 934              		.global	USB_ActivateRemoteWakeup
 935              		.syntax unified
 936              		.thumb
 937              		.thumb_func
 938              		.fpu softvfp
 940              	USB_ActivateRemoteWakeup:
 941              		@ args = 0, pretend = 0, frame = 0
 942              		@ frame_needed = 0, uses_anonymous_args = 0
 943              		@ link register save eliminated.
 944 0000 B0F84030 		ldrh	r3, [r0, #64]
 945 0004 9BB2     		uxth	r3, r3
 946 0006 43F01003 		orr	r3, r3, #16
 947 000a A0F84030 		strh	r3, [r0, #64]	@ movhi
 948 000e 0020     		movs	r0, #0
 949 0010 7047     		bx	lr
 951              		.section	.text.USB_DeActivateRemoteWakeup,"ax",%progbits
 952              		.align	1
 953              		.global	USB_DeActivateRemoteWakeup
 954              		.syntax unified
 955              		.thumb
 956              		.thumb_func
 957              		.fpu softvfp
 959              	USB_DeActivateRemoteWakeup:
 960              		@ args = 0, pretend = 0, frame = 0
 961              		@ frame_needed = 0, uses_anonymous_args = 0
 962              		@ link register save eliminated.
 963 0000 B0F84030 		ldrh	r3, [r0, #64]
 964 0004 23F01003 		bic	r3, r3, #16
 965 0008 1B04     		lsls	r3, r3, #16
ARM GAS  /tmp/ccn4wgg2.s 			page 17


 966 000a 1B0C     		lsrs	r3, r3, #16
 967 000c A0F84030 		strh	r3, [r0, #64]	@ movhi
 968 0010 0020     		movs	r0, #0
 969 0012 7047     		bx	lr
 971              		.section	.text.USB_WritePMA,"ax",%progbits
 972              		.align	1
 973              		.global	USB_WritePMA
 974              		.syntax unified
 975              		.thumb
 976              		.thumb_func
 977              		.fpu softvfp
 979              	USB_WritePMA:
 980              		@ args = 0, pretend = 0, frame = 0
 981              		@ frame_needed = 0, uses_anonymous_args = 0
 982              		@ link register save eliminated.
 983 0000 00EB4202 		add	r2, r0, r2, lsl #1
 984 0004 0133     		adds	r3, r3, #1
 985 0006 02F58062 		add	r2, r2, #1024
 986 000a 5B08     		lsrs	r3, r3, #1
 987 000c 02EB8303 		add	r3, r2, r3, lsl #2
 988              	.L131:
 989 0010 9A42     		cmp	r2, r3
 990 0012 00D1     		bne	.L132
 991 0014 7047     		bx	lr
 992              	.L132:
 993 0016 31F8020B 		ldrh	r0, [r1], #2	@ unaligned
 994 001a 22F8040B 		strh	r0, [r2], #4	@ movhi
 995 001e F7E7     		b	.L131
 997              		.section	.text.USB_EPStartXfer,"ax",%progbits
 998              		.align	1
 999              		.global	USB_EPStartXfer
 1000              		.syntax unified
 1001              		.thumb
 1002              		.thumb_func
 1003              		.fpu softvfp
 1005              	USB_EPStartXfer:
 1006              		@ args = 0, pretend = 0, frame = 0
 1007              		@ frame_needed = 0, uses_anonymous_args = 0
 1008 0000 70B5     		push	{r4, r5, r6, lr}
 1009 0002 0D46     		mov	r5, r1
 1010 0004 4978     		ldrb	r1, [r1, #1]	@ zero_extendqisi2
 1011 0006 0446     		mov	r4, r0
 1012 0008 0129     		cmp	r1, #1
 1013 000a AA69     		ldr	r2, [r5, #24]
 1014 000c 2B69     		ldr	r3, [r5, #16]
 1015 000e 287B     		ldrb	r0, [r5, #12]	@ zero_extendqisi2
 1016 0010 66D1     		bne	.L134
 1017 0012 9A42     		cmp	r2, r3
 1018 0014 9DBF     		ittte	ls
 1019 0016 0023     		movls	r3, #0
 1020 0018 AB61     		strls	r3, [r5, #24]
 1021 001a 1346     		movls	r3, r2
 1022 001c D21A     		subhi	r2, r2, r3
 1023 001e 88BF     		it	hi
 1024 0020 AA61     		strhi	r2, [r5, #24]
 1025 0022 9EB2     		uxth	r6, r3
 1026 0024 08BB     		cbnz	r0, .L137
ARM GAS  /tmp/ccn4wgg2.s 			page 18


 1027 0026 3346     		mov	r3, r6
 1028 0028 EA88     		ldrh	r2, [r5, #6]
 1029 002a 6969     		ldr	r1, [r5, #20]
 1030 002c 2046     		mov	r0, r4
 1031 002e FFF7FEFF 		bl	USB_WritePMA
 1032 0032 B4F85030 		ldrh	r3, [r4, #80]
 1033 0036 2A78     		ldrb	r2, [r5]	@ zero_extendqisi2
 1034 0038 99B2     		uxth	r1, r3
 1035 003a 04F20443 		addw	r3, r4, #1028
 1036 003e 1201     		lsls	r2, r2, #4
 1037 0040 0B44     		add	r3, r3, r1
 1038 0042 D652     		strh	r6, [r2, r3]	@ movhi
 1039              	.L138:
 1040 0044 2A78     		ldrb	r2, [r5]	@ zero_extendqisi2
 1041 0046 34F82230 		ldrh	r3, [r4, r2, lsl #2]
 1042 004a 23F4E043 		bic	r3, r3, #28672
 1043 004e 23F04003 		bic	r3, r3, #64
 1044 0052 1B04     		lsls	r3, r3, #16
 1045 0054 1B0C     		lsrs	r3, r3, #16
 1046 0056 83F03003 		eor	r3, r3, #48
 1047              	.L174:
 1048 005a 43F40043 		orr	r3, r3, #32768
 1049 005e 43F08003 		orr	r3, r3, #128
 1050 0062 24F82230 		strh	r3, [r4, r2, lsl #2]	@ movhi
 1051 0066 0020     		movs	r0, #0
 1052 0068 70BD     		pop	{r4, r5, r6, pc}
 1053              	.L137:
 1054 006a 2B78     		ldrb	r3, [r5]	@ zero_extendqisi2
 1055 006c 2046     		mov	r0, r4
 1056 006e 34F82320 		ldrh	r2, [r4, r3, lsl #2]
 1057 0072 1B01     		lsls	r3, r3, #4
 1058 0074 12F0400F 		tst	r2, #64
 1059 0078 B4F85020 		ldrh	r2, [r4, #80]
 1060 007c 91B2     		uxth	r1, r2
 1061 007e 15BF     		itete	ne
 1062 0080 04F20C42 		addwne	r2, r4, #1036
 1063 0084 04F20442 		addweq	r2, r4, #1028
 1064 0088 5218     		addne	r2, r2, r1
 1065 008a 5218     		addeq	r2, r2, r1
 1066 008c 15BF     		itete	ne
 1067 008e D652     		strhne	r6, [r2, r3]	@ movhi
 1068 0090 D652     		strheq	r6, [r2, r3]	@ movhi
 1069 0092 6A89     		ldrhne	r2, [r5, #10]
 1070 0094 2A89     		ldrheq	r2, [r5, #8]
 1071 0096 3346     		mov	r3, r6
 1072 0098 6969     		ldr	r1, [r5, #20]
 1073 009a FFF7FEFF 		bl	USB_WritePMA
 1074 009e 6B78     		ldrb	r3, [r5, #1]	@ zero_extendqisi2
 1075 00a0 2A78     		ldrb	r2, [r5]	@ zero_extendqisi2
 1076 00a2 73B9     		cbnz	r3, .L141
 1077 00a4 34F82230 		ldrh	r3, [r4, r2, lsl #2]
 1078 00a8 23F4E043 		bic	r3, r3, #28672
 1079 00ac 23F07003 		bic	r3, r3, #112
 1080 00b0 1B04     		lsls	r3, r3, #16
 1081 00b2 1B0C     		lsrs	r3, r3, #16
 1082 00b4 43F40043 		orr	r3, r3, #32768
 1083 00b8 43F0C003 		orr	r3, r3, #192
ARM GAS  /tmp/ccn4wgg2.s 			page 19


 1084              	.L170:
 1085 00bc 24F82230 		strh	r3, [r4, r2, lsl #2]	@ movhi
 1086 00c0 C0E7     		b	.L138
 1087              	.L141:
 1088 00c2 012B     		cmp	r3, #1
 1089 00c4 BED1     		bne	.L138
 1090 00c6 34F82230 		ldrh	r3, [r4, r2, lsl #2]
 1091 00ca 23F4E043 		bic	r3, r3, #28672
 1092 00ce 23F07003 		bic	r3, r3, #112
 1093 00d2 1B04     		lsls	r3, r3, #16
 1094 00d4 1B0C     		lsrs	r3, r3, #16
 1095 00d6 43F44043 		orr	r3, r3, #49152
 1096 00da 43F08003 		orr	r3, r3, #128
 1097 00de EDE7     		b	.L170
 1098              	.L134:
 1099 00e0 9A42     		cmp	r2, r3
 1100 00e2 93BF     		iteet	ls
 1101 00e4 0023     		movls	r3, #0
 1102 00e6 D21A     		subhi	r2, r2, r3
 1103 00e8 AA61     		strhi	r2, [r5, #24]
 1104 00ea AB61     		strls	r3, [r5, #24]
 1105 00ec 98BF     		it	ls
 1106 00ee 1346     		movls	r3, r2
 1107 00f0 2A78     		ldrb	r2, [r5]	@ zero_extendqisi2
 1108 00f2 B0B9     		cbnz	r0, .L145
 1109              	.L182:
 1110 00f4 B4F85000 		ldrh	r0, [r4, #80]
 1111 00f8 1201     		lsls	r2, r2, #4
 1112 00fa 81B2     		uxth	r1, r0
 1113 00fc 04F20C40 		addw	r0, r4, #1036
 1114 0100 0844     		add	r0, r0, r1
 1115 0102 002B     		cmp	r3, #0
 1116 0104 44D1     		bne	.L157
 1117 0106 835A     		ldrh	r3, [r0, r2]
 1118 0108 23F4F843 		bic	r3, r3, #31744
 1119 010c 1B04     		lsls	r3, r3, #16
 1120 010e 1B0C     		lsrs	r3, r3, #16
 1121 0110 8352     		strh	r3, [r0, r2]	@ movhi
 1122 0112 835A     		ldrh	r3, [r0, r2]
 1123 0114 6FEA4343 		mvn	r3, r3, lsl #17
 1124 0118 6FEA5343 		mvn	r3, r3, lsr #17
 1125              	.L173:
 1126 011c 9BB2     		uxth	r3, r3
 1127 011e 8352     		strh	r3, [r0, r2]	@ movhi
 1128 0120 3FE0     		b	.L147
 1129              	.L145:
 1130 0122 A1B9     		cbnz	r1, .L151
 1131 0124 B4F85000 		ldrh	r0, [r4, #80]
 1132 0128 1201     		lsls	r2, r2, #4
 1133 012a 81B2     		uxth	r1, r0
 1134 012c 04F20440 		addw	r0, r4, #1028
 1135 0130 0844     		add	r0, r0, r1
 1136 0132 E3B9     		cbnz	r3, .L152
 1137 0134 815A     		ldrh	r1, [r0, r2]
 1138 0136 21F4F841 		bic	r1, r1, #31744
 1139 013a 0904     		lsls	r1, r1, #16
 1140 013c 090C     		lsrs	r1, r1, #16
ARM GAS  /tmp/ccn4wgg2.s 			page 20


 1141 013e 8152     		strh	r1, [r0, r2]	@ movhi
 1142 0140 815A     		ldrh	r1, [r0, r2]
 1143 0142 6FEA4141 		mvn	r1, r1, lsl #17
 1144 0146 6FEA5141 		mvn	r1, r1, lsr #17
 1145              	.L171:
 1146 014a 89B2     		uxth	r1, r1
 1147 014c 8152     		strh	r1, [r0, r2]	@ movhi
 1148              	.L151:
 1149 014e 6978     		ldrb	r1, [r5, #1]	@ zero_extendqisi2
 1150 0150 2A78     		ldrb	r2, [r5]	@ zero_extendqisi2
 1151 0152 0029     		cmp	r1, #0
 1152 0154 CED0     		beq	.L182
 1153 0156 0129     		cmp	r1, #1
 1154 0158 23D1     		bne	.L147
 1155 015a B4F85010 		ldrh	r1, [r4, #80]
 1156 015e 1201     		lsls	r2, r2, #4
 1157 0160 88B2     		uxth	r0, r1
 1158 0162 04F20C41 		addw	r1, r4, #1036
 1159 0166 0144     		add	r1, r1, r0
 1160 0168 9BB2     		uxth	r3, r3
 1161 016a 8B52     		strh	r3, [r1, r2]	@ movhi
 1162 016c 19E0     		b	.L147
 1163              	.L152:
 1164 016e 3E2B     		cmp	r3, #62
 1165 0170 05D8     		bhi	.L153
 1166 0172 5908     		lsrs	r1, r3, #1
 1167 0174 DE07     		lsls	r6, r3, #31
 1168 0176 48BF     		it	mi
 1169 0178 0131     		addmi	r1, r1, #1
 1170 017a 8902     		lsls	r1, r1, #10
 1171 017c E5E7     		b	.L171
 1172              	.L153:
 1173 017e 5E09     		lsrs	r6, r3, #5
 1174 0180 D906     		lsls	r1, r3, #27
 1175 0182 1249     		ldr	r1, .L183
 1176 0184 08BF     		it	eq
 1177 0186 06F1FF36 		addeq	r6, r6, #-1
 1178 018a 41EA8621 		orr	r1, r1, r6, lsl #10
 1179 018e DCE7     		b	.L171
 1180              	.L157:
 1181 0190 3E2B     		cmp	r3, #62
 1182 0192 12D8     		bhi	.L158
 1183 0194 5908     		lsrs	r1, r3, #1
 1184 0196 DE07     		lsls	r6, r3, #31
 1185 0198 48BF     		it	mi
 1186 019a 0131     		addmi	r1, r1, #1
 1187 019c 8902     		lsls	r1, r1, #10
 1188 019e 89B2     		uxth	r1, r1
 1189 01a0 8152     		strh	r1, [r0, r2]	@ movhi
 1190              	.L147:
 1191 01a2 2A78     		ldrb	r2, [r5]	@ zero_extendqisi2
 1192 01a4 34F82230 		ldrh	r3, [r4, r2, lsl #2]
 1193 01a8 23F48043 		bic	r3, r3, #16384
 1194 01ac 23F07003 		bic	r3, r3, #112
 1195 01b0 1B04     		lsls	r3, r3, #16
 1196 01b2 1B0C     		lsrs	r3, r3, #16
 1197 01b4 83F44053 		eor	r3, r3, #12288
ARM GAS  /tmp/ccn4wgg2.s 			page 21


 1198 01b8 4FE7     		b	.L174
 1199              	.L158:
 1200 01ba 5909     		lsrs	r1, r3, #5
 1201 01bc DB06     		lsls	r3, r3, #27
 1202 01be 034B     		ldr	r3, .L183
 1203 01c0 08BF     		it	eq
 1204 01c2 01F1FF31 		addeq	r1, r1, #-1
 1205 01c6 43EA8123 		orr	r3, r3, r1, lsl #10
 1206 01ca A7E7     		b	.L173
 1207              	.L184:
 1208              		.align	2
 1209              	.L183:
 1210 01cc 0080FFFF 		.word	-32768
 1212              		.section	.text.USB_ReadPMA,"ax",%progbits
 1213              		.align	1
 1214              		.global	USB_ReadPMA
 1215              		.syntax unified
 1216              		.thumb
 1217              		.thumb_func
 1218              		.fpu softvfp
 1220              	USB_ReadPMA:
 1221              		@ args = 0, pretend = 0, frame = 0
 1222              		@ frame_needed = 0, uses_anonymous_args = 0
 1223 0000 00EB4202 		add	r2, r0, r2, lsl #1
 1224 0004 F0B5     		push	{r4, r5, r6, r7, lr}
 1225 0006 02F58062 		add	r2, r2, #1024
 1226 000a 5D08     		lsrs	r5, r3, #1
 1227 000c 0846     		mov	r0, r1
 1228 000e 1746     		mov	r7, r2
 1229 0010 2E46     		mov	r6, r5
 1230              	.L186:
 1231 0012 0230     		adds	r0, r0, #2
 1232 0014 36B9     		cbnz	r6, .L187
 1233 0016 DB07     		lsls	r3, r3, #31
 1234 0018 44BF     		itt	mi
 1235 001a 32F82530 		ldrhmi	r3, [r2, r5, lsl #2]
 1236 001e 01F81530 		strbmi	r3, [r1, r5, lsl #1]
 1237 0022 F0BD     		pop	{r4, r5, r6, r7, pc}
 1238              	.L187:
 1239 0024 37F8044B 		ldrh	r4, [r7], #4
 1240 0028 013E     		subs	r6, r6, #1
 1241 002a A4B2     		uxth	r4, r4
 1242 002c 00F8024C 		strb	r4, [r0, #-2]
 1243 0030 240A     		lsrs	r4, r4, #8
 1244 0032 00F8014C 		strb	r4, [r0, #-1]
 1245 0036 ECE7     		b	.L186
 1247              		.ident	"GCC: (15:6.3.1+svn253039-1build1) 6.3.1 20170620"
ARM GAS  /tmp/ccn4wgg2.s 			page 22

