ARM GAS  /tmp/ccIYmzMK.s 			page 1


   1              		.syntax unified
   2              		.cpu cortex-m3
   3              		.fpu softvfp
   4              		.eabi_attribute 20, 1
   5              		.eabi_attribute 21, 1
   6              		.eabi_attribute 23, 3
   7              		.eabi_attribute 24, 1
   8              		.eabi_attribute 25, 1
   9              		.eabi_attribute 26, 1
  10              		.eabi_attribute 30, 4
  11              		.eabi_attribute 34, 1
  12              		.eabi_attribute 18, 4
  13              		.thumb
  14              		.file	"stm32f1xx_hal_gpio.c"
  15              		.section	.text.HAL_GPIO_Init,"ax",%progbits
  16              		.align	1
  17              		.global	HAL_GPIO_Init
  18              		.thumb
  19              		.thumb_func
  21              	HAL_GPIO_Init:
  22              		@ args = 0, pretend = 0, frame = 8
  23              		@ frame_needed = 0, uses_anonymous_args = 0
  24 0000 0023     		movs	r3, #0
  25 0002 F7B5     		push	{r0, r1, r2, r4, r5, r6, r7, lr}
  26 0004 1D46     		mov	r5, r3
  27              	.L2:
  28 0006 0C68     		ldr	r4, [r1]
  29 0008 34FA05F2 		lsrs	r2, r4, r5
  30 000c 00F0B480 		beq	.L45
  31 0010 0122     		movs	r2, #1
  32 0012 AA40     		lsls	r2, r2, r5
  33 0014 1440     		ands	r4, r4, r2
  34 0016 9442     		cmp	r4, r2
  35 0018 40F0AC80 		bne	.L3
  36 001c 4A68     		ldr	r2, [r1, #4]
  37 001e 122A     		cmp	r2, #18
  38 0020 2BD0     		beq	.L5
  39 0022 0ED8     		bhi	.L6
  40 0024 022A     		cmp	r2, #2
  41 0026 25D0     		beq	.L7
  42 0028 04D8     		bhi	.L8
  43 002a 4AB3     		cbz	r2, .L9
  44 002c 012A     		cmp	r2, #1
  45 002e 30D1     		bne	.L4
  46 0030 CB68     		ldr	r3, [r1, #12]
  47 0032 2EE0     		b	.L4
  48              	.L8:
  49 0034 032A     		cmp	r2, #3
  50 0036 1BD0     		beq	.L11
  51 0038 112A     		cmp	r2, #17
  52 003a 2AD1     		bne	.L4
  53 003c CB68     		ldr	r3, [r1, #12]
  54 003e 0433     		adds	r3, r3, #4
  55 0040 27E0     		b	.L4
  56              	.L6:
  57 0042 4E4E     		ldr	r6, .L46
  58 0044 B242     		cmp	r2, r6
ARM GAS  /tmp/ccIYmzMK.s 			page 2


  59 0046 1BD0     		beq	.L9
  60 0048 06D8     		bhi	.L13
  61 004a A6F58016 		sub	r6, r6, #1048576
  62 004e B242     		cmp	r2, r6
  63 0050 16D0     		beq	.L9
  64 0052 06F58036 		add	r6, r6, #65536
  65 0056 08E0     		b	.L38
  66              	.L13:
  67 0058 494E     		ldr	r6, .L46+4
  68 005a B242     		cmp	r2, r6
  69 005c 10D0     		beq	.L9
  70 005e 06F58036 		add	r6, r6, #65536
  71 0062 B242     		cmp	r2, r6
  72 0064 0CD0     		beq	.L9
  73 0066 A6F58016 		sub	r6, r6, #1048576
  74              	.L38:
  75 006a B242     		cmp	r2, r6
  76 006c 11D1     		bne	.L4
  77 006e 07E0     		b	.L9
  78              	.L11:
  79 0070 0023     		movs	r3, #0
  80 0072 0EE0     		b	.L4
  81              	.L7:
  82 0074 CB68     		ldr	r3, [r1, #12]
  83 0076 0833     		adds	r3, r3, #8
  84 0078 0BE0     		b	.L4
  85              	.L5:
  86 007a CB68     		ldr	r3, [r1, #12]
  87 007c 0C33     		adds	r3, r3, #12
  88 007e 08E0     		b	.L4
  89              	.L9:
  90 0080 8B68     		ldr	r3, [r1, #8]
  91 0082 2BB1     		cbz	r3, .L26
  92 0084 012B     		cmp	r3, #1
  93 0086 0CBF     		ite	eq
  94 0088 0461     		streq	r4, [r0, #16]
  95 008a 4461     		strne	r4, [r0, #20]
  96 008c 0823     		movs	r3, #8
  97 008e 00E0     		b	.L4
  98              	.L26:
  99 0090 0423     		movs	r3, #4
 100              	.L4:
 101 0092 FF2C     		cmp	r4, #255
 102 0094 97BF     		itett	ls
 103 0096 8646     		movls	lr, r0
 104 0098 A5F10807 		subhi	r7, r5, #8
 105 009c 0668     		ldrls	r6, [r0]
 106 009e AF00     		lslls	r7, r5, #2
 107 00a0 84BF     		itt	hi
 108 00a2 4668     		ldrhi	r6, [r0, #4]
 109 00a4 BF00     		lslhi	r7, r7, #2
 110 00a6 4FF00F02 		mov	r2, #15
 111 00aa 02FA07FC 		lsl	ip, r2, r7
 112 00ae 26EA0C06 		bic	r6, r6, ip
 113 00b2 03FA07F7 		lsl	r7, r3, r7
 114 00b6 46EA0706 		orr	r6, r6, r7
 115 00ba 88BF     		it	hi
ARM GAS  /tmp/ccIYmzMK.s 			page 3


 116 00bc 00F1040E 		addhi	lr, r0, #4
 117 00c0 CEF80060 		str	r6, [lr]
 118 00c4 4F68     		ldr	r7, [r1, #4]
 119 00c6 FE00     		lsls	r6, r7, #3
 120 00c8 54D5     		bpl	.L3
 121 00ca 2E4E     		ldr	r6, .L46+8
 122 00cc 05F0030C 		and	ip, r5, #3
 123 00d0 D6F818E0 		ldr	lr, [r6, #24]
 124 00d4 4FEA8C0C 		lsl	ip, ip, #2
 125 00d8 4EF0010E 		orr	lr, lr, #1
 126 00dc C6F818E0 		str	lr, [r6, #24]
 127 00e0 B669     		ldr	r6, [r6, #24]
 128 00e2 02FA0CF2 		lsl	r2, r2, ip
 129 00e6 06F00106 		and	r6, r6, #1
 130 00ea 0196     		str	r6, [sp, #4]
 131 00ec 019E     		ldr	r6, [sp, #4]
 132 00ee 25F00306 		bic	r6, r5, #3
 133 00f2 06F18046 		add	r6, r6, #1073741824
 134 00f6 06F58036 		add	r6, r6, #65536
 135 00fa D6F808E0 		ldr	lr, [r6, #8]
 136 00fe 2EEA020E 		bic	lr, lr, r2
 137 0102 214A     		ldr	r2, .L46+12
 138 0104 9042     		cmp	r0, r2
 139 0106 0ED0     		beq	.L27
 140 0108 02F58062 		add	r2, r2, #1024
 141 010c 9042     		cmp	r0, r2
 142 010e 0CD0     		beq	.L28
 143 0110 02F58062 		add	r2, r2, #1024
 144 0114 9042     		cmp	r0, r2
 145 0116 0AD0     		beq	.L29
 146 0118 02F58062 		add	r2, r2, #1024
 147 011c 9042     		cmp	r0, r2
 148 011e 0CBF     		ite	eq
 149 0120 0322     		moveq	r2, #3
 150 0122 0422     		movne	r2, #4
 151 0124 04E0     		b	.L17
 152              	.L27:
 153 0126 0022     		movs	r2, #0
 154 0128 02E0     		b	.L17
 155              	.L28:
 156 012a 0122     		movs	r2, #1
 157 012c 00E0     		b	.L17
 158              	.L29:
 159 012e 0222     		movs	r2, #2
 160              	.L17:
 161 0130 02FA0CF2 		lsl	r2, r2, ip
 162 0134 42EA0E02 		orr	r2, r2, lr
 163 0138 B260     		str	r2, [r6, #8]
 164 013a 144A     		ldr	r2, .L46+16
 165 013c 17F4803F 		tst	r7, #65536
 166 0140 1668     		ldr	r6, [r2]
 167 0142 14BF     		ite	ne
 168 0144 2643     		orrne	r6, r6, r4
 169 0146 A643     		biceq	r6, r6, r4
 170 0148 1660     		str	r6, [r2]
 171 014a 5668     		ldr	r6, [r2, #4]
 172 014c 17F4003F 		tst	r7, #131072
ARM GAS  /tmp/ccIYmzMK.s 			page 4


 173 0150 14BF     		ite	ne
 174 0152 2643     		orrne	r6, r6, r4
 175 0154 A643     		biceq	r6, r6, r4
 176 0156 5660     		str	r6, [r2, #4]
 177 0158 9668     		ldr	r6, [r2, #8]
 178 015a 17F4801F 		tst	r7, #1048576
 179 015e 14BF     		ite	ne
 180 0160 2643     		orrne	r6, r6, r4
 181 0162 A643     		biceq	r6, r6, r4
 182 0164 9660     		str	r6, [r2, #8]
 183 0166 D668     		ldr	r6, [r2, #12]
 184 0168 BF02     		lsls	r7, r7, #10
 185 016a 4CBF     		ite	mi
 186 016c 3443     		orrmi	r4, r4, r6
 187 016e 26EA0404 		bicpl	r4, r6, r4
 188 0172 D460     		str	r4, [r2, #12]
 189              	.L3:
 190 0174 0135     		adds	r5, r5, #1
 191 0176 46E7     		b	.L2
 192              	.L45:
 193 0178 03B0     		add	sp, sp, #12
 194              		@ sp needed
 195 017a F0BD     		pop	{r4, r5, r6, r7, pc}
 196              	.L47:
 197              		.align	2
 198              	.L46:
 199 017c 00002110 		.word	270598144
 200 0180 00003110 		.word	271646720
 201 0184 00100240 		.word	1073876992
 202 0188 00080140 		.word	1073809408
 203 018c 00040140 		.word	1073808384
 205              		.section	.text.HAL_GPIO_DeInit,"ax",%progbits
 206              		.align	1
 207              		.global	HAL_GPIO_DeInit
 208              		.thumb
 209              		.thumb_func
 211              	HAL_GPIO_DeInit:
 212              		@ args = 0, pretend = 0, frame = 0
 213              		@ frame_needed = 0, uses_anonymous_args = 0
 214 0000 F0B5     		push	{r4, r5, r6, r7, lr}
 215 0002 0022     		movs	r2, #0
 216              	.L49:
 217 0004 31FA02F3 		lsrs	r3, r1, r2
 218 0008 5CD0     		beq	.L63
 219 000a 0123     		movs	r3, #1
 220 000c 03FA02F6 		lsl	r6, r3, r2
 221 0010 0E40     		ands	r6, r6, r1
 222 0012 55D0     		beq	.L50
 223 0014 22F00304 		bic	r4, r2, #3
 224 0018 04F18044 		add	r4, r4, #1073741824
 225 001c 04F58034 		add	r4, r4, #65536
 226 0020 02F00305 		and	r5, r2, #3
 227 0024 DFF8A8C0 		ldr	ip, .L64+8
 228 0028 D4F808E0 		ldr	lr, [r4, #8]
 229 002c AD00     		lsls	r5, r5, #2
 230 002e 0F27     		movs	r7, #15
 231 0030 AF40     		lsls	r7, r7, r5
ARM GAS  /tmp/ccIYmzMK.s 			page 5


 232 0032 6045     		cmp	r0, ip
 233 0034 07EA0E0E 		and	lr, r7, lr
 234 0038 0DD0     		beq	.L56
 235 003a 0CF5806C 		add	ip, ip, #1024
 236 003e 6045     		cmp	r0, ip
 237 0040 0CD0     		beq	.L51
 238 0042 214B     		ldr	r3, .L64
 239 0044 9842     		cmp	r0, r3
 240 0046 08D0     		beq	.L58
 241 0048 03F58063 		add	r3, r3, #1024
 242 004c 9842     		cmp	r0, r3
 243 004e 0CBF     		ite	eq
 244 0050 0323     		moveq	r3, #3
 245 0052 0423     		movne	r3, #4
 246 0054 02E0     		b	.L51
 247              	.L56:
 248 0056 0023     		movs	r3, #0
 249 0058 00E0     		b	.L51
 250              	.L58:
 251 005a 0223     		movs	r3, #2
 252              	.L51:
 253 005c AB40     		lsls	r3, r3, r5
 254 005e 9E45     		cmp	lr, r3
 255 0060 6FEA0605 		mvn	r5, r6
 256 0064 10D1     		bne	.L52
 257 0066 A368     		ldr	r3, [r4, #8]
 258 0068 23EA0707 		bic	r7, r3, r7
 259 006c 174B     		ldr	r3, .L64+4
 260 006e A760     		str	r7, [r4, #8]
 261 0070 1C68     		ldr	r4, [r3]
 262 0072 2C40     		ands	r4, r4, r5
 263 0074 1C60     		str	r4, [r3]
 264 0076 5C68     		ldr	r4, [r3, #4]
 265 0078 2C40     		ands	r4, r4, r5
 266 007a 5C60     		str	r4, [r3, #4]
 267 007c 9C68     		ldr	r4, [r3, #8]
 268 007e 2C40     		ands	r4, r4, r5
 269 0080 9C60     		str	r4, [r3, #8]
 270 0082 DC68     		ldr	r4, [r3, #12]
 271 0084 2C40     		ands	r4, r4, r5
 272 0086 DC60     		str	r4, [r3, #12]
 273              	.L52:
 274 0088 FF2E     		cmp	r6, #255
 275 008a 95BF     		itete	ls
 276 008c 0746     		movls	r7, r0
 277 008e A2F10806 		subhi	r6, r2, #8
 278 0092 0368     		ldrls	r3, [r0]
 279 0094 4368     		ldrhi	r3, [r0, #4]
 280 0096 94BF     		ite	ls
 281 0098 9600     		lslls	r6, r2, #2
 282 009a B600     		lslhi	r6, r6, #2
 283 009c 4FF00F04 		mov	r4, #15
 284 00a0 04FA06F4 		lsl	r4, r4, r6
 285 00a4 23EA0403 		bic	r3, r3, r4
 286 00a8 4FF00404 		mov	r4, #4
 287 00ac 04FA06F4 		lsl	r4, r4, r6
 288 00b0 43EA0403 		orr	r3, r3, r4
ARM GAS  /tmp/ccIYmzMK.s 			page 6


 289 00b4 88BF     		it	hi
 290 00b6 071D     		addhi	r7, r0, #4
 291 00b8 3B60     		str	r3, [r7]
 292 00ba C368     		ldr	r3, [r0, #12]
 293 00bc 1D40     		ands	r5, r5, r3
 294 00be C560     		str	r5, [r0, #12]
 295              	.L50:
 296 00c0 0132     		adds	r2, r2, #1
 297 00c2 9FE7     		b	.L49
 298              	.L63:
 299 00c4 F0BD     		pop	{r4, r5, r6, r7, pc}
 300              	.L65:
 301 00c6 00BF     		.align	2
 302              	.L64:
 303 00c8 00100140 		.word	1073811456
 304 00cc 00040140 		.word	1073808384
 305 00d0 00080140 		.word	1073809408
 307              		.section	.text.HAL_GPIO_ReadPin,"ax",%progbits
 308              		.align	1
 309              		.global	HAL_GPIO_ReadPin
 310              		.thumb
 311              		.thumb_func
 313              	HAL_GPIO_ReadPin:
 314              		@ args = 0, pretend = 0, frame = 0
 315              		@ frame_needed = 0, uses_anonymous_args = 0
 316              		@ link register save eliminated.
 317 0000 8368     		ldr	r3, [r0, #8]
 318 0002 1942     		tst	r1, r3
 319 0004 14BF     		ite	ne
 320 0006 0120     		movne	r0, #1
 321 0008 0020     		moveq	r0, #0
 322 000a 7047     		bx	lr
 324              		.section	.text.HAL_GPIO_WritePin,"ax",%progbits
 325              		.align	1
 326              		.global	HAL_GPIO_WritePin
 327              		.thumb
 328              		.thumb_func
 330              	HAL_GPIO_WritePin:
 331              		@ args = 0, pretend = 0, frame = 0
 332              		@ frame_needed = 0, uses_anonymous_args = 0
 333              		@ link register save eliminated.
 334 0000 02B9     		cbnz	r2, .L70
 335 0002 0904     		lsls	r1, r1, #16
 336              	.L70:
 337 0004 0161     		str	r1, [r0, #16]
 338 0006 7047     		bx	lr
 340              		.section	.text.HAL_GPIO_TogglePin,"ax",%progbits
 341              		.align	1
 342              		.global	HAL_GPIO_TogglePin
 343              		.thumb
 344              		.thumb_func
 346              	HAL_GPIO_TogglePin:
 347              		@ args = 0, pretend = 0, frame = 0
 348              		@ frame_needed = 0, uses_anonymous_args = 0
 349              		@ link register save eliminated.
 350 0000 C368     		ldr	r3, [r0, #12]
 351 0002 1942     		tst	r1, r3
ARM GAS  /tmp/ccIYmzMK.s 			page 7


 352 0004 14BF     		ite	ne
 353 0006 4161     		strne	r1, [r0, #20]
 354 0008 0161     		streq	r1, [r0, #16]
 355 000a 7047     		bx	lr
 357              		.section	.text.HAL_GPIO_LockPin,"ax",%progbits
 358              		.align	1
 359              		.global	HAL_GPIO_LockPin
 360              		.thumb
 361              		.thumb_func
 363              	HAL_GPIO_LockPin:
 364              		@ args = 0, pretend = 0, frame = 8
 365              		@ frame_needed = 0, uses_anonymous_args = 0
 366              		@ link register save eliminated.
 367 0000 82B0     		sub	sp, sp, #8
 368 0002 4FF48033 		mov	r3, #65536
 369 0006 0193     		str	r3, [sp, #4]
 370 0008 019B     		ldr	r3, [sp, #4]
 371 000a 0B43     		orrs	r3, r3, r1
 372 000c 0193     		str	r3, [sp, #4]
 373 000e 019B     		ldr	r3, [sp, #4]
 374 0010 8361     		str	r3, [r0, #24]
 375 0012 8161     		str	r1, [r0, #24]
 376 0014 019B     		ldr	r3, [sp, #4]
 377 0016 8361     		str	r3, [r0, #24]
 378 0018 8369     		ldr	r3, [r0, #24]
 379 001a 0193     		str	r3, [sp, #4]
 380 001c 8069     		ldr	r0, [r0, #24]
 381 001e 80F48030 		eor	r0, r0, #65536
 382 0022 C0F30040 		ubfx	r0, r0, #16, #1
 383 0026 02B0     		add	sp, sp, #8
 384              		@ sp needed
 385 0028 7047     		bx	lr
 387              		.section	.text.HAL_GPIO_EXTI_Callback,"ax",%progbits
 388              		.align	1
 389              		.weak	HAL_GPIO_EXTI_Callback
 390              		.thumb
 391              		.thumb_func
 393              	HAL_GPIO_EXTI_Callback:
 394              		@ args = 0, pretend = 0, frame = 0
 395              		@ frame_needed = 0, uses_anonymous_args = 0
 396              		@ link register save eliminated.
 397 0000 7047     		bx	lr
 399              		.section	.text.HAL_GPIO_EXTI_IRQHandler,"ax",%progbits
 400              		.align	1
 401              		.global	HAL_GPIO_EXTI_IRQHandler
 402              		.thumb
 403              		.thumb_func
 405              	HAL_GPIO_EXTI_IRQHandler:
 406              		@ args = 0, pretend = 0, frame = 0
 407              		@ frame_needed = 0, uses_anonymous_args = 0
 408 0000 08B5     		push	{r3, lr}
 409 0002 044B     		ldr	r3, .L81
 410 0004 5969     		ldr	r1, [r3, #20]
 411 0006 0842     		tst	r0, r1
 412 0008 02D0     		beq	.L76
 413 000a 5861     		str	r0, [r3, #20]
 414 000c FFF7FEFF 		bl	HAL_GPIO_EXTI_Callback
ARM GAS  /tmp/ccIYmzMK.s 			page 8


 415              	.L76:
 416 0010 08BD     		pop	{r3, pc}
 417              	.L82:
 418 0012 00BF     		.align	2
 419              	.L81:
 420 0014 00040140 		.word	1073808384
 422              		.ident	"GCC: (15:4.9.3+svn231177-1) 4.9.3 20150529 (prerelease)"
ARM GAS  /tmp/ccIYmzMK.s 			page 9

