ARM GAS  /tmp/cc5JP12Q.s 			page 1


   1              		.cpu cortex-m3
   2              		.eabi_attribute 20, 1
   3              		.eabi_attribute 21, 1
   4              		.eabi_attribute 23, 3
   5              		.eabi_attribute 24, 1
   6              		.eabi_attribute 25, 1
   7              		.eabi_attribute 26, 1
   8              		.eabi_attribute 30, 4
   9              		.eabi_attribute 34, 1
  10              		.eabi_attribute 18, 4
  11              		.file	"stm32f1xx_hal_i2c.c"
  12              		.section	.text.I2C_IsAcknowledgeFailed,"ax",%progbits
  13              		.align	1
  14              		.syntax unified
  15              		.thumb
  16              		.thumb_func
  17              		.fpu softvfp
  19              	I2C_IsAcknowledgeFailed:
  20              		@ args = 0, pretend = 0, frame = 0
  21              		@ frame_needed = 0, uses_anonymous_args = 0
  22              		@ link register save eliminated.
  23 0000 0168     		ldr	r1, [r0]
  24 0002 0022     		movs	r2, #0
  25 0004 4B69     		ldr	r3, [r1, #20]
  26 0006 13F48063 		ands	r3, r3, #1024
  27 000a 10D0     		beq	.L3
  28 000c 6FF48063 		mvn	r3, #1024
  29 0010 4B61     		str	r3, [r1, #20]
  30 0012 2023     		movs	r3, #32
  31 0014 0263     		str	r2, [r0, #48]
  32 0016 80F83D30 		strb	r3, [r0, #61]
  33 001a 80F83E20 		strb	r2, [r0, #62]
  34 001e 036C     		ldr	r3, [r0, #64]
  35 0020 80F83C20 		strb	r2, [r0, #60]
  36 0024 43F00403 		orr	r3, r3, #4
  37 0028 0364     		str	r3, [r0, #64]
  38 002a 0120     		movs	r0, #1
  39 002c 7047     		bx	lr
  40              	.L3:
  41 002e 1846     		mov	r0, r3
  42 0030 7047     		bx	lr
  44              		.section	.text.I2C_WaitOnMasterAddressFlagUntilTimeout,"ax",%progbits
  45              		.align	1
  46              		.syntax unified
  47              		.thumb
  48              		.thumb_func
  49              		.fpu softvfp
  51              	I2C_WaitOnMasterAddressFlagUntilTimeout:
  52              		@ args = 0, pretend = 0, frame = 0
  53              		@ frame_needed = 0, uses_anonymous_args = 0
  54 0000 2DE9F843 		push	{r3, r4, r5, r6, r7, r8, r9, lr}
  55 0004 0446     		mov	r4, r0
  56 0006 1746     		mov	r7, r2
  57 0008 9946     		mov	r9, r3
  58 000a C1F30748 		ubfx	r8, r1, #16, #8
  59 000e 8EB2     		uxth	r6, r1
  60              	.L8:
ARM GAS  /tmp/cc5JP12Q.s 			page 2


  61 0010 2568     		ldr	r5, [r4]
  62 0012 B8F1010F 		cmp	r8, #1
  63 0016 0CBF     		ite	eq
  64 0018 6B69     		ldreq	r3, [r5, #20]
  65 001a AB69     		ldrne	r3, [r5, #24]
  66 001c 36EA0303 		bics	r3, r6, r3
  67 0020 14BF     		ite	ne
  68 0022 0120     		movne	r0, #1
  69 0024 0020     		moveq	r0, #0
  70 0026 08B9     		cbnz	r0, .L12
  71 0028 BDE8F883 		pop	{r3, r4, r5, r6, r7, r8, r9, pc}
  72              	.L12:
  73 002c 6B69     		ldr	r3, [r5, #20]
  74 002e 5A05     		lsls	r2, r3, #21
  75 0030 16D5     		bpl	.L6
  76 0032 2B68     		ldr	r3, [r5]
  77 0034 2022     		movs	r2, #32
  78 0036 43F40073 		orr	r3, r3, #512
  79 003a 2B60     		str	r3, [r5]
  80 003c 6FF48063 		mvn	r3, #1024
  81 0040 6B61     		str	r3, [r5, #20]
  82 0042 0023     		movs	r3, #0
  83 0044 2363     		str	r3, [r4, #48]
  84 0046 84F83D20 		strb	r2, [r4, #61]
  85 004a 84F83E30 		strb	r3, [r4, #62]
  86 004e 226C     		ldr	r2, [r4, #64]
  87 0050 42F00402 		orr	r2, r2, #4
  88              	.L17:
  89 0054 2264     		str	r2, [r4, #64]
  90 0056 84F83C30 		strb	r3, [r4, #60]
  91 005a 0120     		movs	r0, #1
  92 005c BDE8F883 		pop	{r3, r4, r5, r6, r7, r8, r9, pc}
  93              	.L6:
  94 0060 7B1C     		adds	r3, r7, #1
  95 0062 D5D0     		beq	.L8
  96 0064 FFF7FEFF 		bl	HAL_GetTick
  97 0068 A0EB0900 		sub	r0, r0, r9
  98 006c 8742     		cmp	r7, r0
  99 006e 01D3     		bcc	.L9
 100 0070 002F     		cmp	r7, #0
 101 0072 CDD1     		bne	.L8
 102              	.L9:
 103 0074 0023     		movs	r3, #0
 104 0076 2022     		movs	r2, #32
 105 0078 2363     		str	r3, [r4, #48]
 106 007a 84F83D20 		strb	r2, [r4, #61]
 107 007e 84F83E30 		strb	r3, [r4, #62]
 108 0082 226C     		ldr	r2, [r4, #64]
 109 0084 42F02002 		orr	r2, r2, #32
 110 0088 E4E7     		b	.L17
 112              		.section	.text.I2C_WaitOnBTFFlagUntilTimeout,"ax",%progbits
 113              		.align	1
 114              		.syntax unified
 115              		.thumb
 116              		.thumb_func
 117              		.fpu softvfp
 119              	I2C_WaitOnBTFFlagUntilTimeout:
ARM GAS  /tmp/cc5JP12Q.s 			page 3


 120              		@ args = 0, pretend = 0, frame = 0
 121              		@ frame_needed = 0, uses_anonymous_args = 0
 122 0000 70B5     		push	{r4, r5, r6, lr}
 123 0002 0446     		mov	r4, r0
 124 0004 0D46     		mov	r5, r1
 125 0006 1646     		mov	r6, r2
 126              	.L21:
 127 0008 2368     		ldr	r3, [r4]
 128 000a 5B69     		ldr	r3, [r3, #20]
 129 000c 5B07     		lsls	r3, r3, #29
 130 000e 01D5     		bpl	.L23
 131 0010 0020     		movs	r0, #0
 132 0012 70BD     		pop	{r4, r5, r6, pc}
 133              	.L23:
 134 0014 2046     		mov	r0, r4
 135 0016 FFF7FEFF 		bl	I2C_IsAcknowledgeFailed
 136 001a A8B9     		cbnz	r0, .L24
 137 001c 6A1C     		adds	r2, r5, #1
 138 001e F3D0     		beq	.L21
 139 0020 FFF7FEFF 		bl	HAL_GetTick
 140 0024 801B     		subs	r0, r0, r6
 141 0026 8542     		cmp	r5, r0
 142 0028 01D3     		bcc	.L22
 143 002a 002D     		cmp	r5, #0
 144 002c ECD1     		bne	.L21
 145              	.L22:
 146 002e 0023     		movs	r3, #0
 147 0030 2022     		movs	r2, #32
 148 0032 2363     		str	r3, [r4, #48]
 149 0034 84F83D20 		strb	r2, [r4, #61]
 150 0038 84F83E30 		strb	r3, [r4, #62]
 151 003c 226C     		ldr	r2, [r4, #64]
 152 003e 84F83C30 		strb	r3, [r4, #60]
 153 0042 42F02002 		orr	r2, r2, #32
 154 0046 2264     		str	r2, [r4, #64]
 155              	.L24:
 156 0048 0120     		movs	r0, #1
 157 004a 70BD     		pop	{r4, r5, r6, pc}
 159              		.section	.text.I2C_WaitOnRXNEFlagUntilTimeout,"ax",%progbits
 160              		.align	1
 161              		.syntax unified
 162              		.thumb
 163              		.thumb_func
 164              		.fpu softvfp
 166              	I2C_WaitOnRXNEFlagUntilTimeout:
 167              		@ args = 0, pretend = 0, frame = 0
 168              		@ frame_needed = 0, uses_anonymous_args = 0
 169 0000 70B5     		push	{r4, r5, r6, lr}
 170 0002 0446     		mov	r4, r0
 171 0004 0D46     		mov	r5, r1
 172 0006 1646     		mov	r6, r2
 173              	.L29:
 174 0008 2068     		ldr	r0, [r4]
 175 000a 4369     		ldr	r3, [r0, #20]
 176 000c 13F04003 		ands	r3, r3, #64
 177 0010 01D0     		beq	.L33
 178 0012 0020     		movs	r0, #0
ARM GAS  /tmp/cc5JP12Q.s 			page 4


 179 0014 70BD     		pop	{r4, r5, r6, pc}
 180              	.L33:
 181 0016 4269     		ldr	r2, [r0, #20]
 182 0018 D206     		lsls	r2, r2, #27
 183 001a 0ED5     		bpl	.L30
 184 001c 6FF01002 		mvn	r2, #16
 185 0020 4261     		str	r2, [r0, #20]
 186 0022 2022     		movs	r2, #32
 187 0024 2363     		str	r3, [r4, #48]
 188 0026 84F83D20 		strb	r2, [r4, #61]
 189 002a 84F83E30 		strb	r3, [r4, #62]
 190 002e 226C     		ldr	r2, [r4, #64]
 191              	.L35:
 192 0030 2264     		str	r2, [r4, #64]
 193 0032 84F83C30 		strb	r3, [r4, #60]
 194 0036 0120     		movs	r0, #1
 195 0038 70BD     		pop	{r4, r5, r6, pc}
 196              	.L30:
 197 003a FFF7FEFF 		bl	HAL_GetTick
 198 003e 801B     		subs	r0, r0, r6
 199 0040 A842     		cmp	r0, r5
 200 0042 01D8     		bhi	.L32
 201 0044 002D     		cmp	r5, #0
 202 0046 DFD1     		bne	.L29
 203              	.L32:
 204 0048 0023     		movs	r3, #0
 205 004a 2022     		movs	r2, #32
 206 004c 2363     		str	r3, [r4, #48]
 207 004e 84F83D20 		strb	r2, [r4, #61]
 208 0052 84F83E30 		strb	r3, [r4, #62]
 209 0056 226C     		ldr	r2, [r4, #64]
 210 0058 42F02002 		orr	r2, r2, #32
 211 005c E8E7     		b	.L35
 213              		.section	.text.I2C_WaitOnFlagUntilTimeout,"ax",%progbits
 214              		.align	1
 215              		.syntax unified
 216              		.thumb
 217              		.thumb_func
 218              		.fpu softvfp
 220              	I2C_WaitOnFlagUntilTimeout:
 221              		@ args = 4, pretend = 0, frame = 0
 222              		@ frame_needed = 0, uses_anonymous_args = 0
 223 0000 2DE9F843 		push	{r3, r4, r5, r6, r7, r8, r9, lr}
 224 0004 0446     		mov	r4, r0
 225 0006 9046     		mov	r8, r2
 226 0008 1F46     		mov	r7, r3
 227 000a 089E     		ldr	r6, [sp, #32]
 228 000c C1F30749 		ubfx	r9, r1, #16, #8
 229 0010 8DB2     		uxth	r5, r1
 230              	.L38:
 231 0012 2368     		ldr	r3, [r4]
 232 0014 B9F1010F 		cmp	r9, #1
 233 0018 0CBF     		ite	eq
 234 001a 5B69     		ldreq	r3, [r3, #20]
 235 001c 9B69     		ldrne	r3, [r3, #24]
 236 001e 35EA0303 		bics	r3, r5, r3
 237 0022 0CBF     		ite	eq
ARM GAS  /tmp/cc5JP12Q.s 			page 5


 238 0024 0123     		moveq	r3, #1
 239 0026 0023     		movne	r3, #0
 240 0028 4345     		cmp	r3, r8
 241 002a 02D0     		beq	.L43
 242 002c 0020     		movs	r0, #0
 243 002e BDE8F883 		pop	{r3, r4, r5, r6, r7, r8, r9, pc}
 244              	.L43:
 245 0032 7B1C     		adds	r3, r7, #1
 246 0034 EDD0     		beq	.L38
 247 0036 FFF7FEFF 		bl	HAL_GetTick
 248 003a 801B     		subs	r0, r0, r6
 249 003c 8742     		cmp	r7, r0
 250 003e 01D3     		bcc	.L39
 251 0040 002F     		cmp	r7, #0
 252 0042 E6D1     		bne	.L38
 253              	.L39:
 254 0044 0023     		movs	r3, #0
 255 0046 2022     		movs	r2, #32
 256 0048 2363     		str	r3, [r4, #48]
 257 004a 84F83D20 		strb	r2, [r4, #61]
 258 004e 84F83E30 		strb	r3, [r4, #62]
 259 0052 226C     		ldr	r2, [r4, #64]
 260 0054 84F83C30 		strb	r3, [r4, #60]
 261 0058 42F02002 		orr	r2, r2, #32
 262 005c 2264     		str	r2, [r4, #64]
 263 005e 0120     		movs	r0, #1
 264 0060 BDE8F883 		pop	{r3, r4, r5, r6, r7, r8, r9, pc}
 266              		.section	.text.I2C_WaitOnTXEFlagUntilTimeout,"ax",%progbits
 267              		.align	1
 268              		.syntax unified
 269              		.thumb
 270              		.thumb_func
 271              		.fpu softvfp
 273              	I2C_WaitOnTXEFlagUntilTimeout:
 274              		@ args = 0, pretend = 0, frame = 0
 275              		@ frame_needed = 0, uses_anonymous_args = 0
 276 0000 70B5     		push	{r4, r5, r6, lr}
 277 0002 0446     		mov	r4, r0
 278 0004 0D46     		mov	r5, r1
 279 0006 1646     		mov	r6, r2
 280              	.L51:
 281 0008 2368     		ldr	r3, [r4]
 282 000a 5B69     		ldr	r3, [r3, #20]
 283 000c 1B06     		lsls	r3, r3, #24
 284 000e 01D5     		bpl	.L53
 285 0010 0020     		movs	r0, #0
 286 0012 70BD     		pop	{r4, r5, r6, pc}
 287              	.L53:
 288 0014 2046     		mov	r0, r4
 289 0016 FFF7FEFF 		bl	I2C_IsAcknowledgeFailed
 290 001a A8B9     		cbnz	r0, .L54
 291 001c 6A1C     		adds	r2, r5, #1
 292 001e F3D0     		beq	.L51
 293 0020 FFF7FEFF 		bl	HAL_GetTick
 294 0024 801B     		subs	r0, r0, r6
 295 0026 8542     		cmp	r5, r0
 296 0028 01D3     		bcc	.L52
ARM GAS  /tmp/cc5JP12Q.s 			page 6


 297 002a 002D     		cmp	r5, #0
 298 002c ECD1     		bne	.L51
 299              	.L52:
 300 002e 0023     		movs	r3, #0
 301 0030 2022     		movs	r2, #32
 302 0032 2363     		str	r3, [r4, #48]
 303 0034 84F83D20 		strb	r2, [r4, #61]
 304 0038 84F83E30 		strb	r3, [r4, #62]
 305 003c 226C     		ldr	r2, [r4, #64]
 306 003e 84F83C30 		strb	r3, [r4, #60]
 307 0042 42F02002 		orr	r2, r2, #32
 308 0046 2264     		str	r2, [r4, #64]
 309              	.L54:
 310 0048 0120     		movs	r0, #1
 311 004a 70BD     		pop	{r4, r5, r6, pc}
 313              		.section	.text.I2C_RequestMemoryWrite,"ax",%progbits
 314              		.align	1
 315              		.syntax unified
 316              		.thumb
 317              		.thumb_func
 318              		.fpu softvfp
 320              	I2C_RequestMemoryWrite:
 321              		@ args = 8, pretend = 0, frame = 8
 322              		@ frame_needed = 0, uses_anonymous_args = 0
 323 0000 2DE9FF41 		push	{r0, r1, r2, r3, r4, r5, r6, r7, r8, lr}
 324 0004 1546     		mov	r5, r2
 325 0006 0268     		ldr	r2, [r0]
 326 0008 9846     		mov	r8, r3
 327 000a 1368     		ldr	r3, [r2]
 328 000c 0B9E     		ldr	r6, [sp, #44]
 329 000e 43F48073 		orr	r3, r3, #256
 330 0012 1360     		str	r3, [r2]
 331 0014 0F46     		mov	r7, r1
 332 0016 0096     		str	r6, [sp]
 333 0018 0A9B     		ldr	r3, [sp, #40]
 334 001a 0022     		movs	r2, #0
 335 001c 4FF00111 		mov	r1, #65537
 336 0020 0446     		mov	r4, r0
 337 0022 FFF7FEFF 		bl	I2C_WaitOnFlagUntilTimeout
 338 0026 18B1     		cbz	r0, .L59
 339              	.L66:
 340 0028 0120     		movs	r0, #1
 341              	.L60:
 342 002a 04B0     		add	sp, sp, #16
 343              		@ sp needed
 344 002c BDE8F081 		pop	{r4, r5, r6, r7, r8, pc}
 345              	.L59:
 346 0030 2368     		ldr	r3, [r4]
 347 0032 07F0FE07 		and	r7, r7, #254
 348 0036 1F61     		str	r7, [r3, #16]
 349 0038 0A9A     		ldr	r2, [sp, #40]
 350 003a 3346     		mov	r3, r6
 351 003c 1649     		ldr	r1, .L70
 352 003e 2046     		mov	r0, r4
 353 0040 FFF7FEFF 		bl	I2C_WaitOnMasterAddressFlagUntilTimeout
 354 0044 0028     		cmp	r0, #0
 355 0046 EFD1     		bne	.L66
ARM GAS  /tmp/cc5JP12Q.s 			page 7


 356 0048 2368     		ldr	r3, [r4]
 357 004a 0390     		str	r0, [sp, #12]
 358 004c 5A69     		ldr	r2, [r3, #20]
 359 004e 0A99     		ldr	r1, [sp, #40]
 360 0050 0392     		str	r2, [sp, #12]
 361 0052 9B69     		ldr	r3, [r3, #24]
 362 0054 3246     		mov	r2, r6
 363 0056 0393     		str	r3, [sp, #12]
 364 0058 2046     		mov	r0, r4
 365 005a 039B     		ldr	r3, [sp, #12]
 366 005c FFF7FEFF 		bl	I2C_WaitOnTXEFlagUntilTimeout
 367 0060 40B1     		cbz	r0, .L62
 368              	.L69:
 369 0062 236C     		ldr	r3, [r4, #64]
 370 0064 042B     		cmp	r3, #4
 371 0066 01BF     		itttt	eq
 372 0068 2268     		ldreq	r2, [r4]
 373 006a 1368     		ldreq	r3, [r2]
 374 006c 43F40073 		orreq	r3, r3, #512
 375 0070 1360     		streq	r3, [r2]
 376 0072 D9E7     		b	.L66
 377              	.L62:
 378 0074 B8F1010F 		cmp	r8, #1
 379 0078 2368     		ldr	r3, [r4]
 380 007a 02D1     		bne	.L63
 381              	.L67:
 382 007c EDB2     		uxtb	r5, r5
 383 007e 1D61     		str	r5, [r3, #16]
 384 0080 D3E7     		b	.L60
 385              	.L63:
 386 0082 2A0A     		lsrs	r2, r5, #8
 387 0084 1A61     		str	r2, [r3, #16]
 388 0086 0A99     		ldr	r1, [sp, #40]
 389 0088 3246     		mov	r2, r6
 390 008a 2046     		mov	r0, r4
 391 008c FFF7FEFF 		bl	I2C_WaitOnTXEFlagUntilTimeout
 392 0090 0028     		cmp	r0, #0
 393 0092 E6D1     		bne	.L69
 394 0094 2368     		ldr	r3, [r4]
 395 0096 F1E7     		b	.L67
 396              	.L71:
 397              		.align	2
 398              	.L70:
 399 0098 02000100 		.word	65538
 401              		.section	.text.I2C_RequestMemoryRead,"ax",%progbits
 402              		.align	1
 403              		.syntax unified
 404              		.thumb
 405              		.thumb_func
 406              		.fpu softvfp
 408              	I2C_RequestMemoryRead:
 409              		@ args = 8, pretend = 0, frame = 8
 410              		@ frame_needed = 0, uses_anonymous_args = 0
 411 0000 2DE9FF41 		push	{r0, r1, r2, r3, r4, r5, r6, r7, r8, lr}
 412 0004 9846     		mov	r8, r3
 413 0006 0368     		ldr	r3, [r0]
 414 0008 1646     		mov	r6, r2
ARM GAS  /tmp/cc5JP12Q.s 			page 8


 415 000a 1A68     		ldr	r2, [r3]
 416 000c 0B9D     		ldr	r5, [sp, #44]
 417 000e 42F48062 		orr	r2, r2, #1024
 418 0012 1A60     		str	r2, [r3]
 419 0014 1A68     		ldr	r2, [r3]
 420 0016 0F46     		mov	r7, r1
 421 0018 42F48072 		orr	r2, r2, #256
 422 001c 1A60     		str	r2, [r3]
 423 001e 4FF00111 		mov	r1, #65537
 424 0022 0095     		str	r5, [sp]
 425 0024 0A9B     		ldr	r3, [sp, #40]
 426 0026 0022     		movs	r2, #0
 427 0028 0446     		mov	r4, r0
 428 002a FFF7FEFF 		bl	I2C_WaitOnFlagUntilTimeout
 429 002e 18B1     		cbz	r0, .L73
 430              	.L84:
 431 0030 0120     		movs	r0, #1
 432              	.L74:
 433 0032 04B0     		add	sp, sp, #16
 434              		@ sp needed
 435 0034 BDE8F081 		pop	{r4, r5, r6, r7, r8, pc}
 436              	.L73:
 437 0038 2368     		ldr	r3, [r4]
 438 003a FFB2     		uxtb	r7, r7
 439 003c 07F0FE02 		and	r2, r7, #254
 440 0040 1A61     		str	r2, [r3, #16]
 441 0042 2949     		ldr	r1, .L88
 442 0044 2B46     		mov	r3, r5
 443 0046 0A9A     		ldr	r2, [sp, #40]
 444 0048 2046     		mov	r0, r4
 445 004a FFF7FEFF 		bl	I2C_WaitOnMasterAddressFlagUntilTimeout
 446 004e 0028     		cmp	r0, #0
 447 0050 EED1     		bne	.L84
 448 0052 2368     		ldr	r3, [r4]
 449 0054 0390     		str	r0, [sp, #12]
 450 0056 5A69     		ldr	r2, [r3, #20]
 451 0058 0A99     		ldr	r1, [sp, #40]
 452 005a 0392     		str	r2, [sp, #12]
 453 005c 9B69     		ldr	r3, [r3, #24]
 454 005e 2A46     		mov	r2, r5
 455 0060 0393     		str	r3, [sp, #12]
 456 0062 2046     		mov	r0, r4
 457 0064 039B     		ldr	r3, [sp, #12]
 458 0066 FFF7FEFF 		bl	I2C_WaitOnTXEFlagUntilTimeout
 459 006a 40B1     		cbz	r0, .L76
 460              	.L86:
 461 006c 236C     		ldr	r3, [r4, #64]
 462 006e 042B     		cmp	r3, #4
 463 0070 01BF     		itttt	eq
 464 0072 2268     		ldreq	r2, [r4]
 465 0074 1368     		ldreq	r3, [r2]
 466 0076 43F40073 		orreq	r3, r3, #512
 467 007a 1360     		streq	r3, [r2]
 468 007c D8E7     		b	.L84
 469              	.L76:
 470 007e B8F1010F 		cmp	r8, #1
 471 0082 2368     		ldr	r3, [r4]
ARM GAS  /tmp/cc5JP12Q.s 			page 9


 472 0084 25D1     		bne	.L77
 473              	.L81:
 474 0086 F6B2     		uxtb	r6, r6
 475 0088 1E61     		str	r6, [r3, #16]
 476 008a 2A46     		mov	r2, r5
 477 008c 0A99     		ldr	r1, [sp, #40]
 478 008e 2046     		mov	r0, r4
 479 0090 FFF7FEFF 		bl	I2C_WaitOnTXEFlagUntilTimeout
 480 0094 0246     		mov	r2, r0
 481 0096 0028     		cmp	r0, #0
 482 0098 E8D1     		bne	.L86
 483 009a 2168     		ldr	r1, [r4]
 484 009c 2046     		mov	r0, r4
 485 009e 0B68     		ldr	r3, [r1]
 486 00a0 43F48073 		orr	r3, r3, #256
 487 00a4 0B60     		str	r3, [r1]
 488 00a6 0095     		str	r5, [sp]
 489 00a8 0A9B     		ldr	r3, [sp, #40]
 490 00aa 4FF00111 		mov	r1, #65537
 491 00ae FFF7FEFF 		bl	I2C_WaitOnFlagUntilTimeout
 492 00b2 0028     		cmp	r0, #0
 493 00b4 BCD1     		bne	.L84
 494 00b6 2368     		ldr	r3, [r4]
 495 00b8 47F00107 		orr	r7, r7, #1
 496 00bc 1F61     		str	r7, [r3, #16]
 497 00be 0A9A     		ldr	r2, [sp, #40]
 498 00c0 2B46     		mov	r3, r5
 499 00c2 0949     		ldr	r1, .L88
 500 00c4 2046     		mov	r0, r4
 501 00c6 FFF7FEFF 		bl	I2C_WaitOnMasterAddressFlagUntilTimeout
 502 00ca 0030     		adds	r0, r0, #0
 503 00cc 18BF     		it	ne
 504 00ce 0120     		movne	r0, #1
 505 00d0 AFE7     		b	.L74
 506              	.L77:
 507 00d2 320A     		lsrs	r2, r6, #8
 508 00d4 1A61     		str	r2, [r3, #16]
 509 00d6 0A99     		ldr	r1, [sp, #40]
 510 00d8 2A46     		mov	r2, r5
 511 00da 2046     		mov	r0, r4
 512 00dc FFF7FEFF 		bl	I2C_WaitOnTXEFlagUntilTimeout
 513 00e0 0028     		cmp	r0, #0
 514 00e2 C3D1     		bne	.L86
 515 00e4 2368     		ldr	r3, [r4]
 516 00e6 CEE7     		b	.L81
 517              	.L89:
 518              		.align	2
 519              	.L88:
 520 00e8 02000100 		.word	65538
 522              		.section	.text.HAL_I2C_MspInit,"ax",%progbits
 523              		.align	1
 524              		.weak	HAL_I2C_MspInit
 525              		.syntax unified
 526              		.thumb
 527              		.thumb_func
 528              		.fpu softvfp
 530              	HAL_I2C_MspInit:
ARM GAS  /tmp/cc5JP12Q.s 			page 10


 531              		@ args = 0, pretend = 0, frame = 0
 532              		@ frame_needed = 0, uses_anonymous_args = 0
 533              		@ link register save eliminated.
 534 0000 7047     		bx	lr
 536              		.section	.text.HAL_I2C_Init,"ax",%progbits
 537              		.align	1
 538              		.global	HAL_I2C_Init
 539              		.syntax unified
 540              		.thumb
 541              		.thumb_func
 542              		.fpu softvfp
 544              	HAL_I2C_Init:
 545              		@ args = 0, pretend = 0, frame = 0
 546              		@ frame_needed = 0, uses_anonymous_args = 0
 547 0000 70B5     		push	{r4, r5, r6, lr}
 548 0002 0446     		mov	r4, r0
 549 0004 08B9     		cbnz	r0, .L92
 550              	.L96:
 551 0006 0120     		movs	r0, #1
 552 0008 70BD     		pop	{r4, r5, r6, pc}
 553              	.L92:
 554 000a 90F83D30 		ldrb	r3, [r0, #61]	@ zero_extendqisi2
 555 000e 03F0FF02 		and	r2, r3, #255
 556 0012 1BB9     		cbnz	r3, .L94
 557 0014 80F83C20 		strb	r2, [r0, #60]
 558 0018 FFF7FEFF 		bl	HAL_I2C_MspInit
 559              	.L94:
 560 001c 2423     		movs	r3, #36
 561 001e 2268     		ldr	r2, [r4]
 562 0020 84F83D30 		strb	r3, [r4, #61]
 563 0024 1368     		ldr	r3, [r2]
 564 0026 23F00103 		bic	r3, r3, #1
 565 002a 1360     		str	r3, [r2]
 566 002c FFF7FEFF 		bl	HAL_RCC_GetPCLK1Freq
 567 0030 6568     		ldr	r5, [r4, #4]
 568 0032 414B     		ldr	r3, .L113
 569 0034 9D42     		cmp	r5, r3
 570 0036 4DD8     		bhi	.L95
 571 0038 404B     		ldr	r3, .L113+4
 572 003a 9842     		cmp	r0, r3
 573 003c E3D9     		bls	.L96
 574 003e 4049     		ldr	r1, .L113+8
 575 0040 2268     		ldr	r2, [r4]
 576 0042 B0FBF1F1 		udiv	r1, r0, r1
 577 0046 5368     		ldr	r3, [r2, #4]
 578 0048 23F03F03 		bic	r3, r3, #63
 579 004c 0B43     		orrs	r3, r3, r1
 580 004e 5360     		str	r3, [r2, #4]
 581 0050 136A     		ldr	r3, [r2, #32]
 582 0052 23F03F03 		bic	r3, r3, #63
 583              	.L112:
 584 0056 0131     		adds	r1, r1, #1
 585 0058 1943     		orrs	r1, r1, r3
 586 005a 1162     		str	r1, [r2, #32]
 587 005c D169     		ldr	r1, [r2, #28]
 588 005e 364B     		ldr	r3, .L113
 589 0060 21F44F41 		bic	r1, r1, #52992
ARM GAS  /tmp/cc5JP12Q.s 			page 11


 590 0064 9D42     		cmp	r5, r3
 591 0066 21F0FF01 		bic	r1, r1, #255
 592 006a 00F1FF30 		add	r0, r0, #-1
 593 006e 48D8     		bhi	.L99
 594 0070 6D00     		lsls	r5, r5, #1
 595 0072 B0FBF5F0 		udiv	r0, r0, r5
 596 0076 0130     		adds	r0, r0, #1
 597 0078 C0F30B03 		ubfx	r3, r0, #0, #12
 598 007c 042B     		cmp	r3, #4
 599 007e 38BF     		it	cc
 600 0080 0423     		movcc	r3, #4
 601              	.L100:
 602 0082 0B43     		orrs	r3, r3, r1
 603 0084 D361     		str	r3, [r2, #28]
 604 0086 1168     		ldr	r1, [r2]
 605 0088 206A     		ldr	r0, [r4, #32]
 606 008a E369     		ldr	r3, [r4, #28]
 607 008c 21F0C001 		bic	r1, r1, #192
 608 0090 0343     		orrs	r3, r3, r0
 609 0092 0B43     		orrs	r3, r3, r1
 610 0094 1360     		str	r3, [r2]
 611 0096 9168     		ldr	r1, [r2, #8]
 612 0098 E068     		ldr	r0, [r4, #12]
 613 009a 2369     		ldr	r3, [r4, #16]
 614 009c 21F40341 		bic	r1, r1, #33536
 615 00a0 0343     		orrs	r3, r3, r0
 616 00a2 21F0FF01 		bic	r1, r1, #255
 617 00a6 0B43     		orrs	r3, r3, r1
 618 00a8 9360     		str	r3, [r2, #8]
 619 00aa D168     		ldr	r1, [r2, #12]
 620 00ac A069     		ldr	r0, [r4, #24]
 621 00ae 6369     		ldr	r3, [r4, #20]
 622 00b0 21F0FF01 		bic	r1, r1, #255
 623 00b4 0343     		orrs	r3, r3, r0
 624 00b6 0B43     		orrs	r3, r3, r1
 625 00b8 D360     		str	r3, [r2, #12]
 626 00ba 1368     		ldr	r3, [r2]
 627 00bc 0020     		movs	r0, #0
 628 00be 43F00103 		orr	r3, r3, #1
 629 00c2 1360     		str	r3, [r2]
 630 00c4 2023     		movs	r3, #32
 631 00c6 2064     		str	r0, [r4, #64]
 632 00c8 84F83D30 		strb	r3, [r4, #61]
 633 00cc 2063     		str	r0, [r4, #48]
 634 00ce 84F83E00 		strb	r0, [r4, #62]
 635 00d2 70BD     		pop	{r4, r5, r6, pc}
 636              	.L95:
 637 00d4 1B4B     		ldr	r3, .L113+12
 638 00d6 9842     		cmp	r0, r3
 639 00d8 95D9     		bls	.L96
 640 00da 194E     		ldr	r6, .L113+8
 641 00dc 4FF49671 		mov	r1, #300
 642 00e0 B0FBF6F6 		udiv	r6, r0, r6
 643 00e4 2268     		ldr	r2, [r4]
 644 00e6 7143     		muls	r1, r6, r1
 645 00e8 5368     		ldr	r3, [r2, #4]
 646 00ea 23F03F03 		bic	r3, r3, #63
ARM GAS  /tmp/cc5JP12Q.s 			page 12


 647 00ee 3343     		orrs	r3, r3, r6
 648 00f0 4FF47A76 		mov	r6, #1000
 649 00f4 5360     		str	r3, [r2, #4]
 650 00f6 136A     		ldr	r3, [r2, #32]
 651 00f8 B1FBF6F1 		udiv	r1, r1, r6
 652 00fc 23F03F03 		bic	r3, r3, #63
 653 0100 A9E7     		b	.L112
 654              	.L99:
 655 0102 A368     		ldr	r3, [r4, #8]
 656 0104 53B9     		cbnz	r3, .L101
 657 0106 05EB4503 		add	r3, r5, r5, lsl #1
 658 010a B0FBF3F0 		udiv	r0, r0, r3
 659 010e 431C     		adds	r3, r0, #1
 660 0110 C3F30B03 		ubfx	r3, r3, #0, #12
 661 0114 6BB1     		cbz	r3, .L106
 662 0116 43F40043 		orr	r3, r3, #32768
 663 011a B2E7     		b	.L100
 664              	.L101:
 665 011c 1923     		movs	r3, #25
 666 011e 6B43     		muls	r3, r5, r3
 667 0120 B0FBF3F0 		udiv	r0, r0, r3
 668 0124 431C     		adds	r3, r0, #1
 669 0126 C3F30B03 		ubfx	r3, r3, #0, #12
 670 012a 13B1     		cbz	r3, .L106
 671 012c 43F44043 		orr	r3, r3, #49152
 672 0130 A7E7     		b	.L100
 673              	.L106:
 674 0132 0123     		movs	r3, #1
 675 0134 A5E7     		b	.L100
 676              	.L114:
 677 0136 00BF     		.align	2
 678              	.L113:
 679 0138 A0860100 		.word	100000
 680 013c 7F841E00 		.word	1999999
 681 0140 40420F00 		.word	1000000
 682 0144 FF083D00 		.word	3999999
 684              		.section	.text.HAL_I2C_MspDeInit,"ax",%progbits
 685              		.align	1
 686              		.weak	HAL_I2C_MspDeInit
 687              		.syntax unified
 688              		.thumb
 689              		.thumb_func
 690              		.fpu softvfp
 692              	HAL_I2C_MspDeInit:
 693              		@ args = 0, pretend = 0, frame = 0
 694              		@ frame_needed = 0, uses_anonymous_args = 0
 695              		@ link register save eliminated.
 696 0000 7047     		bx	lr
 698              		.section	.text.HAL_I2C_DeInit,"ax",%progbits
 699              		.align	1
 700              		.global	HAL_I2C_DeInit
 701              		.syntax unified
 702              		.thumb
 703              		.thumb_func
 704              		.fpu softvfp
 706              	HAL_I2C_DeInit:
 707              		@ args = 0, pretend = 0, frame = 0
ARM GAS  /tmp/cc5JP12Q.s 			page 13


 708              		@ frame_needed = 0, uses_anonymous_args = 0
 709 0000 10B5     		push	{r4, lr}
 710 0002 0446     		mov	r4, r0
 711 0004 98B1     		cbz	r0, .L118
 712 0006 2423     		movs	r3, #36
 713 0008 0268     		ldr	r2, [r0]
 714 000a 80F83D30 		strb	r3, [r0, #61]
 715 000e 1368     		ldr	r3, [r2]
 716 0010 23F00103 		bic	r3, r3, #1
 717 0014 1360     		str	r3, [r2]
 718 0016 FFF7FEFF 		bl	HAL_I2C_MspDeInit
 719 001a 0020     		movs	r0, #0
 720 001c 2064     		str	r0, [r4, #64]
 721 001e 84F83C00 		strb	r0, [r4, #60]
 722 0022 84F83D00 		strb	r0, [r4, #61]
 723 0026 2063     		str	r0, [r4, #48]
 724 0028 84F83E00 		strb	r0, [r4, #62]
 725 002c 10BD     		pop	{r4, pc}
 726              	.L118:
 727 002e 0120     		movs	r0, #1
 728 0030 10BD     		pop	{r4, pc}
 730              		.section	.text.HAL_I2C_Master_Transmit,"ax",%progbits
 731              		.align	1
 732              		.global	HAL_I2C_Master_Transmit
 733              		.syntax unified
 734              		.thumb
 735              		.thumb_func
 736              		.fpu softvfp
 738              	HAL_I2C_Master_Transmit:
 739              		@ args = 4, pretend = 0, frame = 8
 740              		@ frame_needed = 0, uses_anonymous_args = 0
 741 0000 2DE9FF41 		push	{r0, r1, r2, r3, r4, r5, r6, r7, r8, lr}
 742 0004 0446     		mov	r4, r0
 743 0006 1F46     		mov	r7, r3
 744 0008 0D46     		mov	r5, r1
 745 000a 9046     		mov	r8, r2
 746 000c FFF7FEFF 		bl	HAL_GetTick
 747 0010 94F83D30 		ldrb	r3, [r4, #61]	@ zero_extendqisi2
 748 0014 0646     		mov	r6, r0
 749 0016 202B     		cmp	r3, #32
 750 0018 04D0     		beq	.L120
 751              	.L122:
 752 001a 0225     		movs	r5, #2
 753              	.L153:
 754 001c 2846     		mov	r0, r5
 755 001e 04B0     		add	sp, sp, #16
 756              		@ sp needed
 757 0020 BDE8F081 		pop	{r4, r5, r6, r7, r8, pc}
 758              	.L120:
 759 0024 0090     		str	r0, [sp]
 760 0026 1923     		movs	r3, #25
 761 0028 0122     		movs	r2, #1
 762 002a 5849     		ldr	r1, .L160
 763 002c 2046     		mov	r0, r4
 764 002e FFF7FEFF 		bl	I2C_WaitOnFlagUntilTimeout
 765 0032 0028     		cmp	r0, #0
 766 0034 F1D1     		bne	.L122
ARM GAS  /tmp/cc5JP12Q.s 			page 14


 767 0036 94F83C30 		ldrb	r3, [r4, #60]	@ zero_extendqisi2
 768 003a 012B     		cmp	r3, #1
 769 003c EDD0     		beq	.L122
 770 003e 0123     		movs	r3, #1
 771 0040 84F83C30 		strb	r3, [r4, #60]
 772 0044 2368     		ldr	r3, [r4]
 773 0046 1A68     		ldr	r2, [r3]
 774 0048 D207     		lsls	r2, r2, #31
 775 004a 5EBF     		ittt	pl
 776 004c 1A68     		ldrpl	r2, [r3]
 777 004e 42F00102 		orrpl	r2, r2, #1
 778 0052 1A60     		strpl	r2, [r3]
 779 0054 1A68     		ldr	r2, [r3]
 780 0056 22F40062 		bic	r2, r2, #2048
 781 005a 1A60     		str	r2, [r3]
 782 005c 2122     		movs	r2, #33
 783 005e 84F83D20 		strb	r2, [r4, #61]
 784 0062 1022     		movs	r2, #16
 785 0064 84F83E20 		strb	r2, [r4, #62]
 786 0068 0022     		movs	r2, #0
 787 006a 2264     		str	r2, [r4, #64]
 788 006c 6785     		strh	r7, [r4, #42]	@ movhi
 789 006e 628D     		ldrh	r2, [r4, #42]
 790 0070 C4F82480 		str	r8, [r4, #36]
 791 0074 2285     		strh	r2, [r4, #40]	@ movhi
 792 0076 464A     		ldr	r2, .L160+4
 793 0078 E262     		str	r2, [r4, #44]
 794 007a E26A     		ldr	r2, [r4, #44]
 795 007c 082A     		cmp	r2, #8
 796 007e 04D0     		beq	.L155
 797 0080 012A     		cmp	r2, #1
 798 0082 02D0     		beq	.L155
 799 0084 12F5803F 		cmn	r2, #65536
 800 0088 04D1     		bne	.L125
 801              	.L155:
 802 008a 1A68     		ldr	r2, [r3]
 803 008c 42F48072 		orr	r2, r2, #256
 804 0090 1A60     		str	r2, [r3]
 805 0092 02E0     		b	.L126
 806              	.L125:
 807 0094 226B     		ldr	r2, [r4, #48]
 808 0096 122A     		cmp	r2, #18
 809 0098 F7D0     		beq	.L155
 810              	.L126:
 811 009a 0096     		str	r6, [sp]
 812 009c 0A9B     		ldr	r3, [sp, #40]
 813 009e 0022     		movs	r2, #0
 814 00a0 4FF00111 		mov	r1, #65537
 815 00a4 2046     		mov	r0, r4
 816 00a6 FFF7FEFF 		bl	I2C_WaitOnFlagUntilTimeout
 817 00aa 08B1     		cbz	r0, .L127
 818              	.L157:
 819 00ac 0125     		movs	r5, #1
 820 00ae B5E7     		b	.L153
 821              	.L127:
 822 00b0 2369     		ldr	r3, [r4, #16]
 823 00b2 2268     		ldr	r2, [r4]
ARM GAS  /tmp/cc5JP12Q.s 			page 15


 824 00b4 B3F5804F 		cmp	r3, #16384
 825 00b8 13D1     		bne	.L128
 826 00ba 05F0FE05 		and	r5, r5, #254
 827 00be 1561     		str	r5, [r2, #16]
 828              	.L129:
 829 00c0 3346     		mov	r3, r6
 830 00c2 0A9A     		ldr	r2, [sp, #40]
 831 00c4 3349     		ldr	r1, .L160+8
 832 00c6 2046     		mov	r0, r4
 833 00c8 FFF7FEFF 		bl	I2C_WaitOnMasterAddressFlagUntilTimeout
 834 00cc 0546     		mov	r5, r0
 835 00ce 0028     		cmp	r0, #0
 836 00d0 ECD1     		bne	.L157
 837 00d2 2368     		ldr	r3, [r4]
 838 00d4 0390     		str	r0, [sp, #12]
 839 00d6 5A69     		ldr	r2, [r3, #20]
 840 00d8 0392     		str	r2, [sp, #12]
 841 00da 9B69     		ldr	r3, [r3, #24]
 842 00dc 0393     		str	r3, [sp, #12]
 843 00de 039B     		ldr	r3, [sp, #12]
 844 00e0 44E0     		b	.L134
 845              	.L128:
 846 00e2 EB11     		asrs	r3, r5, #7
 847 00e4 03F00603 		and	r3, r3, #6
 848 00e8 43F0F003 		orr	r3, r3, #240
 849 00ec 1361     		str	r3, [r2, #16]
 850 00ee 2A49     		ldr	r1, .L160+12
 851 00f0 3346     		mov	r3, r6
 852 00f2 0A9A     		ldr	r2, [sp, #40]
 853 00f4 2046     		mov	r0, r4
 854 00f6 FFF7FEFF 		bl	I2C_WaitOnMasterAddressFlagUntilTimeout
 855 00fa 0028     		cmp	r0, #0
 856 00fc D6D1     		bne	.L157
 857 00fe 2368     		ldr	r3, [r4]
 858 0100 EDB2     		uxtb	r5, r5
 859 0102 1D61     		str	r5, [r3, #16]
 860 0104 DCE7     		b	.L129
 861              	.L135:
 862 0106 3246     		mov	r2, r6
 863 0108 0A99     		ldr	r1, [sp, #40]
 864 010a 2046     		mov	r0, r4
 865 010c FFF7FEFF 		bl	I2C_WaitOnTXEFlagUntilTimeout
 866 0110 40B1     		cbz	r0, .L132
 867              	.L159:
 868 0112 236C     		ldr	r3, [r4, #64]
 869 0114 042B     		cmp	r3, #4
 870 0116 01BF     		itttt	eq
 871 0118 2268     		ldreq	r2, [r4]
 872 011a 1368     		ldreq	r3, [r2]
 873 011c 43F40073 		orreq	r3, r3, #512
 874 0120 1360     		streq	r3, [r2]
 875 0122 C3E7     		b	.L157
 876              	.L132:
 877 0124 636A     		ldr	r3, [r4, #36]
 878 0126 2068     		ldr	r0, [r4]
 879 0128 1A46     		mov	r2, r3
 880 012a 12F8011B 		ldrb	r1, [r2], #1	@ zero_extendqisi2
ARM GAS  /tmp/cc5JP12Q.s 			page 16


 881 012e 0161     		str	r1, [r0, #16]
 882 0130 6262     		str	r2, [r4, #36]
 883 0132 628D     		ldrh	r2, [r4, #42]
 884 0134 013A     		subs	r2, r2, #1
 885 0136 92B2     		uxth	r2, r2
 886 0138 6285     		strh	r2, [r4, #42]	@ movhi
 887 013a 228D     		ldrh	r2, [r4, #40]
 888 013c 4769     		ldr	r7, [r0, #20]
 889 013e 511E     		subs	r1, r2, #1
 890 0140 89B2     		uxth	r1, r1
 891 0142 7F07     		lsls	r7, r7, #29
 892 0144 2185     		strh	r1, [r4, #40]	@ movhi
 893 0146 0AD5     		bpl	.L133
 894 0148 49B1     		cbz	r1, .L133
 895 014a 5978     		ldrb	r1, [r3, #1]	@ zero_extendqisi2
 896 014c 0233     		adds	r3, r3, #2
 897 014e 0161     		str	r1, [r0, #16]
 898 0150 6362     		str	r3, [r4, #36]
 899 0152 638D     		ldrh	r3, [r4, #42]
 900 0154 023A     		subs	r2, r2, #2
 901 0156 013B     		subs	r3, r3, #1
 902 0158 9BB2     		uxth	r3, r3
 903 015a 6385     		strh	r3, [r4, #42]	@ movhi
 904 015c 2285     		strh	r2, [r4, #40]	@ movhi
 905              	.L133:
 906 015e 3246     		mov	r2, r6
 907 0160 0A99     		ldr	r1, [sp, #40]
 908 0162 2046     		mov	r0, r4
 909 0164 FFF7FEFF 		bl	I2C_WaitOnBTFFlagUntilTimeout
 910 0168 0028     		cmp	r0, #0
 911 016a D2D1     		bne	.L159
 912              	.L134:
 913 016c 238D     		ldrh	r3, [r4, #40]
 914 016e 002B     		cmp	r3, #0
 915 0170 C9D1     		bne	.L135
 916 0172 2168     		ldr	r1, [r4]
 917 0174 0A68     		ldr	r2, [r1]
 918 0176 42F40072 		orr	r2, r2, #512
 919 017a 0A60     		str	r2, [r1]
 920 017c 2022     		movs	r2, #32
 921 017e 84F83C30 		strb	r3, [r4, #60]
 922 0182 84F83D20 		strb	r2, [r4, #61]
 923 0186 84F83E30 		strb	r3, [r4, #62]
 924 018a 47E7     		b	.L153
 925              	.L161:
 926              		.align	2
 927              	.L160:
 928 018c 02001000 		.word	1048578
 929 0190 0000FFFF 		.word	-65536
 930 0194 02000100 		.word	65538
 931 0198 08000100 		.word	65544
 933              		.section	.text.HAL_I2C_Master_Receive,"ax",%progbits
 934              		.align	1
 935              		.global	HAL_I2C_Master_Receive
 936              		.syntax unified
 937              		.thumb
 938              		.thumb_func
ARM GAS  /tmp/cc5JP12Q.s 			page 17


 939              		.fpu softvfp
 941              	HAL_I2C_Master_Receive:
 942              		@ args = 4, pretend = 0, frame = 24
 943              		@ frame_needed = 0, uses_anonymous_args = 0
 944 0000 2DE9F043 		push	{r4, r5, r6, r7, r8, r9, lr}
 945 0004 0446     		mov	r4, r0
 946 0006 89B0     		sub	sp, sp, #36
 947 0008 9846     		mov	r8, r3
 948 000a 0F46     		mov	r7, r1
 949 000c 9146     		mov	r9, r2
 950 000e 109E     		ldr	r6, [sp, #64]
 951 0010 FFF7FEFF 		bl	HAL_GetTick
 952 0014 94F83D30 		ldrb	r3, [r4, #61]	@ zero_extendqisi2
 953 0018 0546     		mov	r5, r0
 954 001a 202B     		cmp	r3, #32
 955 001c 04D0     		beq	.L163
 956              	.L165:
 957 001e 0227     		movs	r7, #2
 958              	.L199:
 959 0020 3846     		mov	r0, r7
 960 0022 09B0     		add	sp, sp, #36
 961              		@ sp needed
 962 0024 BDE8F083 		pop	{r4, r5, r6, r7, r8, r9, pc}
 963              	.L163:
 964 0028 0090     		str	r0, [sp]
 965 002a 1923     		movs	r3, #25
 966 002c 0122     		movs	r2, #1
 967 002e 9C49     		ldr	r1, .L207
 968 0030 2046     		mov	r0, r4
 969 0032 FFF7FEFF 		bl	I2C_WaitOnFlagUntilTimeout
 970 0036 0028     		cmp	r0, #0
 971 0038 F1D1     		bne	.L165
 972 003a 94F83C30 		ldrb	r3, [r4, #60]	@ zero_extendqisi2
 973 003e 012B     		cmp	r3, #1
 974 0040 EDD0     		beq	.L165
 975 0042 0123     		movs	r3, #1
 976 0044 84F83C30 		strb	r3, [r4, #60]
 977 0048 2368     		ldr	r3, [r4]
 978 004a 1A68     		ldr	r2, [r3]
 979 004c D007     		lsls	r0, r2, #31
 980 004e 5EBF     		ittt	pl
 981 0050 1A68     		ldrpl	r2, [r3]
 982 0052 42F00102 		orrpl	r2, r2, #1
 983 0056 1A60     		strpl	r2, [r3]
 984 0058 1A68     		ldr	r2, [r3]
 985 005a 22F40062 		bic	r2, r2, #2048
 986 005e 1A60     		str	r2, [r3]
 987 0060 2222     		movs	r2, #34
 988 0062 84F83D20 		strb	r2, [r4, #61]
 989 0066 1022     		movs	r2, #16
 990 0068 84F83E20 		strb	r2, [r4, #62]
 991 006c 0022     		movs	r2, #0
 992 006e 2264     		str	r2, [r4, #64]
 993 0070 A4F82A80 		strh	r8, [r4, #42]	@ movhi
 994 0074 628D     		ldrh	r2, [r4, #42]
 995 0076 C4F82490 		str	r9, [r4, #36]
 996 007a 2285     		strh	r2, [r4, #40]	@ movhi
ARM GAS  /tmp/cc5JP12Q.s 			page 18


 997 007c 894A     		ldr	r2, .L207+4
 998 007e E262     		str	r2, [r4, #44]
 999 0080 E26A     		ldr	r2, [r4, #44]
 1000 0082 1968     		ldr	r1, [r3]
 1001 0084 082A     		cmp	r2, #8
 1002 0086 41F48061 		orr	r1, r1, #1024
 1003 008a 1960     		str	r1, [r3]
 1004 008c 04D0     		beq	.L202
 1005 008e 012A     		cmp	r2, #1
 1006 0090 02D0     		beq	.L202
 1007 0092 12F5803F 		cmn	r2, #65536
 1008 0096 04D1     		bne	.L168
 1009              	.L202:
 1010 0098 1A68     		ldr	r2, [r3]
 1011 009a 42F48072 		orr	r2, r2, #256
 1012 009e 1A60     		str	r2, [r3]
 1013 00a0 02E0     		b	.L169
 1014              	.L168:
 1015 00a2 226B     		ldr	r2, [r4, #48]
 1016 00a4 112A     		cmp	r2, #17
 1017 00a6 F7D0     		beq	.L202
 1018              	.L169:
 1019 00a8 0095     		str	r5, [sp]
 1020 00aa 3346     		mov	r3, r6
 1021 00ac 0022     		movs	r2, #0
 1022 00ae 4FF00111 		mov	r1, #65537
 1023 00b2 2046     		mov	r0, r4
 1024 00b4 FFF7FEFF 		bl	I2C_WaitOnFlagUntilTimeout
 1025 00b8 08B1     		cbz	r0, .L170
 1026              	.L173:
 1027 00ba 0127     		movs	r7, #1
 1028 00bc B0E7     		b	.L199
 1029              	.L170:
 1030 00be 2369     		ldr	r3, [r4, #16]
 1031 00c0 B3F5804F 		cmp	r3, #16384
 1032 00c4 2368     		ldr	r3, [r4]
 1033 00c6 43D1     		bne	.L171
 1034 00c8 47F00107 		orr	r7, r7, #1
 1035 00cc FFB2     		uxtb	r7, r7
 1036 00ce 1F61     		str	r7, [r3, #16]
 1037              	.L172:
 1038 00d0 2B46     		mov	r3, r5
 1039 00d2 3246     		mov	r2, r6
 1040 00d4 7449     		ldr	r1, .L207+8
 1041 00d6 2046     		mov	r0, r4
 1042 00d8 FFF7FEFF 		bl	I2C_WaitOnMasterAddressFlagUntilTimeout
 1043 00dc 0746     		mov	r7, r0
 1044 00de 0028     		cmp	r0, #0
 1045 00e0 EBD1     		bne	.L173
 1046 00e2 228D     		ldrh	r2, [r4, #40]
 1047 00e4 2368     		ldr	r3, [r4]
 1048 00e6 002A     		cmp	r2, #0
 1049 00e8 66D0     		beq	.L185
 1050 00ea 012A     		cmp	r2, #1
 1051 00ec 77D1     		bne	.L176
 1052 00ee 1A68     		ldr	r2, [r3]
 1053 00f0 22F48062 		bic	r2, r2, #1024
ARM GAS  /tmp/cc5JP12Q.s 			page 19


 1054 00f4 1A60     		str	r2, [r3]
 1055              		.syntax unified
 1056              	@ 142 "./cmsis/inc/cmsis_gcc.h" 1
 1057 00f6 72B6     		cpsid i
 1058              	@ 0 "" 2
 1059              		.thumb
 1060              		.syntax unified
 1061 00f8 2368     		ldr	r3, [r4]
 1062 00fa 0497     		str	r7, [sp, #16]
 1063 00fc 5A69     		ldr	r2, [r3, #20]
 1064 00fe 0492     		str	r2, [sp, #16]
 1065 0100 9A69     		ldr	r2, [r3, #24]
 1066 0102 0492     		str	r2, [sp, #16]
 1067 0104 049A     		ldr	r2, [sp, #16]
 1068 0106 1A68     		ldr	r2, [r3]
 1069 0108 42F40072 		orr	r2, r2, #512
 1070              	.L203:
 1071 010c 1A60     		str	r2, [r3]
 1072              		.syntax unified
 1073              	@ 131 "./cmsis/inc/cmsis_gcc.h" 1
 1074 010e 62B6     		cpsie i
 1075              	@ 0 "" 2
 1076              		.thumb
 1077              		.syntax unified
 1078              	.L177:
 1079 0110 DFF89C81 		ldr	r8, .L207+16
 1080              	.L179:
 1081 0114 238D     		ldrh	r3, [r4, #40]
 1082 0116 002B     		cmp	r3, #0
 1083 0118 58D0     		beq	.L175
 1084 011a 032B     		cmp	r3, #3
 1085 011c 00F2CA80 		bhi	.L180
 1086 0120 012B     		cmp	r3, #1
 1087 0122 78D1     		bne	.L181
 1088 0124 2A46     		mov	r2, r5
 1089 0126 3146     		mov	r1, r6
 1090 0128 2046     		mov	r0, r4
 1091 012a FFF7FEFF 		bl	I2C_WaitOnRXNEFlagUntilTimeout
 1092 012e 0028     		cmp	r0, #0
 1093 0130 C3D1     		bne	.L173
 1094              	.L205:
 1095 0132 2268     		ldr	r2, [r4]
 1096 0134 636A     		ldr	r3, [r4, #36]
 1097 0136 1269     		ldr	r2, [r2, #16]
 1098 0138 1A70     		strb	r2, [r3]
 1099              	.L204:
 1100 013a 636A     		ldr	r3, [r4, #36]
 1101 013c 0133     		adds	r3, r3, #1
 1102 013e 6362     		str	r3, [r4, #36]
 1103 0140 238D     		ldrh	r3, [r4, #40]
 1104 0142 013B     		subs	r3, r3, #1
 1105 0144 2385     		strh	r3, [r4, #40]	@ movhi
 1106 0146 638D     		ldrh	r3, [r4, #42]
 1107 0148 013B     		subs	r3, r3, #1
 1108 014a 9BB2     		uxth	r3, r3
 1109 014c 6385     		strh	r3, [r4, #42]	@ movhi
 1110 014e E1E7     		b	.L179
ARM GAS  /tmp/cc5JP12Q.s 			page 20


 1111              	.L171:
 1112 0150 4FEAE718 		asr	r8, r7, #7
 1113 0154 08F00608 		and	r8, r8, #6
 1114 0158 48F0F002 		orr	r2, r8, #240
 1115 015c 1A61     		str	r2, [r3, #16]
 1116 015e 5349     		ldr	r1, .L207+12
 1117 0160 2B46     		mov	r3, r5
 1118 0162 3246     		mov	r2, r6
 1119 0164 2046     		mov	r0, r4
 1120 0166 FFF7FEFF 		bl	I2C_WaitOnMasterAddressFlagUntilTimeout
 1121 016a 0028     		cmp	r0, #0
 1122 016c A5D1     		bne	.L173
 1123 016e 2368     		ldr	r3, [r4]
 1124 0170 FFB2     		uxtb	r7, r7
 1125 0172 1F61     		str	r7, [r3, #16]
 1126 0174 3246     		mov	r2, r6
 1127 0176 2B46     		mov	r3, r5
 1128 0178 4B49     		ldr	r1, .L207+8
 1129 017a 2046     		mov	r0, r4
 1130 017c FFF7FEFF 		bl	I2C_WaitOnMasterAddressFlagUntilTimeout
 1131 0180 0246     		mov	r2, r0
 1132 0182 0028     		cmp	r0, #0
 1133 0184 99D1     		bne	.L173
 1134 0186 2368     		ldr	r3, [r4]
 1135 0188 0790     		str	r0, [sp, #28]
 1136 018a 5969     		ldr	r1, [r3, #20]
 1137 018c 2046     		mov	r0, r4
 1138 018e 0791     		str	r1, [sp, #28]
 1139 0190 9969     		ldr	r1, [r3, #24]
 1140 0192 0791     		str	r1, [sp, #28]
 1141 0194 0799     		ldr	r1, [sp, #28]
 1142 0196 1968     		ldr	r1, [r3]
 1143 0198 41F48071 		orr	r1, r1, #256
 1144 019c 1960     		str	r1, [r3]
 1145 019e 0095     		str	r5, [sp]
 1146 01a0 3346     		mov	r3, r6
 1147 01a2 4FF00111 		mov	r1, #65537
 1148 01a6 FFF7FEFF 		bl	I2C_WaitOnFlagUntilTimeout
 1149 01aa 0028     		cmp	r0, #0
 1150 01ac 85D1     		bne	.L173
 1151 01ae 2268     		ldr	r2, [r4]
 1152 01b0 48F0F103 		orr	r3, r8, #241
 1153 01b4 1361     		str	r3, [r2, #16]
 1154 01b6 8BE7     		b	.L172
 1155              	.L185:
 1156 01b8 0397     		str	r7, [sp, #12]
 1157 01ba 5A69     		ldr	r2, [r3, #20]
 1158 01bc 0392     		str	r2, [sp, #12]
 1159 01be 9A69     		ldr	r2, [r3, #24]
 1160 01c0 0392     		str	r2, [sp, #12]
 1161 01c2 039A     		ldr	r2, [sp, #12]
 1162 01c4 1A68     		ldr	r2, [r3]
 1163 01c6 42F40072 		orr	r2, r2, #512
 1164 01ca 1A60     		str	r2, [r3]
 1165              	.L175:
 1166 01cc 2023     		movs	r3, #32
 1167 01ce 84F83D30 		strb	r3, [r4, #61]
ARM GAS  /tmp/cc5JP12Q.s 			page 21


 1168 01d2 0023     		movs	r3, #0
 1169 01d4 84F83E30 		strb	r3, [r4, #62]
 1170 01d8 84F83C30 		strb	r3, [r4, #60]
 1171 01dc 20E7     		b	.L199
 1172              	.L176:
 1173 01de 022A     		cmp	r2, #2
 1174 01e0 1A68     		ldr	r2, [r3]
 1175 01e2 0ED1     		bne	.L178
 1176 01e4 42F40062 		orr	r2, r2, #2048
 1177 01e8 1A60     		str	r2, [r3]
 1178              		.syntax unified
 1179              	@ 142 "./cmsis/inc/cmsis_gcc.h" 1
 1180 01ea 72B6     		cpsid i
 1181              	@ 0 "" 2
 1182              		.thumb
 1183              		.syntax unified
 1184 01ec 2368     		ldr	r3, [r4]
 1185 01ee 0597     		str	r7, [sp, #20]
 1186 01f0 5A69     		ldr	r2, [r3, #20]
 1187 01f2 0592     		str	r2, [sp, #20]
 1188 01f4 9A69     		ldr	r2, [r3, #24]
 1189 01f6 0592     		str	r2, [sp, #20]
 1190 01f8 059A     		ldr	r2, [sp, #20]
 1191 01fa 1A68     		ldr	r2, [r3]
 1192 01fc 22F48062 		bic	r2, r2, #1024
 1193 0200 84E7     		b	.L203
 1194              	.L178:
 1195 0202 42F48062 		orr	r2, r2, #1024
 1196 0206 1A60     		str	r2, [r3]
 1197 0208 0697     		str	r7, [sp, #24]
 1198 020a 5A69     		ldr	r2, [r3, #20]
 1199 020c 0692     		str	r2, [sp, #24]
 1200 020e 9B69     		ldr	r3, [r3, #24]
 1201 0210 0693     		str	r3, [sp, #24]
 1202 0212 069B     		ldr	r3, [sp, #24]
 1203 0214 7CE7     		b	.L177
 1204              	.L181:
 1205 0216 022B     		cmp	r3, #2
 1206 0218 0095     		str	r5, [sp]
 1207 021a 3346     		mov	r3, r6
 1208 021c 4FF00002 		mov	r2, #0
 1209 0220 4146     		mov	r1, r8
 1210 0222 2046     		mov	r0, r4
 1211 0224 19D1     		bne	.L183
 1212 0226 FFF7FEFF 		bl	I2C_WaitOnFlagUntilTimeout
 1213 022a 0028     		cmp	r0, #0
 1214 022c 7FF445AF 		bne	.L173
 1215              		.syntax unified
 1216              	@ 142 "./cmsis/inc/cmsis_gcc.h" 1
 1217 0230 72B6     		cpsid i
 1218              	@ 0 "" 2
 1219              		.thumb
 1220              		.syntax unified
 1221              	.L206:
 1222 0232 2368     		ldr	r3, [r4]
 1223 0234 1A68     		ldr	r2, [r3]
 1224 0236 42F40072 		orr	r2, r2, #512
ARM GAS  /tmp/cc5JP12Q.s 			page 22


 1225 023a 1A60     		str	r2, [r3]
 1226 023c 1B69     		ldr	r3, [r3, #16]
 1227 023e 626A     		ldr	r2, [r4, #36]
 1228 0240 1370     		strb	r3, [r2]
 1229 0242 636A     		ldr	r3, [r4, #36]
 1230 0244 0133     		adds	r3, r3, #1
 1231 0246 6362     		str	r3, [r4, #36]
 1232 0248 238D     		ldrh	r3, [r4, #40]
 1233 024a 013B     		subs	r3, r3, #1
 1234 024c 2385     		strh	r3, [r4, #40]	@ movhi
 1235 024e 638D     		ldrh	r3, [r4, #42]
 1236 0250 013B     		subs	r3, r3, #1
 1237 0252 9BB2     		uxth	r3, r3
 1238 0254 6385     		strh	r3, [r4, #42]	@ movhi
 1239              		.syntax unified
 1240              	@ 131 "./cmsis/inc/cmsis_gcc.h" 1
 1241 0256 62B6     		cpsie i
 1242              	@ 0 "" 2
 1243              		.thumb
 1244              		.syntax unified
 1245 0258 6BE7     		b	.L205
 1246              	.L183:
 1247 025a FFF7FEFF 		bl	I2C_WaitOnFlagUntilTimeout
 1248 025e 0246     		mov	r2, r0
 1249 0260 0028     		cmp	r0, #0
 1250 0262 7FF42AAF 		bne	.L173
 1251 0266 2168     		ldr	r1, [r4]
 1252 0268 0B68     		ldr	r3, [r1]
 1253 026a 23F48063 		bic	r3, r3, #1024
 1254 026e 0B60     		str	r3, [r1]
 1255              		.syntax unified
 1256              	@ 142 "./cmsis/inc/cmsis_gcc.h" 1
 1257 0270 72B6     		cpsid i
 1258              	@ 0 "" 2
 1259              		.thumb
 1260              		.syntax unified
 1261 0272 2168     		ldr	r1, [r4]
 1262 0274 636A     		ldr	r3, [r4, #36]
 1263 0276 0969     		ldr	r1, [r1, #16]
 1264 0278 2046     		mov	r0, r4
 1265 027a 1970     		strb	r1, [r3]
 1266 027c 636A     		ldr	r3, [r4, #36]
 1267 027e 0095     		str	r5, [sp]
 1268 0280 0133     		adds	r3, r3, #1
 1269 0282 6362     		str	r3, [r4, #36]
 1270 0284 238D     		ldrh	r3, [r4, #40]
 1271 0286 4146     		mov	r1, r8
 1272 0288 013B     		subs	r3, r3, #1
 1273 028a 2385     		strh	r3, [r4, #40]	@ movhi
 1274 028c 638D     		ldrh	r3, [r4, #42]
 1275 028e 013B     		subs	r3, r3, #1
 1276 0290 9BB2     		uxth	r3, r3
 1277 0292 6385     		strh	r3, [r4, #42]	@ movhi
 1278 0294 3346     		mov	r3, r6
 1279 0296 FFF7FEFF 		bl	I2C_WaitOnFlagUntilTimeout
 1280 029a 0028     		cmp	r0, #0
 1281 029c C9D0     		beq	.L206
ARM GAS  /tmp/cc5JP12Q.s 			page 23


 1282 029e 0CE7     		b	.L173
 1283              	.L208:
 1284              		.align	2
 1285              	.L207:
 1286 02a0 02001000 		.word	1048578
 1287 02a4 0000FFFF 		.word	-65536
 1288 02a8 02000100 		.word	65538
 1289 02ac 08000100 		.word	65544
 1290 02b0 04000100 		.word	65540
 1291              	.L180:
 1292 02b4 2A46     		mov	r2, r5
 1293 02b6 3146     		mov	r1, r6
 1294 02b8 2046     		mov	r0, r4
 1295 02ba FFF7FEFF 		bl	I2C_WaitOnRXNEFlagUntilTimeout
 1296 02be 0028     		cmp	r0, #0
 1297 02c0 7FF4FBAE 		bne	.L173
 1298 02c4 2268     		ldr	r2, [r4]
 1299 02c6 636A     		ldr	r3, [r4, #36]
 1300 02c8 1269     		ldr	r2, [r2, #16]
 1301 02ca 1A70     		strb	r2, [r3]
 1302 02cc 626A     		ldr	r2, [r4, #36]
 1303 02ce 531C     		adds	r3, r2, #1
 1304 02d0 6362     		str	r3, [r4, #36]
 1305 02d2 238D     		ldrh	r3, [r4, #40]
 1306 02d4 013B     		subs	r3, r3, #1
 1307 02d6 2385     		strh	r3, [r4, #40]	@ movhi
 1308 02d8 638D     		ldrh	r3, [r4, #42]
 1309 02da 013B     		subs	r3, r3, #1
 1310 02dc 9BB2     		uxth	r3, r3
 1311 02de 6385     		strh	r3, [r4, #42]	@ movhi
 1312 02e0 2368     		ldr	r3, [r4]
 1313 02e2 5969     		ldr	r1, [r3, #20]
 1314 02e4 4907     		lsls	r1, r1, #29
 1315 02e6 7FF515AF 		bpl	.L179
 1316 02ea 1B69     		ldr	r3, [r3, #16]
 1317 02ec 5370     		strb	r3, [r2, #1]
 1318 02ee 24E7     		b	.L204
 1320              		.section	.text.HAL_I2C_Slave_Transmit,"ax",%progbits
 1321              		.align	1
 1322              		.global	HAL_I2C_Slave_Transmit
 1323              		.syntax unified
 1324              		.thumb
 1325              		.thumb_func
 1326              		.fpu softvfp
 1328              	HAL_I2C_Slave_Transmit:
 1329              		@ args = 0, pretend = 0, frame = 8
 1330              		@ frame_needed = 0, uses_anonymous_args = 0
 1331 0000 2DE9FF41 		push	{r0, r1, r2, r3, r4, r5, r6, r7, r8, lr}
 1332 0004 0446     		mov	r4, r0
 1333 0006 1D46     		mov	r5, r3
 1334 0008 0F46     		mov	r7, r1
 1335 000a 9046     		mov	r8, r2
 1336 000c FFF7FEFF 		bl	HAL_GetTick
 1337 0010 94F83D30 		ldrb	r3, [r4, #61]	@ zero_extendqisi2
 1338 0014 0646     		mov	r6, r0
 1339 0016 202B     		cmp	r3, #32
 1340 0018 40F09880 		bne	.L220
ARM GAS  /tmp/cc5JP12Q.s 			page 24


 1341 001c 1FB9     		cbnz	r7, .L211
 1342              	.L230:
 1343 001e 0120     		movs	r0, #1
 1344              	.L210:
 1345 0020 04B0     		add	sp, sp, #16
 1346              		@ sp needed
 1347 0022 BDE8F081 		pop	{r4, r5, r6, r7, r8, pc}
 1348              	.L211:
 1349 0026 B8F1000F 		cmp	r8, #0
 1350 002a F8D0     		beq	.L230
 1351 002c 94F83C30 		ldrb	r3, [r4, #60]	@ zero_extendqisi2
 1352 0030 012B     		cmp	r3, #1
 1353 0032 00F08B80 		beq	.L220
 1354 0036 0123     		movs	r3, #1
 1355 0038 84F83C30 		strb	r3, [r4, #60]
 1356 003c 2368     		ldr	r3, [r4]
 1357 003e 1A68     		ldr	r2, [r3]
 1358 0040 D207     		lsls	r2, r2, #31
 1359 0042 4FF02102 		mov	r2, #33
 1360 0046 5EBF     		ittt	pl
 1361 0048 1868     		ldrpl	r0, [r3]
 1362 004a 40F00100 		orrpl	r0, r0, #1
 1363 004e 1860     		strpl	r0, [r3]
 1364 0050 1868     		ldr	r0, [r3]
 1365 0052 20F40060 		bic	r0, r0, #2048
 1366 0056 1860     		str	r0, [r3]
 1367 0058 84F83D20 		strb	r2, [r4, #61]
 1368 005c 2022     		movs	r2, #32
 1369 005e 84F83E20 		strb	r2, [r4, #62]
 1370 0062 0022     		movs	r2, #0
 1371 0064 2264     		str	r2, [r4, #64]
 1372 0066 A4F82A80 		strh	r8, [r4, #42]	@ movhi
 1373 006a 618D     		ldrh	r1, [r4, #42]
 1374 006c 6762     		str	r7, [r4, #36]
 1375 006e 2185     		strh	r1, [r4, #40]	@ movhi
 1376 0070 3749     		ldr	r1, .L231
 1377 0072 2046     		mov	r0, r4
 1378 0074 E162     		str	r1, [r4, #44]
 1379 0076 1968     		ldr	r1, [r3]
 1380 0078 41F48061 		orr	r1, r1, #1024
 1381 007c 1960     		str	r1, [r3]
 1382 007e 0096     		str	r6, [sp]
 1383 0080 2B46     		mov	r3, r5
 1384 0082 3449     		ldr	r1, .L231+4
 1385 0084 FFF7FEFF 		bl	I2C_WaitOnFlagUntilTimeout
 1386 0088 0246     		mov	r2, r0
 1387 008a 0028     		cmp	r0, #0
 1388 008c C7D1     		bne	.L230
 1389 008e 2368     		ldr	r3, [r4]
 1390 0090 0290     		str	r0, [sp, #8]
 1391 0092 5969     		ldr	r1, [r3, #20]
 1392 0094 0291     		str	r1, [sp, #8]
 1393 0096 9B69     		ldr	r3, [r3, #24]
 1394 0098 0293     		str	r3, [sp, #8]
 1395 009a 029B     		ldr	r3, [sp, #8]
 1396 009c 2369     		ldr	r3, [r4, #16]
 1397 009e B3F5404F 		cmp	r3, #49152
ARM GAS  /tmp/cc5JP12Q.s 			page 25


 1398 00a2 0ED1     		bne	.L215
 1399 00a4 0096     		str	r6, [sp]
 1400 00a6 2B46     		mov	r3, r5
 1401 00a8 2A49     		ldr	r1, .L231+4
 1402 00aa 2046     		mov	r0, r4
 1403 00ac FFF7FEFF 		bl	I2C_WaitOnFlagUntilTimeout
 1404 00b0 0028     		cmp	r0, #0
 1405 00b2 B4D1     		bne	.L230
 1406 00b4 2368     		ldr	r3, [r4]
 1407 00b6 0390     		str	r0, [sp, #12]
 1408 00b8 5A69     		ldr	r2, [r3, #20]
 1409 00ba 0392     		str	r2, [sp, #12]
 1410 00bc 9B69     		ldr	r3, [r3, #24]
 1411 00be 0393     		str	r3, [sp, #12]
 1412 00c0 039B     		ldr	r3, [sp, #12]
 1413              	.L215:
 1414 00c2 228D     		ldrh	r2, [r4, #40]
 1415 00c4 C2B9     		cbnz	r2, .L218
 1416 00c6 0096     		str	r6, [sp]
 1417 00c8 2B46     		mov	r3, r5
 1418 00ca 4FF48231 		mov	r1, #66560
 1419 00ce 2046     		mov	r0, r4
 1420 00d0 FFF7FEFF 		bl	I2C_WaitOnFlagUntilTimeout
 1421 00d4 0028     		cmp	r0, #0
 1422 00d6 A2D1     		bne	.L230
 1423 00d8 6FF48062 		mvn	r2, #1024
 1424 00dc 2368     		ldr	r3, [r4]
 1425 00de 5A61     		str	r2, [r3, #20]
 1426 00e0 1A68     		ldr	r2, [r3]
 1427 00e2 22F48062 		bic	r2, r2, #1024
 1428 00e6 1A60     		str	r2, [r3]
 1429 00e8 2023     		movs	r3, #32
 1430 00ea 84F83C00 		strb	r0, [r4, #60]
 1431 00ee 84F83D30 		strb	r3, [r4, #61]
 1432 00f2 84F83E00 		strb	r0, [r4, #62]
 1433 00f6 93E7     		b	.L210
 1434              	.L218:
 1435 00f8 3246     		mov	r2, r6
 1436 00fa 2946     		mov	r1, r5
 1437 00fc 2046     		mov	r0, r4
 1438 00fe FFF7FEFF 		bl	I2C_WaitOnTXEFlagUntilTimeout
 1439 0102 2268     		ldr	r2, [r4]
 1440 0104 20B1     		cbz	r0, .L216
 1441 0106 1368     		ldr	r3, [r2]
 1442 0108 23F48063 		bic	r3, r3, #1024
 1443 010c 1360     		str	r3, [r2]
 1444 010e 86E7     		b	.L230
 1445              	.L216:
 1446 0110 636A     		ldr	r3, [r4, #36]
 1447 0112 1946     		mov	r1, r3
 1448 0114 11F8010B 		ldrb	r0, [r1], #1	@ zero_extendqisi2
 1449 0118 1061     		str	r0, [r2, #16]
 1450 011a 6162     		str	r1, [r4, #36]
 1451 011c 618D     		ldrh	r1, [r4, #42]
 1452 011e 0139     		subs	r1, r1, #1
 1453 0120 89B2     		uxth	r1, r1
 1454 0122 6185     		strh	r1, [r4, #42]	@ movhi
ARM GAS  /tmp/cc5JP12Q.s 			page 26


 1455 0124 218D     		ldrh	r1, [r4, #40]
 1456 0126 5769     		ldr	r7, [r2, #20]
 1457 0128 481E     		subs	r0, r1, #1
 1458 012a 80B2     		uxth	r0, r0
 1459 012c 7F07     		lsls	r7, r7, #29
 1460 012e 2085     		strh	r0, [r4, #40]	@ movhi
 1461 0130 C7D5     		bpl	.L215
 1462 0132 0028     		cmp	r0, #0
 1463 0134 C5D0     		beq	.L215
 1464 0136 5878     		ldrb	r0, [r3, #1]	@ zero_extendqisi2
 1465 0138 0233     		adds	r3, r3, #2
 1466 013a 1061     		str	r0, [r2, #16]
 1467 013c 6362     		str	r3, [r4, #36]
 1468 013e 638D     		ldrh	r3, [r4, #42]
 1469 0140 0239     		subs	r1, r1, #2
 1470 0142 013B     		subs	r3, r3, #1
 1471 0144 9BB2     		uxth	r3, r3
 1472 0146 6385     		strh	r3, [r4, #42]	@ movhi
 1473 0148 2185     		strh	r1, [r4, #40]	@ movhi
 1474 014a BAE7     		b	.L215
 1475              	.L220:
 1476 014c 0220     		movs	r0, #2
 1477 014e 67E7     		b	.L210
 1478              	.L232:
 1479              		.align	2
 1480              	.L231:
 1481 0150 0000FFFF 		.word	-65536
 1482 0154 02000100 		.word	65538
 1484              		.section	.text.HAL_I2C_Slave_Receive,"ax",%progbits
 1485              		.align	1
 1486              		.global	HAL_I2C_Slave_Receive
 1487              		.syntax unified
 1488              		.thumb
 1489              		.thumb_func
 1490              		.fpu softvfp
 1492              	HAL_I2C_Slave_Receive:
 1493              		@ args = 0, pretend = 0, frame = 8
 1494              		@ frame_needed = 0, uses_anonymous_args = 0
 1495 0000 2DE9FF41 		push	{r0, r1, r2, r3, r4, r5, r6, r7, r8, lr}
 1496 0004 0446     		mov	r4, r0
 1497 0006 1E46     		mov	r6, r3
 1498 0008 0D46     		mov	r5, r1
 1499 000a 9046     		mov	r8, r2
 1500 000c FFF7FEFF 		bl	HAL_GetTick
 1501 0010 94F83D30 		ldrb	r3, [r4, #61]	@ zero_extendqisi2
 1502 0014 0746     		mov	r7, r0
 1503 0016 202B     		cmp	r3, #32
 1504 0018 40F0A780 		bne	.L248
 1505 001c 25B9     		cbnz	r5, .L235
 1506              	.L261:
 1507 001e 0125     		movs	r5, #1
 1508              	.L259:
 1509 0020 2846     		mov	r0, r5
 1510 0022 04B0     		add	sp, sp, #16
 1511              		@ sp needed
 1512 0024 BDE8F081 		pop	{r4, r5, r6, r7, r8, pc}
 1513              	.L235:
ARM GAS  /tmp/cc5JP12Q.s 			page 27


 1514 0028 B8F1000F 		cmp	r8, #0
 1515 002c F7D0     		beq	.L261
 1516 002e 94F83C30 		ldrb	r3, [r4, #60]	@ zero_extendqisi2
 1517 0032 012B     		cmp	r3, #1
 1518 0034 00F09980 		beq	.L248
 1519 0038 0123     		movs	r3, #1
 1520 003a 84F83C30 		strb	r3, [r4, #60]
 1521 003e 2368     		ldr	r3, [r4]
 1522 0040 1A68     		ldr	r2, [r3]
 1523 0042 D207     		lsls	r2, r2, #31
 1524 0044 4FF02202 		mov	r2, #34
 1525 0048 5EBF     		ittt	pl
 1526 004a 1868     		ldrpl	r0, [r3]
 1527 004c 40F00100 		orrpl	r0, r0, #1
 1528 0050 1860     		strpl	r0, [r3]
 1529 0052 1868     		ldr	r0, [r3]
 1530 0054 20F40060 		bic	r0, r0, #2048
 1531 0058 1860     		str	r0, [r3]
 1532 005a 84F83D20 		strb	r2, [r4, #61]
 1533 005e 2022     		movs	r2, #32
 1534 0060 84F83E20 		strb	r2, [r4, #62]
 1535 0064 0022     		movs	r2, #0
 1536 0066 2264     		str	r2, [r4, #64]
 1537 0068 A4F82A80 		strh	r8, [r4, #42]	@ movhi
 1538 006c 618D     		ldrh	r1, [r4, #42]
 1539 006e 6562     		str	r5, [r4, #36]
 1540 0070 2185     		strh	r1, [r4, #40]	@ movhi
 1541 0072 3F49     		ldr	r1, .L262
 1542 0074 2046     		mov	r0, r4
 1543 0076 E162     		str	r1, [r4, #44]
 1544 0078 1968     		ldr	r1, [r3]
 1545 007a 41F48061 		orr	r1, r1, #1024
 1546 007e 1960     		str	r1, [r3]
 1547 0080 0097     		str	r7, [sp]
 1548 0082 3346     		mov	r3, r6
 1549 0084 3B49     		ldr	r1, .L262+4
 1550 0086 FFF7FEFF 		bl	I2C_WaitOnFlagUntilTimeout
 1551 008a 0546     		mov	r5, r0
 1552 008c 0028     		cmp	r0, #0
 1553 008e C6D1     		bne	.L261
 1554 0090 2368     		ldr	r3, [r4]
 1555 0092 0290     		str	r0, [sp, #8]
 1556 0094 5A69     		ldr	r2, [r3, #20]
 1557 0096 0292     		str	r2, [sp, #8]
 1558 0098 9B69     		ldr	r3, [r3, #24]
 1559 009a 0293     		str	r3, [sp, #8]
 1560 009c 029B     		ldr	r3, [sp, #8]
 1561              	.L238:
 1562 009e 238D     		ldrh	r3, [r4, #40]
 1563 00a0 C3B9     		cbnz	r3, .L241
 1564              	.L242:
 1565 00a2 2368     		ldr	r3, [r4]
 1566 00a4 5A69     		ldr	r2, [r3, #20]
 1567 00a6 D206     		lsls	r2, r2, #27
 1568 00a8 41D5     		bpl	.L245
 1569 00aa 0022     		movs	r2, #0
 1570 00ac 0392     		str	r2, [sp, #12]
ARM GAS  /tmp/cc5JP12Q.s 			page 28


 1571 00ae 5969     		ldr	r1, [r3, #20]
 1572 00b0 0391     		str	r1, [sp, #12]
 1573 00b2 1968     		ldr	r1, [r3]
 1574 00b4 41F00101 		orr	r1, r1, #1
 1575 00b8 1960     		str	r1, [r3]
 1576 00ba 0399     		ldr	r1, [sp, #12]
 1577 00bc 1968     		ldr	r1, [r3]
 1578 00be 21F48061 		bic	r1, r1, #1024
 1579 00c2 1960     		str	r1, [r3]
 1580 00c4 2023     		movs	r3, #32
 1581 00c6 84F83C20 		strb	r2, [r4, #60]
 1582 00ca 84F83D30 		strb	r3, [r4, #61]
 1583 00ce 84F83E20 		strb	r2, [r4, #62]
 1584 00d2 A5E7     		b	.L259
 1585              	.L241:
 1586 00d4 3A46     		mov	r2, r7
 1587 00d6 3146     		mov	r1, r6
 1588 00d8 2046     		mov	r0, r4
 1589 00da FFF7FEFF 		bl	I2C_WaitOnRXNEFlagUntilTimeout
 1590 00de 2368     		ldr	r3, [r4]
 1591 00e0 20B1     		cbz	r0, .L239
 1592 00e2 1A68     		ldr	r2, [r3]
 1593 00e4 22F48062 		bic	r2, r2, #1024
 1594 00e8 1A60     		str	r2, [r3]
 1595 00ea 98E7     		b	.L261
 1596              	.L239:
 1597 00ec 1B69     		ldr	r3, [r3, #16]
 1598 00ee 626A     		ldr	r2, [r4, #36]
 1599 00f0 1370     		strb	r3, [r2]
 1600 00f2 628D     		ldrh	r2, [r4, #42]
 1601 00f4 616A     		ldr	r1, [r4, #36]
 1602 00f6 013A     		subs	r2, r2, #1
 1603 00f8 92B2     		uxth	r2, r2
 1604 00fa 4B1C     		adds	r3, r1, #1
 1605 00fc 6285     		strh	r2, [r4, #42]	@ movhi
 1606 00fe 2268     		ldr	r2, [r4]
 1607 0100 6362     		str	r3, [r4, #36]
 1608 0102 238D     		ldrh	r3, [r4, #40]
 1609 0104 5069     		ldr	r0, [r2, #20]
 1610 0106 013B     		subs	r3, r3, #1
 1611 0108 9BB2     		uxth	r3, r3
 1612 010a 4007     		lsls	r0, r0, #29
 1613 010c 2385     		strh	r3, [r4, #40]	@ movhi
 1614 010e C6D5     		bpl	.L238
 1615 0110 002B     		cmp	r3, #0
 1616 0112 C4D0     		beq	.L238
 1617 0114 1369     		ldr	r3, [r2, #16]
 1618 0116 4B70     		strb	r3, [r1, #1]
 1619 0118 636A     		ldr	r3, [r4, #36]
 1620 011a 0133     		adds	r3, r3, #1
 1621 011c 6362     		str	r3, [r4, #36]
 1622 011e 238D     		ldrh	r3, [r4, #40]
 1623 0120 013B     		subs	r3, r3, #1
 1624 0122 2385     		strh	r3, [r4, #40]	@ movhi
 1625 0124 638D     		ldrh	r3, [r4, #42]
 1626 0126 013B     		subs	r3, r3, #1
 1627 0128 9BB2     		uxth	r3, r3
ARM GAS  /tmp/cc5JP12Q.s 			page 29


 1628 012a 6385     		strh	r3, [r4, #42]	@ movhi
 1629 012c B7E7     		b	.L238
 1630              	.L245:
 1631 012e 2046     		mov	r0, r4
 1632 0130 FFF7FEFF 		bl	I2C_IsAcknowledgeFailed
 1633 0134 98B9     		cbnz	r0, .L243
 1634 0136 FFF7FEFF 		bl	HAL_GetTick
 1635 013a C01B     		subs	r0, r0, r7
 1636 013c 8642     		cmp	r6, r0
 1637 013e 01D3     		bcc	.L244
 1638 0140 002E     		cmp	r6, #0
 1639 0142 AED1     		bne	.L242
 1640              	.L244:
 1641 0144 0023     		movs	r3, #0
 1642 0146 2022     		movs	r2, #32
 1643 0148 2363     		str	r3, [r4, #48]
 1644 014a 84F83D20 		strb	r2, [r4, #61]
 1645 014e 84F83E30 		strb	r3, [r4, #62]
 1646 0152 226C     		ldr	r2, [r4, #64]
 1647 0154 84F83C30 		strb	r3, [r4, #60]
 1648 0158 42F02002 		orr	r2, r2, #32
 1649 015c 2264     		str	r2, [r4, #64]
 1650              	.L243:
 1651 015e 2268     		ldr	r2, [r4]
 1652 0160 1368     		ldr	r3, [r2]
 1653 0162 23F48063 		bic	r3, r3, #1024
 1654 0166 1360     		str	r3, [r2]
 1655 0168 59E7     		b	.L261
 1656              	.L248:
 1657 016a 0225     		movs	r5, #2
 1658 016c 58E7     		b	.L259
 1659              	.L263:
 1660 016e 00BF     		.align	2
 1661              	.L262:
 1662 0170 0000FFFF 		.word	-65536
 1663 0174 02000100 		.word	65538
 1665              		.section	.text.HAL_I2C_Master_Transmit_IT,"ax",%progbits
 1666              		.align	1
 1667              		.global	HAL_I2C_Master_Transmit_IT
 1668              		.syntax unified
 1669              		.thumb
 1670              		.thumb_func
 1671              		.fpu softvfp
 1673              	HAL_I2C_Master_Transmit_IT:
 1674              		@ args = 0, pretend = 0, frame = 8
 1675              		@ frame_needed = 0, uses_anonymous_args = 0
 1676 0000 37B5     		push	{r0, r1, r2, r4, r5, lr}
 1677 0002 0024     		movs	r4, #0
 1678 0004 0194     		str	r4, [sp, #4]
 1679 0006 90F83D40 		ldrb	r4, [r0, #61]	@ zero_extendqisi2
 1680 000a 202C     		cmp	r4, #32
 1681 000c 02D0     		beq	.L265
 1682              	.L269:
 1683 000e 0220     		movs	r0, #2
 1684              	.L266:
 1685 0010 03B0     		add	sp, sp, #12
 1686              		@ sp needed
ARM GAS  /tmp/cc5JP12Q.s 			page 30


 1687 0012 30BD     		pop	{r4, r5, pc}
 1688              	.L265:
 1689 0014 46F2A815 		movw	r5, #25000
 1690 0018 254C     		ldr	r4, .L275
 1691 001a 2468     		ldr	r4, [r4]
 1692 001c B4FBF5F5 		udiv	r5, r4, r5
 1693 0020 1924     		movs	r4, #25
 1694 0022 6C43     		muls	r4, r5, r4
 1695 0024 0194     		str	r4, [sp, #4]
 1696              	.L268:
 1697 0026 019C     		ldr	r4, [sp, #4]
 1698 0028 013C     		subs	r4, r4, #1
 1699 002a 0194     		str	r4, [sp, #4]
 1700 002c 019C     		ldr	r4, [sp, #4]
 1701 002e 6CB9     		cbnz	r4, .L267
 1702 0030 2023     		movs	r3, #32
 1703 0032 0463     		str	r4, [r0, #48]
 1704 0034 80F83D30 		strb	r3, [r0, #61]
 1705 0038 80F83E40 		strb	r4, [r0, #62]
 1706 003c 036C     		ldr	r3, [r0, #64]
 1707 003e 80F83C40 		strb	r4, [r0, #60]
 1708 0042 43F02003 		orr	r3, r3, #32
 1709 0046 0364     		str	r3, [r0, #64]
 1710 0048 0120     		movs	r0, #1
 1711 004a E1E7     		b	.L266
 1712              	.L267:
 1713 004c 0468     		ldr	r4, [r0]
 1714 004e A569     		ldr	r5, [r4, #24]
 1715 0050 AD07     		lsls	r5, r5, #30
 1716 0052 E8D4     		bmi	.L268
 1717 0054 90F83C50 		ldrb	r5, [r0, #60]	@ zero_extendqisi2
 1718 0058 012D     		cmp	r5, #1
 1719 005a D8D0     		beq	.L269
 1720 005c 0125     		movs	r5, #1
 1721 005e 80F83C50 		strb	r5, [r0, #60]
 1722 0062 2568     		ldr	r5, [r4]
 1723 0064 ED07     		lsls	r5, r5, #31
 1724 0066 5EBF     		ittt	pl
 1725 0068 2568     		ldrpl	r5, [r4]
 1726 006a 45F00105 		orrpl	r5, r5, #1
 1727 006e 2560     		strpl	r5, [r4]
 1728 0070 2568     		ldr	r5, [r4]
 1729 0072 25F40065 		bic	r5, r5, #2048
 1730 0076 2560     		str	r5, [r4]
 1731 0078 2125     		movs	r5, #33
 1732 007a 80F83D50 		strb	r5, [r0, #61]
 1733 007e 1025     		movs	r5, #16
 1734 0080 80F83E50 		strb	r5, [r0, #62]
 1735 0084 0025     		movs	r5, #0
 1736 0086 0564     		str	r5, [r0, #64]
 1737 0088 4385     		strh	r3, [r0, #42]	@ movhi
 1738 008a 438D     		ldrh	r3, [r0, #42]
 1739 008c 4262     		str	r2, [r0, #36]
 1740 008e 0385     		strh	r3, [r0, #40]	@ movhi
 1741 0090 084B     		ldr	r3, .L275+4
 1742 0092 C362     		str	r3, [r0, #44]
 1743 0094 4164     		str	r1, [r0, #68]
ARM GAS  /tmp/cc5JP12Q.s 			page 31


 1744 0096 2368     		ldr	r3, [r4]
 1745 0098 43F48073 		orr	r3, r3, #256
 1746 009c 2360     		str	r3, [r4]
 1747 009e 6368     		ldr	r3, [r4, #4]
 1748 00a0 80F83C50 		strb	r5, [r0, #60]
 1749 00a4 43F4E063 		orr	r3, r3, #1792
 1750 00a8 6360     		str	r3, [r4, #4]
 1751 00aa 2846     		mov	r0, r5
 1752 00ac B0E7     		b	.L266
 1753              	.L276:
 1754 00ae 00BF     		.align	2
 1755              	.L275:
 1756 00b0 00000000 		.word	SystemCoreClock
 1757 00b4 0000FFFF 		.word	-65536
 1759              		.section	.text.HAL_I2C_Master_Receive_IT,"ax",%progbits
 1760              		.align	1
 1761              		.global	HAL_I2C_Master_Receive_IT
 1762              		.syntax unified
 1763              		.thumb
 1764              		.thumb_func
 1765              		.fpu softvfp
 1767              	HAL_I2C_Master_Receive_IT:
 1768              		@ args = 0, pretend = 0, frame = 8
 1769              		@ frame_needed = 0, uses_anonymous_args = 0
 1770 0000 37B5     		push	{r0, r1, r2, r4, r5, lr}
 1771 0002 0024     		movs	r4, #0
 1772 0004 0194     		str	r4, [sp, #4]
 1773 0006 90F83D40 		ldrb	r4, [r0, #61]	@ zero_extendqisi2
 1774 000a 202C     		cmp	r4, #32
 1775 000c 02D0     		beq	.L278
 1776              	.L282:
 1777 000e 0220     		movs	r0, #2
 1778              	.L279:
 1779 0010 03B0     		add	sp, sp, #12
 1780              		@ sp needed
 1781 0012 30BD     		pop	{r4, r5, pc}
 1782              	.L278:
 1783 0014 46F2A815 		movw	r5, #25000
 1784 0018 274C     		ldr	r4, .L288
 1785 001a 2468     		ldr	r4, [r4]
 1786 001c B4FBF5F5 		udiv	r5, r4, r5
 1787 0020 1924     		movs	r4, #25
 1788 0022 6C43     		muls	r4, r5, r4
 1789 0024 0194     		str	r4, [sp, #4]
 1790              	.L281:
 1791 0026 019C     		ldr	r4, [sp, #4]
 1792 0028 013C     		subs	r4, r4, #1
 1793 002a 0194     		str	r4, [sp, #4]
 1794 002c 019C     		ldr	r4, [sp, #4]
 1795 002e 6CB9     		cbnz	r4, .L280
 1796 0030 2023     		movs	r3, #32
 1797 0032 0463     		str	r4, [r0, #48]
 1798 0034 80F83D30 		strb	r3, [r0, #61]
 1799 0038 80F83E40 		strb	r4, [r0, #62]
 1800 003c 036C     		ldr	r3, [r0, #64]
 1801 003e 80F83C40 		strb	r4, [r0, #60]
 1802 0042 43F02003 		orr	r3, r3, #32
ARM GAS  /tmp/cc5JP12Q.s 			page 32


 1803 0046 0364     		str	r3, [r0, #64]
 1804 0048 0120     		movs	r0, #1
 1805 004a E1E7     		b	.L279
 1806              	.L280:
 1807 004c 0468     		ldr	r4, [r0]
 1808 004e A569     		ldr	r5, [r4, #24]
 1809 0050 AD07     		lsls	r5, r5, #30
 1810 0052 E8D4     		bmi	.L281
 1811 0054 90F83C50 		ldrb	r5, [r0, #60]	@ zero_extendqisi2
 1812 0058 012D     		cmp	r5, #1
 1813 005a D8D0     		beq	.L282
 1814 005c 0125     		movs	r5, #1
 1815 005e 80F83C50 		strb	r5, [r0, #60]
 1816 0062 2568     		ldr	r5, [r4]
 1817 0064 ED07     		lsls	r5, r5, #31
 1818 0066 5EBF     		ittt	pl
 1819 0068 2568     		ldrpl	r5, [r4]
 1820 006a 45F00105 		orrpl	r5, r5, #1
 1821 006e 2560     		strpl	r5, [r4]
 1822 0070 2568     		ldr	r5, [r4]
 1823 0072 25F40065 		bic	r5, r5, #2048
 1824 0076 2560     		str	r5, [r4]
 1825 0078 2225     		movs	r5, #34
 1826 007a 80F83D50 		strb	r5, [r0, #61]
 1827 007e 1025     		movs	r5, #16
 1828 0080 80F83E50 		strb	r5, [r0, #62]
 1829 0084 0025     		movs	r5, #0
 1830 0086 0564     		str	r5, [r0, #64]
 1831 0088 4385     		strh	r3, [r0, #42]	@ movhi
 1832 008a 438D     		ldrh	r3, [r0, #42]
 1833 008c 4262     		str	r2, [r0, #36]
 1834 008e 0385     		strh	r3, [r0, #40]	@ movhi
 1835 0090 0A4B     		ldr	r3, .L288+4
 1836 0092 C362     		str	r3, [r0, #44]
 1837 0094 4164     		str	r1, [r0, #68]
 1838 0096 2368     		ldr	r3, [r4]
 1839 0098 43F48063 		orr	r3, r3, #1024
 1840 009c 2360     		str	r3, [r4]
 1841 009e 2368     		ldr	r3, [r4]
 1842 00a0 43F48073 		orr	r3, r3, #256
 1843 00a4 2360     		str	r3, [r4]
 1844 00a6 6368     		ldr	r3, [r4, #4]
 1845 00a8 80F83C50 		strb	r5, [r0, #60]
 1846 00ac 43F4E063 		orr	r3, r3, #1792
 1847 00b0 6360     		str	r3, [r4, #4]
 1848 00b2 2846     		mov	r0, r5
 1849 00b4 ACE7     		b	.L279
 1850              	.L289:
 1851 00b6 00BF     		.align	2
 1852              	.L288:
 1853 00b8 00000000 		.word	SystemCoreClock
 1854 00bc 0000FFFF 		.word	-65536
 1856              		.section	.text.HAL_I2C_Slave_Transmit_IT,"ax",%progbits
 1857              		.align	1
 1858              		.global	HAL_I2C_Slave_Transmit_IT
 1859              		.syntax unified
 1860              		.thumb
ARM GAS  /tmp/cc5JP12Q.s 			page 33


 1861              		.thumb_func
 1862              		.fpu softvfp
 1864              	HAL_I2C_Slave_Transmit_IT:
 1865              		@ args = 0, pretend = 0, frame = 0
 1866              		@ frame_needed = 0, uses_anonymous_args = 0
 1867 0000 90F83D30 		ldrb	r3, [r0, #61]	@ zero_extendqisi2
 1868 0004 10B5     		push	{r4, lr}
 1869 0006 202B     		cmp	r3, #32
 1870 0008 32D1     		bne	.L296
 1871 000a 0029     		cmp	r1, #0
 1872 000c 2ED0     		beq	.L295
 1873 000e 002A     		cmp	r2, #0
 1874 0010 2CD0     		beq	.L295
 1875 0012 90F83C30 		ldrb	r3, [r0, #60]	@ zero_extendqisi2
 1876 0016 012B     		cmp	r3, #1
 1877 0018 2AD0     		beq	.L296
 1878 001a 0123     		movs	r3, #1
 1879 001c 0468     		ldr	r4, [r0]
 1880 001e 80F83C30 		strb	r3, [r0, #60]
 1881 0022 2368     		ldr	r3, [r4]
 1882 0024 DB07     		lsls	r3, r3, #31
 1883 0026 5EBF     		ittt	pl
 1884 0028 2368     		ldrpl	r3, [r4]
 1885 002a 43F00103 		orrpl	r3, r3, #1
 1886 002e 2360     		strpl	r3, [r4]
 1887 0030 2368     		ldr	r3, [r4]
 1888 0032 23F40063 		bic	r3, r3, #2048
 1889 0036 2360     		str	r3, [r4]
 1890 0038 2123     		movs	r3, #33
 1891 003a 80F83D30 		strb	r3, [r0, #61]
 1892 003e 2023     		movs	r3, #32
 1893 0040 80F83E30 		strb	r3, [r0, #62]
 1894 0044 0023     		movs	r3, #0
 1895 0046 0364     		str	r3, [r0, #64]
 1896 0048 4285     		strh	r2, [r0, #42]	@ movhi
 1897 004a 428D     		ldrh	r2, [r0, #42]
 1898 004c 4162     		str	r1, [r0, #36]
 1899 004e 0285     		strh	r2, [r0, #40]	@ movhi
 1900 0050 084A     		ldr	r2, .L297
 1901 0052 C262     		str	r2, [r0, #44]
 1902 0054 2268     		ldr	r2, [r4]
 1903 0056 42F48062 		orr	r2, r2, #1024
 1904 005a 2260     		str	r2, [r4]
 1905 005c 6268     		ldr	r2, [r4, #4]
 1906 005e 80F83C30 		strb	r3, [r0, #60]
 1907 0062 42F4E062 		orr	r2, r2, #1792
 1908 0066 6260     		str	r2, [r4, #4]
 1909 0068 1846     		mov	r0, r3
 1910 006a 10BD     		pop	{r4, pc}
 1911              	.L295:
 1912 006c 0120     		movs	r0, #1
 1913 006e 10BD     		pop	{r4, pc}
 1914              	.L296:
 1915 0070 0220     		movs	r0, #2
 1916 0072 10BD     		pop	{r4, pc}
 1917              	.L298:
 1918              		.align	2
ARM GAS  /tmp/cc5JP12Q.s 			page 34


 1919              	.L297:
 1920 0074 0000FFFF 		.word	-65536
 1922              		.section	.text.HAL_I2C_Slave_Receive_IT,"ax",%progbits
 1923              		.align	1
 1924              		.global	HAL_I2C_Slave_Receive_IT
 1925              		.syntax unified
 1926              		.thumb
 1927              		.thumb_func
 1928              		.fpu softvfp
 1930              	HAL_I2C_Slave_Receive_IT:
 1931              		@ args = 0, pretend = 0, frame = 0
 1932              		@ frame_needed = 0, uses_anonymous_args = 0
 1933 0000 90F83D30 		ldrb	r3, [r0, #61]	@ zero_extendqisi2
 1934 0004 10B5     		push	{r4, lr}
 1935 0006 202B     		cmp	r3, #32
 1936 0008 32D1     		bne	.L305
 1937 000a 0029     		cmp	r1, #0
 1938 000c 2ED0     		beq	.L304
 1939 000e 002A     		cmp	r2, #0
 1940 0010 2CD0     		beq	.L304
 1941 0012 90F83C30 		ldrb	r3, [r0, #60]	@ zero_extendqisi2
 1942 0016 012B     		cmp	r3, #1
 1943 0018 2AD0     		beq	.L305
 1944 001a 0123     		movs	r3, #1
 1945 001c 0468     		ldr	r4, [r0]
 1946 001e 80F83C30 		strb	r3, [r0, #60]
 1947 0022 2368     		ldr	r3, [r4]
 1948 0024 DB07     		lsls	r3, r3, #31
 1949 0026 5EBF     		ittt	pl
 1950 0028 2368     		ldrpl	r3, [r4]
 1951 002a 43F00103 		orrpl	r3, r3, #1
 1952 002e 2360     		strpl	r3, [r4]
 1953 0030 2368     		ldr	r3, [r4]
 1954 0032 23F40063 		bic	r3, r3, #2048
 1955 0036 2360     		str	r3, [r4]
 1956 0038 2223     		movs	r3, #34
 1957 003a 80F83D30 		strb	r3, [r0, #61]
 1958 003e 2023     		movs	r3, #32
 1959 0040 80F83E30 		strb	r3, [r0, #62]
 1960 0044 0023     		movs	r3, #0
 1961 0046 0364     		str	r3, [r0, #64]
 1962 0048 4285     		strh	r2, [r0, #42]	@ movhi
 1963 004a 428D     		ldrh	r2, [r0, #42]
 1964 004c 4162     		str	r1, [r0, #36]
 1965 004e 0285     		strh	r2, [r0, #40]	@ movhi
 1966 0050 084A     		ldr	r2, .L306
 1967 0052 C262     		str	r2, [r0, #44]
 1968 0054 2268     		ldr	r2, [r4]
 1969 0056 42F48062 		orr	r2, r2, #1024
 1970 005a 2260     		str	r2, [r4]
 1971 005c 6268     		ldr	r2, [r4, #4]
 1972 005e 80F83C30 		strb	r3, [r0, #60]
 1973 0062 42F4E062 		orr	r2, r2, #1792
 1974 0066 6260     		str	r2, [r4, #4]
 1975 0068 1846     		mov	r0, r3
 1976 006a 10BD     		pop	{r4, pc}
 1977              	.L304:
ARM GAS  /tmp/cc5JP12Q.s 			page 35


 1978 006c 0120     		movs	r0, #1
 1979 006e 10BD     		pop	{r4, pc}
 1980              	.L305:
 1981 0070 0220     		movs	r0, #2
 1982 0072 10BD     		pop	{r4, pc}
 1983              	.L307:
 1984              		.align	2
 1985              	.L306:
 1986 0074 0000FFFF 		.word	-65536
 1988              		.section	.text.HAL_I2C_Master_Transmit_DMA,"ax",%progbits
 1989              		.align	1
 1990              		.global	HAL_I2C_Master_Transmit_DMA
 1991              		.syntax unified
 1992              		.thumb
 1993              		.thumb_func
 1994              		.fpu softvfp
 1996              	HAL_I2C_Master_Transmit_DMA:
 1997              		@ args = 0, pretend = 0, frame = 8
 1998              		@ frame_needed = 0, uses_anonymous_args = 0
 1999 0000 73B5     		push	{r0, r1, r4, r5, r6, lr}
 2000 0002 0E46     		mov	r6, r1
 2001 0004 1146     		mov	r1, r2
 2002 0006 0022     		movs	r2, #0
 2003 0008 0192     		str	r2, [sp, #4]
 2004 000a 90F83D20 		ldrb	r2, [r0, #61]	@ zero_extendqisi2
 2005 000e 0446     		mov	r4, r0
 2006 0010 202A     		cmp	r2, #32
 2007 0012 02D0     		beq	.L309
 2008              	.L313:
 2009 0014 0220     		movs	r0, #2
 2010              	.L310:
 2011 0016 02B0     		add	sp, sp, #8
 2012              		@ sp needed
 2013 0018 70BD     		pop	{r4, r5, r6, pc}
 2014              	.L309:
 2015 001a 46F2A810 		movw	r0, #25000
 2016 001e 3E4A     		ldr	r2, .L322
 2017 0020 1268     		ldr	r2, [r2]
 2018 0022 B2FBF0F0 		udiv	r0, r2, r0
 2019 0026 1922     		movs	r2, #25
 2020 0028 4243     		muls	r2, r0, r2
 2021 002a 0192     		str	r2, [sp, #4]
 2022              	.L312:
 2023 002c 019A     		ldr	r2, [sp, #4]
 2024 002e 013A     		subs	r2, r2, #1
 2025 0030 0192     		str	r2, [sp, #4]
 2026 0032 019A     		ldr	r2, [sp, #4]
 2027 0034 6AB9     		cbnz	r2, .L311
 2028 0036 2023     		movs	r3, #32
 2029 0038 2263     		str	r2, [r4, #48]
 2030 003a 84F83D30 		strb	r3, [r4, #61]
 2031 003e 84F83E20 		strb	r2, [r4, #62]
 2032 0042 236C     		ldr	r3, [r4, #64]
 2033 0044 84F83C20 		strb	r2, [r4, #60]
 2034 0048 43F02003 		orr	r3, r3, #32
 2035 004c 2364     		str	r3, [r4, #64]
 2036              	.L321:
ARM GAS  /tmp/cc5JP12Q.s 			page 36


 2037 004e 0120     		movs	r0, #1
 2038 0050 E1E7     		b	.L310
 2039              	.L311:
 2040 0052 2268     		ldr	r2, [r4]
 2041 0054 9069     		ldr	r0, [r2, #24]
 2042 0056 8507     		lsls	r5, r0, #30
 2043 0058 E8D4     		bmi	.L312
 2044 005a 94F83C00 		ldrb	r0, [r4, #60]	@ zero_extendqisi2
 2045 005e 0128     		cmp	r0, #1
 2046 0060 D8D0     		beq	.L313
 2047 0062 0120     		movs	r0, #1
 2048 0064 84F83C00 		strb	r0, [r4, #60]
 2049 0068 1068     		ldr	r0, [r2]
 2050 006a 0025     		movs	r5, #0
 2051 006c C007     		lsls	r0, r0, #31
 2052 006e 5EBF     		ittt	pl
 2053 0070 1068     		ldrpl	r0, [r2]
 2054 0072 40F00100 		orrpl	r0, r0, #1
 2055 0076 1060     		strpl	r0, [r2]
 2056 0078 1068     		ldr	r0, [r2]
 2057 007a 20F40060 		bic	r0, r0, #2048
 2058 007e 1060     		str	r0, [r2]
 2059 0080 2120     		movs	r0, #33
 2060 0082 84F83D00 		strb	r0, [r4, #61]
 2061 0086 1020     		movs	r0, #16
 2062 0088 84F83E00 		strb	r0, [r4, #62]
 2063 008c 2564     		str	r5, [r4, #64]
 2064 008e 6385     		strh	r3, [r4, #42]	@ movhi
 2065 0090 608D     		ldrh	r0, [r4, #42]
 2066 0092 6162     		str	r1, [r4, #36]
 2067 0094 83B2     		uxth	r3, r0
 2068 0096 2148     		ldr	r0, .L322+4
 2069 0098 2385     		strh	r3, [r4, #40]	@ movhi
 2070 009a E062     		str	r0, [r4, #44]
 2071 009c 6664     		str	r6, [r4, #68]
 2072 009e 53B3     		cbz	r3, .L315
 2073 00a0 606B     		ldr	r0, [r4, #52]
 2074 00a2 1F4E     		ldr	r6, .L322+8
 2075 00a4 C562     		str	r5, [r0, #44]
 2076 00a6 8662     		str	r6, [r0, #40]
 2077 00a8 1E4E     		ldr	r6, .L322+12
 2078 00aa 4563     		str	r5, [r0, #52]
 2079 00ac 0663     		str	r6, [r0, #48]
 2080 00ae 1032     		adds	r2, r2, #16
 2081 00b0 FFF7FEFF 		bl	HAL_DMA_Start_IT
 2082 00b4 98B9     		cbnz	r0, .L316
 2083 00b6 2368     		ldr	r3, [r4]
 2084 00b8 1A68     		ldr	r2, [r3]
 2085 00ba 42F48062 		orr	r2, r2, #1024
 2086 00be 1A60     		str	r2, [r3]
 2087 00c0 1A68     		ldr	r2, [r3]
 2088 00c2 42F48072 		orr	r2, r2, #256
 2089 00c6 1A60     		str	r2, [r3]
 2090 00c8 5A68     		ldr	r2, [r3, #4]
 2091 00ca 84F83C00 		strb	r0, [r4, #60]
 2092 00ce 42F44072 		orr	r2, r2, #768
 2093 00d2 5A60     		str	r2, [r3, #4]
ARM GAS  /tmp/cc5JP12Q.s 			page 37


 2094 00d4 5A68     		ldr	r2, [r3, #4]
 2095 00d6 42F40062 		orr	r2, r2, #2048
 2096 00da 5A60     		str	r2, [r3, #4]
 2097 00dc 9BE7     		b	.L310
 2098              	.L316:
 2099 00de 2023     		movs	r3, #32
 2100 00e0 84F83D30 		strb	r3, [r4, #61]
 2101 00e4 84F83E50 		strb	r5, [r4, #62]
 2102 00e8 236C     		ldr	r3, [r4, #64]
 2103 00ea 84F83C50 		strb	r5, [r4, #60]
 2104 00ee 43F01003 		orr	r3, r3, #16
 2105 00f2 2364     		str	r3, [r4, #64]
 2106 00f4 ABE7     		b	.L321
 2107              	.L315:
 2108 00f6 1168     		ldr	r1, [r2]
 2109 00f8 1846     		mov	r0, r3
 2110 00fa 41F48061 		orr	r1, r1, #1024
 2111 00fe 1160     		str	r1, [r2]
 2112 0100 1168     		ldr	r1, [r2]
 2113 0102 41F48071 		orr	r1, r1, #256
 2114 0106 1160     		str	r1, [r2]
 2115 0108 5168     		ldr	r1, [r2, #4]
 2116 010a 84F83C30 		strb	r3, [r4, #60]
 2117 010e 41F4E061 		orr	r1, r1, #1792
 2118 0112 5160     		str	r1, [r2, #4]
 2119 0114 7FE7     		b	.L310
 2120              	.L323:
 2121 0116 00BF     		.align	2
 2122              	.L322:
 2123 0118 00000000 		.word	SystemCoreClock
 2124 011c 0000FFFF 		.word	-65536
 2125 0120 00000000 		.word	I2C_DMAXferCplt
 2126 0124 00000000 		.word	I2C_DMAError
 2128              		.section	.text.HAL_I2C_Master_Receive_DMA,"ax",%progbits
 2129              		.align	1
 2130              		.global	HAL_I2C_Master_Receive_DMA
 2131              		.syntax unified
 2132              		.thumb
 2133              		.thumb_func
 2134              		.fpu softvfp
 2136              	HAL_I2C_Master_Receive_DMA:
 2137              		@ args = 0, pretend = 0, frame = 8
 2138              		@ frame_needed = 0, uses_anonymous_args = 0
 2139 0000 73B5     		push	{r0, r1, r4, r5, r6, lr}
 2140 0002 0446     		mov	r4, r0
 2141 0004 0020     		movs	r0, #0
 2142 0006 0190     		str	r0, [sp, #4]
 2143 0008 94F83D00 		ldrb	r0, [r4, #61]	@ zero_extendqisi2
 2144 000c 2028     		cmp	r0, #32
 2145 000e 02D0     		beq	.L325
 2146              	.L329:
 2147 0010 0220     		movs	r0, #2
 2148              	.L326:
 2149 0012 02B0     		add	sp, sp, #8
 2150              		@ sp needed
 2151 0014 70BD     		pop	{r4, r5, r6, pc}
 2152              	.L325:
ARM GAS  /tmp/cc5JP12Q.s 			page 38


 2153 0016 46F2A815 		movw	r5, #25000
 2154 001a 3E48     		ldr	r0, .L338
 2155 001c 0068     		ldr	r0, [r0]
 2156 001e B0FBF5F5 		udiv	r5, r0, r5
 2157 0022 1920     		movs	r0, #25
 2158 0024 6843     		muls	r0, r5, r0
 2159 0026 0190     		str	r0, [sp, #4]
 2160              	.L328:
 2161 0028 0198     		ldr	r0, [sp, #4]
 2162 002a 0138     		subs	r0, r0, #1
 2163 002c 0190     		str	r0, [sp, #4]
 2164 002e 0198     		ldr	r0, [sp, #4]
 2165 0030 68B9     		cbnz	r0, .L327
 2166 0032 2023     		movs	r3, #32
 2167 0034 2063     		str	r0, [r4, #48]
 2168 0036 84F83D30 		strb	r3, [r4, #61]
 2169 003a 84F83E00 		strb	r0, [r4, #62]
 2170 003e 236C     		ldr	r3, [r4, #64]
 2171 0040 84F83C00 		strb	r0, [r4, #60]
 2172 0044 43F02003 		orr	r3, r3, #32
 2173 0048 2364     		str	r3, [r4, #64]
 2174              	.L337:
 2175 004a 0120     		movs	r0, #1
 2176 004c E1E7     		b	.L326
 2177              	.L327:
 2178 004e 2568     		ldr	r5, [r4]
 2179 0050 A869     		ldr	r0, [r5, #24]
 2180 0052 8607     		lsls	r6, r0, #30
 2181 0054 E8D4     		bmi	.L328
 2182 0056 94F83C00 		ldrb	r0, [r4, #60]	@ zero_extendqisi2
 2183 005a 0128     		cmp	r0, #1
 2184 005c D8D0     		beq	.L329
 2185 005e 0120     		movs	r0, #1
 2186 0060 84F83C00 		strb	r0, [r4, #60]
 2187 0064 2868     		ldr	r0, [r5]
 2188 0066 0026     		movs	r6, #0
 2189 0068 C007     		lsls	r0, r0, #31
 2190 006a 5EBF     		ittt	pl
 2191 006c 2868     		ldrpl	r0, [r5]
 2192 006e 40F00100 		orrpl	r0, r0, #1
 2193 0072 2860     		strpl	r0, [r5]
 2194 0074 2868     		ldr	r0, [r5]
 2195 0076 20F40060 		bic	r0, r0, #2048
 2196 007a 2860     		str	r0, [r5]
 2197 007c 2220     		movs	r0, #34
 2198 007e 84F83D00 		strb	r0, [r4, #61]
 2199 0082 1020     		movs	r0, #16
 2200 0084 84F83E00 		strb	r0, [r4, #62]
 2201 0088 2664     		str	r6, [r4, #64]
 2202 008a 6385     		strh	r3, [r4, #42]	@ movhi
 2203 008c 608D     		ldrh	r0, [r4, #42]
 2204 008e 6262     		str	r2, [r4, #36]
 2205 0090 83B2     		uxth	r3, r0
 2206 0092 2148     		ldr	r0, .L338+4
 2207 0094 2385     		strh	r3, [r4, #40]	@ movhi
 2208 0096 E062     		str	r0, [r4, #44]
 2209 0098 6164     		str	r1, [r4, #68]
ARM GAS  /tmp/cc5JP12Q.s 			page 39


 2210 009a 5BB3     		cbz	r3, .L331
 2211 009c A06B     		ldr	r0, [r4, #56]
 2212 009e 1F49     		ldr	r1, .L338+8
 2213 00a0 C662     		str	r6, [r0, #44]
 2214 00a2 8162     		str	r1, [r0, #40]
 2215 00a4 1E49     		ldr	r1, .L338+12
 2216 00a6 4663     		str	r6, [r0, #52]
 2217 00a8 0163     		str	r1, [r0, #48]
 2218 00aa 05F11001 		add	r1, r5, #16
 2219 00ae FFF7FEFF 		bl	HAL_DMA_Start_IT
 2220 00b2 98B9     		cbnz	r0, .L332
 2221 00b4 2368     		ldr	r3, [r4]
 2222 00b6 1A68     		ldr	r2, [r3]
 2223 00b8 42F48062 		orr	r2, r2, #1024
 2224 00bc 1A60     		str	r2, [r3]
 2225 00be 1A68     		ldr	r2, [r3]
 2226 00c0 42F48072 		orr	r2, r2, #256
 2227 00c4 1A60     		str	r2, [r3]
 2228 00c6 5A68     		ldr	r2, [r3, #4]
 2229 00c8 84F83C00 		strb	r0, [r4, #60]
 2230 00cc 42F44072 		orr	r2, r2, #768
 2231 00d0 5A60     		str	r2, [r3, #4]
 2232 00d2 5A68     		ldr	r2, [r3, #4]
 2233 00d4 42F40062 		orr	r2, r2, #2048
 2234 00d8 5A60     		str	r2, [r3, #4]
 2235 00da 9AE7     		b	.L326
 2236              	.L332:
 2237 00dc 2023     		movs	r3, #32
 2238 00de 84F83D30 		strb	r3, [r4, #61]
 2239 00e2 84F83E60 		strb	r6, [r4, #62]
 2240 00e6 236C     		ldr	r3, [r4, #64]
 2241 00e8 84F83C60 		strb	r6, [r4, #60]
 2242 00ec 43F01003 		orr	r3, r3, #16
 2243 00f0 2364     		str	r3, [r4, #64]
 2244 00f2 AAE7     		b	.L337
 2245              	.L331:
 2246 00f4 2A68     		ldr	r2, [r5]
 2247 00f6 1846     		mov	r0, r3
 2248 00f8 42F48062 		orr	r2, r2, #1024
 2249 00fc 2A60     		str	r2, [r5]
 2250 00fe 2A68     		ldr	r2, [r5]
 2251 0100 42F48072 		orr	r2, r2, #256
 2252 0104 2A60     		str	r2, [r5]
 2253 0106 6A68     		ldr	r2, [r5, #4]
 2254 0108 84F83C30 		strb	r3, [r4, #60]
 2255 010c 42F4E062 		orr	r2, r2, #1792
 2256 0110 6A60     		str	r2, [r5, #4]
 2257 0112 7EE7     		b	.L326
 2258              	.L339:
 2259              		.align	2
 2260              	.L338:
 2261 0114 00000000 		.word	SystemCoreClock
 2262 0118 0000FFFF 		.word	-65536
 2263 011c 00000000 		.word	I2C_DMAXferCplt
 2264 0120 00000000 		.word	I2C_DMAError
 2266              		.section	.text.HAL_I2C_Slave_Transmit_DMA,"ax",%progbits
 2267              		.align	1
ARM GAS  /tmp/cc5JP12Q.s 			page 40


 2268              		.global	HAL_I2C_Slave_Transmit_DMA
 2269              		.syntax unified
 2270              		.thumb
 2271              		.thumb_func
 2272              		.fpu softvfp
 2274              	HAL_I2C_Slave_Transmit_DMA:
 2275              		@ args = 0, pretend = 0, frame = 0
 2276              		@ frame_needed = 0, uses_anonymous_args = 0
 2277 0000 F8B5     		push	{r3, r4, r5, r6, r7, lr}
 2278 0002 90F83D30 		ldrb	r3, [r0, #61]	@ zero_extendqisi2
 2279 0006 0446     		mov	r4, r0
 2280 0008 202B     		cmp	r3, #32
 2281 000a 1746     		mov	r7, r2
 2282 000c 4ED1     		bne	.L347
 2283 000e 0029     		cmp	r1, #0
 2284 0010 4AD0     		beq	.L346
 2285 0012 002A     		cmp	r2, #0
 2286 0014 48D0     		beq	.L346
 2287 0016 90F83C30 		ldrb	r3, [r0, #60]	@ zero_extendqisi2
 2288 001a 012B     		cmp	r3, #1
 2289 001c 46D0     		beq	.L347
 2290 001e 0123     		movs	r3, #1
 2291 0020 80F83C30 		strb	r3, [r0, #60]
 2292 0024 0368     		ldr	r3, [r0]
 2293 0026 0025     		movs	r5, #0
 2294 0028 1A68     		ldr	r2, [r3]
 2295 002a 2026     		movs	r6, #32
 2296 002c D207     		lsls	r2, r2, #31
 2297 002e 58BF     		it	pl
 2298 0030 1868     		ldrpl	r0, [r3]
 2299 0032 1A46     		mov	r2, r3
 2300 0034 5CBF     		itt	pl
 2301 0036 40F00100 		orrpl	r0, r0, #1
 2302 003a 1860     		strpl	r0, [r3]
 2303 003c 1868     		ldr	r0, [r3]
 2304 003e 2123     		movs	r3, #33
 2305 0040 20F40060 		bic	r0, r0, #2048
 2306 0044 42F8100B 		str	r0, [r2], #16
 2307 0048 84F83D30 		strb	r3, [r4, #61]
 2308 004c 1848     		ldr	r0, .L348
 2309 004e 84F83E60 		strb	r6, [r4, #62]
 2310 0052 2564     		str	r5, [r4, #64]
 2311 0054 6785     		strh	r7, [r4, #42]	@ movhi
 2312 0056 638D     		ldrh	r3, [r4, #42]
 2313 0058 164F     		ldr	r7, .L348+4
 2314 005a E062     		str	r0, [r4, #44]
 2315 005c 606B     		ldr	r0, [r4, #52]
 2316 005e 9BB2     		uxth	r3, r3
 2317 0060 6162     		str	r1, [r4, #36]
 2318 0062 2385     		strh	r3, [r4, #40]	@ movhi
 2319 0064 8762     		str	r7, [r0, #40]
 2320 0066 144F     		ldr	r7, .L348+8
 2321 0068 C562     		str	r5, [r0, #44]
 2322 006a 0763     		str	r7, [r0, #48]
 2323 006c 4563     		str	r5, [r0, #52]
 2324 006e FFF7FEFF 		bl	HAL_DMA_Start_IT
 2325 0072 78B9     		cbnz	r0, .L343
ARM GAS  /tmp/cc5JP12Q.s 			page 41


 2326 0074 2368     		ldr	r3, [r4]
 2327 0076 1A68     		ldr	r2, [r3]
 2328 0078 42F48062 		orr	r2, r2, #1024
 2329 007c 1A60     		str	r2, [r3]
 2330 007e 5A68     		ldr	r2, [r3, #4]
 2331 0080 84F83C00 		strb	r0, [r4, #60]
 2332 0084 42F44072 		orr	r2, r2, #768
 2333 0088 5A60     		str	r2, [r3, #4]
 2334 008a 5A68     		ldr	r2, [r3, #4]
 2335 008c 42F40062 		orr	r2, r2, #2048
 2336 0090 5A60     		str	r2, [r3, #4]
 2337 0092 F8BD     		pop	{r3, r4, r5, r6, r7, pc}
 2338              	.L343:
 2339 0094 84F83D60 		strb	r6, [r4, #61]
 2340 0098 84F83E50 		strb	r5, [r4, #62]
 2341 009c 236C     		ldr	r3, [r4, #64]
 2342 009e 84F83C50 		strb	r5, [r4, #60]
 2343 00a2 43F01003 		orr	r3, r3, #16
 2344 00a6 2364     		str	r3, [r4, #64]
 2345              	.L346:
 2346 00a8 0120     		movs	r0, #1
 2347 00aa F8BD     		pop	{r3, r4, r5, r6, r7, pc}
 2348              	.L347:
 2349 00ac 0220     		movs	r0, #2
 2350 00ae F8BD     		pop	{r3, r4, r5, r6, r7, pc}
 2351              	.L349:
 2352              		.align	2
 2353              	.L348:
 2354 00b0 0000FFFF 		.word	-65536
 2355 00b4 00000000 		.word	I2C_DMAXferCplt
 2356 00b8 00000000 		.word	I2C_DMAError
 2358              		.section	.text.HAL_I2C_Slave_Receive_DMA,"ax",%progbits
 2359              		.align	1
 2360              		.global	HAL_I2C_Slave_Receive_DMA
 2361              		.syntax unified
 2362              		.thumb
 2363              		.thumb_func
 2364              		.fpu softvfp
 2366              	HAL_I2C_Slave_Receive_DMA:
 2367              		@ args = 0, pretend = 0, frame = 0
 2368              		@ frame_needed = 0, uses_anonymous_args = 0
 2369 0000 F8B5     		push	{r3, r4, r5, r6, r7, lr}
 2370 0002 90F83D30 		ldrb	r3, [r0, #61]	@ zero_extendqisi2
 2371 0006 0446     		mov	r4, r0
 2372 0008 202B     		cmp	r3, #32
 2373 000a 0F46     		mov	r7, r1
 2374 000c 4ED1     		bne	.L357
 2375 000e 0029     		cmp	r1, #0
 2376 0010 4AD0     		beq	.L356
 2377 0012 002A     		cmp	r2, #0
 2378 0014 48D0     		beq	.L356
 2379 0016 90F83C30 		ldrb	r3, [r0, #60]	@ zero_extendqisi2
 2380 001a 012B     		cmp	r3, #1
 2381 001c 46D0     		beq	.L357
 2382 001e 0123     		movs	r3, #1
 2383 0020 80F83C30 		strb	r3, [r0, #60]
 2384 0024 0368     		ldr	r3, [r0]
ARM GAS  /tmp/cc5JP12Q.s 			page 42


 2385 0026 0025     		movs	r5, #0
 2386 0028 1968     		ldr	r1, [r3]
 2387 002a 2026     		movs	r6, #32
 2388 002c C907     		lsls	r1, r1, #31
 2389 002e 5EBF     		ittt	pl
 2390 0030 1968     		ldrpl	r1, [r3]
 2391 0032 41F00101 		orrpl	r1, r1, #1
 2392 0036 1960     		strpl	r1, [r3]
 2393 0038 1868     		ldr	r0, [r3]
 2394 003a 1946     		mov	r1, r3
 2395 003c 2223     		movs	r3, #34
 2396 003e 20F40060 		bic	r0, r0, #2048
 2397 0042 41F8100B 		str	r0, [r1], #16
 2398 0046 84F83D30 		strb	r3, [r4, #61]
 2399 004a 84F83E60 		strb	r6, [r4, #62]
 2400 004e 2564     		str	r5, [r4, #64]
 2401 0050 6285     		strh	r2, [r4, #42]	@ movhi
 2402 0052 174A     		ldr	r2, .L358
 2403 0054 638D     		ldrh	r3, [r4, #42]
 2404 0056 A06B     		ldr	r0, [r4, #56]
 2405 0058 E262     		str	r2, [r4, #44]
 2406 005a 164A     		ldr	r2, .L358+4
 2407 005c 9BB2     		uxth	r3, r3
 2408 005e 6762     		str	r7, [r4, #36]
 2409 0060 2385     		strh	r3, [r4, #40]	@ movhi
 2410 0062 8262     		str	r2, [r0, #40]
 2411 0064 144A     		ldr	r2, .L358+8
 2412 0066 C562     		str	r5, [r0, #44]
 2413 0068 0263     		str	r2, [r0, #48]
 2414 006a 4563     		str	r5, [r0, #52]
 2415 006c 3A46     		mov	r2, r7
 2416 006e FFF7FEFF 		bl	HAL_DMA_Start_IT
 2417 0072 78B9     		cbnz	r0, .L353
 2418 0074 2368     		ldr	r3, [r4]
 2419 0076 1A68     		ldr	r2, [r3]
 2420 0078 42F48062 		orr	r2, r2, #1024
 2421 007c 1A60     		str	r2, [r3]
 2422 007e 5A68     		ldr	r2, [r3, #4]
 2423 0080 84F83C00 		strb	r0, [r4, #60]
 2424 0084 42F44072 		orr	r2, r2, #768
 2425 0088 5A60     		str	r2, [r3, #4]
 2426 008a 5A68     		ldr	r2, [r3, #4]
 2427 008c 42F40062 		orr	r2, r2, #2048
 2428 0090 5A60     		str	r2, [r3, #4]
 2429 0092 F8BD     		pop	{r3, r4, r5, r6, r7, pc}
 2430              	.L353:
 2431 0094 84F83D60 		strb	r6, [r4, #61]
 2432 0098 84F83E50 		strb	r5, [r4, #62]
 2433 009c 236C     		ldr	r3, [r4, #64]
 2434 009e 84F83C50 		strb	r5, [r4, #60]
 2435 00a2 43F01003 		orr	r3, r3, #16
 2436 00a6 2364     		str	r3, [r4, #64]
 2437              	.L356:
 2438 00a8 0120     		movs	r0, #1
 2439 00aa F8BD     		pop	{r3, r4, r5, r6, r7, pc}
 2440              	.L357:
 2441 00ac 0220     		movs	r0, #2
ARM GAS  /tmp/cc5JP12Q.s 			page 43


 2442 00ae F8BD     		pop	{r3, r4, r5, r6, r7, pc}
 2443              	.L359:
 2444              		.align	2
 2445              	.L358:
 2446 00b0 0000FFFF 		.word	-65536
 2447 00b4 00000000 		.word	I2C_DMAXferCplt
 2448 00b8 00000000 		.word	I2C_DMAError
 2450              		.section	.text.HAL_I2C_Mem_Write,"ax",%progbits
 2451              		.align	1
 2452              		.global	HAL_I2C_Mem_Write
 2453              		.syntax unified
 2454              		.thumb
 2455              		.thumb_func
 2456              		.fpu softvfp
 2458              	HAL_I2C_Mem_Write:
 2459              		@ args = 12, pretend = 0, frame = 0
 2460              		@ frame_needed = 0, uses_anonymous_args = 0
 2461 0000 2DE9F743 		push	{r0, r1, r2, r4, r5, r6, r7, r8, r9, lr}
 2462 0004 0446     		mov	r4, r0
 2463 0006 9946     		mov	r9, r3
 2464 0008 0F46     		mov	r7, r1
 2465 000a 9046     		mov	r8, r2
 2466 000c 0C9E     		ldr	r6, [sp, #48]
 2467 000e FFF7FEFF 		bl	HAL_GetTick
 2468 0012 94F83D30 		ldrb	r3, [r4, #61]	@ zero_extendqisi2
 2469 0016 0546     		mov	r5, r0
 2470 0018 202B     		cmp	r3, #32
 2471 001a 03D0     		beq	.L361
 2472              	.L363:
 2473 001c 0220     		movs	r0, #2
 2474              	.L362:
 2475 001e 03B0     		add	sp, sp, #12
 2476              		@ sp needed
 2477 0020 BDE8F083 		pop	{r4, r5, r6, r7, r8, r9, pc}
 2478              	.L361:
 2479 0024 0090     		str	r0, [sp]
 2480 0026 1923     		movs	r3, #25
 2481 0028 0122     		movs	r2, #1
 2482 002a 3B49     		ldr	r1, .L386
 2483 002c 2046     		mov	r0, r4
 2484 002e FFF7FEFF 		bl	I2C_WaitOnFlagUntilTimeout
 2485 0032 0028     		cmp	r0, #0
 2486 0034 F2D1     		bne	.L363
 2487 0036 94F83C30 		ldrb	r3, [r4, #60]	@ zero_extendqisi2
 2488 003a 012B     		cmp	r3, #1
 2489 003c EED0     		beq	.L363
 2490 003e 0123     		movs	r3, #1
 2491 0040 84F83C30 		strb	r3, [r4, #60]
 2492 0044 2368     		ldr	r3, [r4]
 2493 0046 2046     		mov	r0, r4
 2494 0048 1A68     		ldr	r2, [r3]
 2495 004a D107     		lsls	r1, r2, #31
 2496 004c 58BF     		it	pl
 2497 004e 1A68     		ldrpl	r2, [r3]
 2498 0050 3946     		mov	r1, r7
 2499 0052 5CBF     		itt	pl
 2500 0054 42F00102 		orrpl	r2, r2, #1
ARM GAS  /tmp/cc5JP12Q.s 			page 44


 2501 0058 1A60     		strpl	r2, [r3]
 2502 005a 1A68     		ldr	r2, [r3]
 2503 005c 22F40062 		bic	r2, r2, #2048
 2504 0060 1A60     		str	r2, [r3]
 2505 0062 2123     		movs	r3, #33
 2506 0064 84F83D30 		strb	r3, [r4, #61]
 2507 0068 4023     		movs	r3, #64
 2508 006a 84F83E30 		strb	r3, [r4, #62]
 2509 006e 0023     		movs	r3, #0
 2510 0070 2364     		str	r3, [r4, #64]
 2511 0072 0A9B     		ldr	r3, [sp, #40]
 2512 0074 0195     		str	r5, [sp, #4]
 2513 0076 6362     		str	r3, [r4, #36]
 2514 0078 BDF82C30 		ldrh	r3, [sp, #44]
 2515 007c 0096     		str	r6, [sp]
 2516 007e 6385     		strh	r3, [r4, #42]	@ movhi
 2517 0080 638D     		ldrh	r3, [r4, #42]
 2518 0082 4246     		mov	r2, r8
 2519 0084 2385     		strh	r3, [r4, #40]	@ movhi
 2520 0086 254B     		ldr	r3, .L386+4
 2521 0088 E362     		str	r3, [r4, #44]
 2522 008a 4B46     		mov	r3, r9
 2523 008c FFF7FEFF 		bl	I2C_RequestMemoryWrite
 2524 0090 0028     		cmp	r0, #0
 2525 0092 2AD0     		beq	.L365
 2526              	.L383:
 2527 0094 0120     		movs	r0, #1
 2528 0096 C2E7     		b	.L362
 2529              	.L369:
 2530 0098 FFF7FEFF 		bl	I2C_WaitOnTXEFlagUntilTimeout
 2531 009c 40B1     		cbz	r0, .L366
 2532              	.L385:
 2533 009e 236C     		ldr	r3, [r4, #64]
 2534 00a0 042B     		cmp	r3, #4
 2535 00a2 01BF     		itttt	eq
 2536 00a4 2268     		ldreq	r2, [r4]
 2537 00a6 1368     		ldreq	r3, [r2]
 2538 00a8 43F40073 		orreq	r3, r3, #512
 2539 00ac 1360     		streq	r3, [r2]
 2540 00ae F1E7     		b	.L383
 2541              	.L366:
 2542 00b0 636A     		ldr	r3, [r4, #36]
 2543 00b2 2768     		ldr	r7, [r4]
 2544 00b4 1A46     		mov	r2, r3
 2545 00b6 12F8011B 		ldrb	r1, [r2], #1	@ zero_extendqisi2
 2546 00ba 3961     		str	r1, [r7, #16]
 2547 00bc 6262     		str	r2, [r4, #36]
 2548 00be 628D     		ldrh	r2, [r4, #42]
 2549 00c0 218D     		ldrh	r1, [r4, #40]
 2550 00c2 013A     		subs	r2, r2, #1
 2551 00c4 92B2     		uxth	r2, r2
 2552 00c6 6285     		strh	r2, [r4, #42]	@ movhi
 2553 00c8 7A69     		ldr	r2, [r7, #20]
 2554 00ca 481E     		subs	r0, r1, #1
 2555 00cc 80B2     		uxth	r0, r0
 2556 00ce 5207     		lsls	r2, r2, #29
 2557 00d0 2085     		strh	r0, [r4, #40]	@ movhi
ARM GAS  /tmp/cc5JP12Q.s 			page 45


 2558 00d2 0AD5     		bpl	.L365
 2559 00d4 48B1     		cbz	r0, .L365
 2560 00d6 5A78     		ldrb	r2, [r3, #1]	@ zero_extendqisi2
 2561 00d8 0233     		adds	r3, r3, #2
 2562 00da 3A61     		str	r2, [r7, #16]
 2563 00dc 6362     		str	r3, [r4, #36]
 2564 00de 638D     		ldrh	r3, [r4, #42]
 2565 00e0 0239     		subs	r1, r1, #2
 2566 00e2 013B     		subs	r3, r3, #1
 2567 00e4 9BB2     		uxth	r3, r3
 2568 00e6 2185     		strh	r1, [r4, #40]	@ movhi
 2569 00e8 6385     		strh	r3, [r4, #42]	@ movhi
 2570              	.L365:
 2571 00ea 238D     		ldrh	r3, [r4, #40]
 2572 00ec 2A46     		mov	r2, r5
 2573 00ee 3146     		mov	r1, r6
 2574 00f0 2046     		mov	r0, r4
 2575 00f2 002B     		cmp	r3, #0
 2576 00f4 D0D1     		bne	.L369
 2577 00f6 FFF7FEFF 		bl	I2C_WaitOnBTFFlagUntilTimeout
 2578 00fa 0028     		cmp	r0, #0
 2579 00fc CFD1     		bne	.L385
 2580 00fe 2268     		ldr	r2, [r4]
 2581 0100 1368     		ldr	r3, [r2]
 2582 0102 43F40073 		orr	r3, r3, #512
 2583 0106 1360     		str	r3, [r2]
 2584 0108 2023     		movs	r3, #32
 2585 010a 84F83C00 		strb	r0, [r4, #60]
 2586 010e 84F83D30 		strb	r3, [r4, #61]
 2587 0112 84F83E00 		strb	r0, [r4, #62]
 2588 0116 82E7     		b	.L362
 2589              	.L387:
 2590              		.align	2
 2591              	.L386:
 2592 0118 02001000 		.word	1048578
 2593 011c 0000FFFF 		.word	-65536
 2595              		.section	.text.HAL_I2C_Mem_Read,"ax",%progbits
 2596              		.align	1
 2597              		.global	HAL_I2C_Mem_Read
 2598              		.syntax unified
 2599              		.thumb
 2600              		.thumb_func
 2601              		.fpu softvfp
 2603              	HAL_I2C_Mem_Read:
 2604              		@ args = 12, pretend = 0, frame = 16
 2605              		@ frame_needed = 0, uses_anonymous_args = 0
 2606 0000 2DE9F043 		push	{r4, r5, r6, r7, r8, r9, lr}
 2607 0004 0446     		mov	r4, r0
 2608 0006 87B0     		sub	sp, sp, #28
 2609 0008 9946     		mov	r9, r3
 2610 000a 0D46     		mov	r5, r1
 2611 000c 9046     		mov	r8, r2
 2612 000e 109F     		ldr	r7, [sp, #64]
 2613 0010 FFF7FEFF 		bl	HAL_GetTick
 2614 0014 94F83D30 		ldrb	r3, [r4, #61]	@ zero_extendqisi2
 2615 0018 0646     		mov	r6, r0
 2616 001a 202B     		cmp	r3, #32
ARM GAS  /tmp/cc5JP12Q.s 			page 46


 2617 001c 04D0     		beq	.L389
 2618              	.L391:
 2619 001e 0225     		movs	r5, #2
 2620              	.L390:
 2621 0020 2846     		mov	r0, r5
 2622 0022 07B0     		add	sp, sp, #28
 2623              		@ sp needed
 2624 0024 BDE8F083 		pop	{r4, r5, r6, r7, r8, r9, pc}
 2625              	.L389:
 2626 0028 0090     		str	r0, [sp]
 2627 002a 1923     		movs	r3, #25
 2628 002c 0122     		movs	r2, #1
 2629 002e 7E49     		ldr	r1, .L416
 2630 0030 2046     		mov	r0, r4
 2631 0032 FFF7FEFF 		bl	I2C_WaitOnFlagUntilTimeout
 2632 0036 0028     		cmp	r0, #0
 2633 0038 F1D1     		bne	.L391
 2634 003a 94F83C30 		ldrb	r3, [r4, #60]	@ zero_extendqisi2
 2635 003e 012B     		cmp	r3, #1
 2636 0040 EDD0     		beq	.L391
 2637 0042 0123     		movs	r3, #1
 2638 0044 84F83C30 		strb	r3, [r4, #60]
 2639 0048 2368     		ldr	r3, [r4]
 2640 004a 2946     		mov	r1, r5
 2641 004c 1A68     		ldr	r2, [r3]
 2642 004e D007     		lsls	r0, r2, #31
 2643 0050 58BF     		it	pl
 2644 0052 1A68     		ldrpl	r2, [r3]
 2645 0054 2046     		mov	r0, r4
 2646 0056 5CBF     		itt	pl
 2647 0058 42F00102 		orrpl	r2, r2, #1
 2648 005c 1A60     		strpl	r2, [r3]
 2649 005e 1A68     		ldr	r2, [r3]
 2650 0060 22F40062 		bic	r2, r2, #2048
 2651 0064 1A60     		str	r2, [r3]
 2652 0066 2223     		movs	r3, #34
 2653 0068 84F83D30 		strb	r3, [r4, #61]
 2654 006c 4023     		movs	r3, #64
 2655 006e 84F83E30 		strb	r3, [r4, #62]
 2656 0072 0023     		movs	r3, #0
 2657 0074 2364     		str	r3, [r4, #64]
 2658 0076 0E9B     		ldr	r3, [sp, #56]
 2659 0078 0196     		str	r6, [sp, #4]
 2660 007a 6362     		str	r3, [r4, #36]
 2661 007c BDF83C30 		ldrh	r3, [sp, #60]
 2662 0080 0097     		str	r7, [sp]
 2663 0082 6385     		strh	r3, [r4, #42]	@ movhi
 2664 0084 638D     		ldrh	r3, [r4, #42]
 2665 0086 4246     		mov	r2, r8
 2666 0088 2385     		strh	r3, [r4, #40]	@ movhi
 2667 008a 684B     		ldr	r3, .L416+4
 2668 008c E362     		str	r3, [r4, #44]
 2669 008e 4B46     		mov	r3, r9
 2670 0090 FFF7FEFF 		bl	I2C_RequestMemoryRead
 2671 0094 0546     		mov	r5, r0
 2672 0096 08B1     		cbz	r0, .L393
 2673              	.L402:
ARM GAS  /tmp/cc5JP12Q.s 			page 47


 2674 0098 0125     		movs	r5, #1
 2675 009a C1E7     		b	.L390
 2676              	.L393:
 2677 009c 228D     		ldrh	r2, [r4, #40]
 2678 009e 2368     		ldr	r3, [r4]
 2679 00a0 92B9     		cbnz	r2, .L394
 2680 00a2 0290     		str	r0, [sp, #8]
 2681 00a4 5A69     		ldr	r2, [r3, #20]
 2682 00a6 0292     		str	r2, [sp, #8]
 2683 00a8 9A69     		ldr	r2, [r3, #24]
 2684 00aa 0292     		str	r2, [sp, #8]
 2685 00ac 029A     		ldr	r2, [sp, #8]
 2686 00ae 1A68     		ldr	r2, [r3]
 2687 00b0 42F40072 		orr	r2, r2, #512
 2688 00b4 1A60     		str	r2, [r3]
 2689              	.L395:
 2690 00b6 2023     		movs	r3, #32
 2691 00b8 84F83D30 		strb	r3, [r4, #61]
 2692 00bc 0023     		movs	r3, #0
 2693 00be 84F83E30 		strb	r3, [r4, #62]
 2694 00c2 84F83C30 		strb	r3, [r4, #60]
 2695 00c6 ABE7     		b	.L390
 2696              	.L394:
 2697 00c8 012A     		cmp	r2, #1
 2698 00ca 2FD1     		bne	.L396
 2699 00cc 1A68     		ldr	r2, [r3]
 2700 00ce 22F48062 		bic	r2, r2, #1024
 2701 00d2 1A60     		str	r2, [r3]
 2702              		.syntax unified
 2703              	@ 142 "./cmsis/inc/cmsis_gcc.h" 1
 2704 00d4 72B6     		cpsid i
 2705              	@ 0 "" 2
 2706              		.thumb
 2707              		.syntax unified
 2708 00d6 2368     		ldr	r3, [r4]
 2709 00d8 0390     		str	r0, [sp, #12]
 2710 00da 5A69     		ldr	r2, [r3, #20]
 2711 00dc 0392     		str	r2, [sp, #12]
 2712 00de 9A69     		ldr	r2, [r3, #24]
 2713 00e0 0392     		str	r2, [sp, #12]
 2714 00e2 039A     		ldr	r2, [sp, #12]
 2715 00e4 1A68     		ldr	r2, [r3]
 2716 00e6 42F40072 		orr	r2, r2, #512
 2717              	.L412:
 2718 00ea 1A60     		str	r2, [r3]
 2719              		.syntax unified
 2720              	@ 131 "./cmsis/inc/cmsis_gcc.h" 1
 2721 00ec 62B6     		cpsie i
 2722              	@ 0 "" 2
 2723              		.thumb
 2724              		.syntax unified
 2725              	.L397:
 2726 00ee DFF84081 		ldr	r8, .L416+8
 2727              	.L399:
 2728 00f2 238D     		ldrh	r3, [r4, #40]
 2729 00f4 002B     		cmp	r3, #0
 2730 00f6 DED0     		beq	.L395
ARM GAS  /tmp/cc5JP12Q.s 			page 48


 2731 00f8 032B     		cmp	r3, #3
 2732 00fa 77D8     		bhi	.L400
 2733 00fc 012B     		cmp	r3, #1
 2734 00fe 31D1     		bne	.L401
 2735 0100 3246     		mov	r2, r6
 2736 0102 3946     		mov	r1, r7
 2737 0104 2046     		mov	r0, r4
 2738 0106 FFF7FEFF 		bl	I2C_WaitOnRXNEFlagUntilTimeout
 2739 010a 0028     		cmp	r0, #0
 2740 010c C4D1     		bne	.L402
 2741              	.L414:
 2742 010e 2268     		ldr	r2, [r4]
 2743 0110 636A     		ldr	r3, [r4, #36]
 2744 0112 1269     		ldr	r2, [r2, #16]
 2745 0114 1A70     		strb	r2, [r3]
 2746              	.L413:
 2747 0116 636A     		ldr	r3, [r4, #36]
 2748 0118 0133     		adds	r3, r3, #1
 2749 011a 6362     		str	r3, [r4, #36]
 2750 011c 238D     		ldrh	r3, [r4, #40]
 2751 011e 013B     		subs	r3, r3, #1
 2752 0120 2385     		strh	r3, [r4, #40]	@ movhi
 2753 0122 638D     		ldrh	r3, [r4, #42]
 2754 0124 013B     		subs	r3, r3, #1
 2755 0126 9BB2     		uxth	r3, r3
 2756 0128 6385     		strh	r3, [r4, #42]	@ movhi
 2757 012a E2E7     		b	.L399
 2758              	.L396:
 2759 012c 022A     		cmp	r2, #2
 2760 012e 1A68     		ldr	r2, [r3]
 2761 0130 0ED1     		bne	.L398
 2762 0132 42F40062 		orr	r2, r2, #2048
 2763 0136 1A60     		str	r2, [r3]
 2764              		.syntax unified
 2765              	@ 142 "./cmsis/inc/cmsis_gcc.h" 1
 2766 0138 72B6     		cpsid i
 2767              	@ 0 "" 2
 2768              		.thumb
 2769              		.syntax unified
 2770 013a 2368     		ldr	r3, [r4]
 2771 013c 0490     		str	r0, [sp, #16]
 2772 013e 5A69     		ldr	r2, [r3, #20]
 2773 0140 0492     		str	r2, [sp, #16]
 2774 0142 9A69     		ldr	r2, [r3, #24]
 2775 0144 0492     		str	r2, [sp, #16]
 2776 0146 049A     		ldr	r2, [sp, #16]
 2777 0148 1A68     		ldr	r2, [r3]
 2778 014a 22F48062 		bic	r2, r2, #1024
 2779 014e CCE7     		b	.L412
 2780              	.L398:
 2781 0150 42F48062 		orr	r2, r2, #1024
 2782 0154 1A60     		str	r2, [r3]
 2783 0156 0590     		str	r0, [sp, #20]
 2784 0158 5A69     		ldr	r2, [r3, #20]
 2785 015a 0592     		str	r2, [sp, #20]
 2786 015c 9B69     		ldr	r3, [r3, #24]
 2787 015e 0593     		str	r3, [sp, #20]
ARM GAS  /tmp/cc5JP12Q.s 			page 49


 2788 0160 059B     		ldr	r3, [sp, #20]
 2789 0162 C4E7     		b	.L397
 2790              	.L401:
 2791 0164 022B     		cmp	r3, #2
 2792 0166 0096     		str	r6, [sp]
 2793 0168 3B46     		mov	r3, r7
 2794 016a 4FF00002 		mov	r2, #0
 2795 016e 4146     		mov	r1, r8
 2796 0170 2046     		mov	r0, r4
 2797 0172 18D1     		bne	.L404
 2798 0174 FFF7FEFF 		bl	I2C_WaitOnFlagUntilTimeout
 2799 0178 0028     		cmp	r0, #0
 2800 017a 8DD1     		bne	.L402
 2801              		.syntax unified
 2802              	@ 142 "./cmsis/inc/cmsis_gcc.h" 1
 2803 017c 72B6     		cpsid i
 2804              	@ 0 "" 2
 2805              		.thumb
 2806              		.syntax unified
 2807              	.L415:
 2808 017e 2368     		ldr	r3, [r4]
 2809 0180 1A68     		ldr	r2, [r3]
 2810 0182 42F40072 		orr	r2, r2, #512
 2811 0186 1A60     		str	r2, [r3]
 2812 0188 1B69     		ldr	r3, [r3, #16]
 2813 018a 626A     		ldr	r2, [r4, #36]
 2814 018c 1370     		strb	r3, [r2]
 2815 018e 636A     		ldr	r3, [r4, #36]
 2816 0190 0133     		adds	r3, r3, #1
 2817 0192 6362     		str	r3, [r4, #36]
 2818 0194 238D     		ldrh	r3, [r4, #40]
 2819 0196 013B     		subs	r3, r3, #1
 2820 0198 2385     		strh	r3, [r4, #40]	@ movhi
 2821 019a 638D     		ldrh	r3, [r4, #42]
 2822 019c 013B     		subs	r3, r3, #1
 2823 019e 9BB2     		uxth	r3, r3
 2824 01a0 6385     		strh	r3, [r4, #42]	@ movhi
 2825              		.syntax unified
 2826              	@ 131 "./cmsis/inc/cmsis_gcc.h" 1
 2827 01a2 62B6     		cpsie i
 2828              	@ 0 "" 2
 2829              		.thumb
 2830              		.syntax unified
 2831 01a4 B3E7     		b	.L414
 2832              	.L404:
 2833 01a6 FFF7FEFF 		bl	I2C_WaitOnFlagUntilTimeout
 2834 01aa 0246     		mov	r2, r0
 2835 01ac 0028     		cmp	r0, #0
 2836 01ae 7FF473AF 		bne	.L402
 2837 01b2 2168     		ldr	r1, [r4]
 2838 01b4 0B68     		ldr	r3, [r1]
 2839 01b6 23F48063 		bic	r3, r3, #1024
 2840 01ba 0B60     		str	r3, [r1]
 2841              		.syntax unified
 2842              	@ 142 "./cmsis/inc/cmsis_gcc.h" 1
 2843 01bc 72B6     		cpsid i
 2844              	@ 0 "" 2
ARM GAS  /tmp/cc5JP12Q.s 			page 50


 2845              		.thumb
 2846              		.syntax unified
 2847 01be 2168     		ldr	r1, [r4]
 2848 01c0 636A     		ldr	r3, [r4, #36]
 2849 01c2 0969     		ldr	r1, [r1, #16]
 2850 01c4 2046     		mov	r0, r4
 2851 01c6 1970     		strb	r1, [r3]
 2852 01c8 636A     		ldr	r3, [r4, #36]
 2853 01ca 0096     		str	r6, [sp]
 2854 01cc 0133     		adds	r3, r3, #1
 2855 01ce 6362     		str	r3, [r4, #36]
 2856 01d0 238D     		ldrh	r3, [r4, #40]
 2857 01d2 4146     		mov	r1, r8
 2858 01d4 013B     		subs	r3, r3, #1
 2859 01d6 2385     		strh	r3, [r4, #40]	@ movhi
 2860 01d8 638D     		ldrh	r3, [r4, #42]
 2861 01da 013B     		subs	r3, r3, #1
 2862 01dc 9BB2     		uxth	r3, r3
 2863 01de 6385     		strh	r3, [r4, #42]	@ movhi
 2864 01e0 3B46     		mov	r3, r7
 2865 01e2 FFF7FEFF 		bl	I2C_WaitOnFlagUntilTimeout
 2866 01e6 0028     		cmp	r0, #0
 2867 01e8 C9D0     		beq	.L415
 2868 01ea 55E7     		b	.L402
 2869              	.L400:
 2870 01ec 3246     		mov	r2, r6
 2871 01ee 3946     		mov	r1, r7
 2872 01f0 2046     		mov	r0, r4
 2873 01f2 FFF7FEFF 		bl	I2C_WaitOnRXNEFlagUntilTimeout
 2874 01f6 0028     		cmp	r0, #0
 2875 01f8 7FF44EAF 		bne	.L402
 2876 01fc 2268     		ldr	r2, [r4]
 2877 01fe 636A     		ldr	r3, [r4, #36]
 2878 0200 1269     		ldr	r2, [r2, #16]
 2879 0202 1A70     		strb	r2, [r3]
 2880 0204 626A     		ldr	r2, [r4, #36]
 2881 0206 531C     		adds	r3, r2, #1
 2882 0208 6362     		str	r3, [r4, #36]
 2883 020a 238D     		ldrh	r3, [r4, #40]
 2884 020c 013B     		subs	r3, r3, #1
 2885 020e 2385     		strh	r3, [r4, #40]	@ movhi
 2886 0210 638D     		ldrh	r3, [r4, #42]
 2887 0212 013B     		subs	r3, r3, #1
 2888 0214 9BB2     		uxth	r3, r3
 2889 0216 6385     		strh	r3, [r4, #42]	@ movhi
 2890 0218 2368     		ldr	r3, [r4]
 2891 021a 5969     		ldr	r1, [r3, #20]
 2892 021c 4907     		lsls	r1, r1, #29
 2893 021e 7FF568AF 		bpl	.L399
 2894 0222 1B69     		ldr	r3, [r3, #16]
 2895 0224 5370     		strb	r3, [r2, #1]
 2896 0226 76E7     		b	.L413
 2897              	.L417:
 2898              		.align	2
 2899              	.L416:
 2900 0228 02001000 		.word	1048578
 2901 022c 0000FFFF 		.word	-65536
ARM GAS  /tmp/cc5JP12Q.s 			page 51


 2902 0230 04000100 		.word	65540
 2904              		.section	.text.HAL_I2C_Mem_Write_IT,"ax",%progbits
 2905              		.align	1
 2906              		.global	HAL_I2C_Mem_Write_IT
 2907              		.syntax unified
 2908              		.thumb
 2909              		.thumb_func
 2910              		.fpu softvfp
 2912              	HAL_I2C_Mem_Write_IT:
 2913              		@ args = 8, pretend = 0, frame = 8
 2914              		@ frame_needed = 0, uses_anonymous_args = 0
 2915 0000 73B5     		push	{r0, r1, r4, r5, r6, lr}
 2916 0002 0024     		movs	r4, #0
 2917 0004 0194     		str	r4, [sp, #4]
 2918 0006 90F83D40 		ldrb	r4, [r0, #61]	@ zero_extendqisi2
 2919 000a 202C     		cmp	r4, #32
 2920 000c 02D0     		beq	.L419
 2921              	.L423:
 2922 000e 0220     		movs	r0, #2
 2923              	.L420:
 2924 0010 02B0     		add	sp, sp, #8
 2925              		@ sp needed
 2926 0012 70BD     		pop	{r4, r5, r6, pc}
 2927              	.L419:
 2928 0014 46F2A815 		movw	r5, #25000
 2929 0018 284C     		ldr	r4, .L429
 2930 001a 2468     		ldr	r4, [r4]
 2931 001c B4FBF5F5 		udiv	r5, r4, r5
 2932 0020 1924     		movs	r4, #25
 2933 0022 6C43     		muls	r4, r5, r4
 2934 0024 0194     		str	r4, [sp, #4]
 2935              	.L422:
 2936 0026 019C     		ldr	r4, [sp, #4]
 2937 0028 013C     		subs	r4, r4, #1
 2938 002a 0194     		str	r4, [sp, #4]
 2939 002c 019C     		ldr	r4, [sp, #4]
 2940 002e 6CB9     		cbnz	r4, .L421
 2941 0030 2023     		movs	r3, #32
 2942 0032 0463     		str	r4, [r0, #48]
 2943 0034 80F83D30 		strb	r3, [r0, #61]
 2944 0038 80F83E40 		strb	r4, [r0, #62]
 2945 003c 036C     		ldr	r3, [r0, #64]
 2946 003e 80F83C40 		strb	r4, [r0, #60]
 2947 0042 43F02003 		orr	r3, r3, #32
 2948 0046 0364     		str	r3, [r0, #64]
 2949 0048 0120     		movs	r0, #1
 2950 004a E1E7     		b	.L420
 2951              	.L421:
 2952 004c 0468     		ldr	r4, [r0]
 2953 004e A569     		ldr	r5, [r4, #24]
 2954 0050 AE07     		lsls	r6, r5, #30
 2955 0052 E8D4     		bmi	.L422
 2956 0054 90F83C50 		ldrb	r5, [r0, #60]	@ zero_extendqisi2
 2957 0058 012D     		cmp	r5, #1
 2958 005a D8D0     		beq	.L423
 2959 005c 0125     		movs	r5, #1
 2960 005e 80F83C50 		strb	r5, [r0, #60]
ARM GAS  /tmp/cc5JP12Q.s 			page 52


 2961 0062 2568     		ldr	r5, [r4]
 2962 0064 069E     		ldr	r6, [sp, #24]
 2963 0066 ED07     		lsls	r5, r5, #31
 2964 0068 5EBF     		ittt	pl
 2965 006a 2568     		ldrpl	r5, [r4]
 2966 006c 45F00105 		orrpl	r5, r5, #1
 2967 0070 2560     		strpl	r5, [r4]
 2968 0072 2568     		ldr	r5, [r4]
 2969 0074 25F40065 		bic	r5, r5, #2048
 2970 0078 2560     		str	r5, [r4]
 2971 007a 2125     		movs	r5, #33
 2972 007c 80F83D50 		strb	r5, [r0, #61]
 2973 0080 4025     		movs	r5, #64
 2974 0082 80F83E50 		strb	r5, [r0, #62]
 2975 0086 0025     		movs	r5, #0
 2976 0088 4662     		str	r6, [r0, #36]
 2977 008a BDF81C60 		ldrh	r6, [sp, #28]
 2978 008e 0564     		str	r5, [r0, #64]
 2979 0090 4685     		strh	r6, [r0, #42]	@ movhi
 2980 0092 468D     		ldrh	r6, [r0, #42]
 2981 0094 0685     		strh	r6, [r0, #40]	@ movhi
 2982 0096 0A4E     		ldr	r6, .L429+4
 2983 0098 C662     		str	r6, [r0, #44]
 2984 009a 4164     		str	r1, [r0, #68]
 2985 009c 8264     		str	r2, [r0, #72]
 2986 009e C364     		str	r3, [r0, #76]
 2987 00a0 0565     		str	r5, [r0, #80]
 2988 00a2 2368     		ldr	r3, [r4]
 2989 00a4 43F48073 		orr	r3, r3, #256
 2990 00a8 2360     		str	r3, [r4]
 2991 00aa 6368     		ldr	r3, [r4, #4]
 2992 00ac 80F83C50 		strb	r5, [r0, #60]
 2993 00b0 43F4E063 		orr	r3, r3, #1792
 2994 00b4 6360     		str	r3, [r4, #4]
 2995 00b6 2846     		mov	r0, r5
 2996 00b8 AAE7     		b	.L420
 2997              	.L430:
 2998 00ba 00BF     		.align	2
 2999              	.L429:
 3000 00bc 00000000 		.word	SystemCoreClock
 3001 00c0 0000FFFF 		.word	-65536
 3003              		.section	.text.HAL_I2C_Mem_Read_IT,"ax",%progbits
 3004              		.align	1
 3005              		.global	HAL_I2C_Mem_Read_IT
 3006              		.syntax unified
 3007              		.thumb
 3008              		.thumb_func
 3009              		.fpu softvfp
 3011              	HAL_I2C_Mem_Read_IT:
 3012              		@ args = 8, pretend = 0, frame = 8
 3013              		@ frame_needed = 0, uses_anonymous_args = 0
 3014 0000 F7B5     		push	{r0, r1, r2, r4, r5, r6, r7, lr}
 3015 0002 0024     		movs	r4, #0
 3016 0004 0194     		str	r4, [sp, #4]
 3017 0006 90F83D40 		ldrb	r4, [r0, #61]	@ zero_extendqisi2
 3018 000a 202C     		cmp	r4, #32
 3019 000c 02D0     		beq	.L432
ARM GAS  /tmp/cc5JP12Q.s 			page 53


 3020              	.L436:
 3021 000e 0220     		movs	r0, #2
 3022              	.L433:
 3023 0010 03B0     		add	sp, sp, #12
 3024              		@ sp needed
 3025 0012 F0BD     		pop	{r4, r5, r6, r7, pc}
 3026              	.L432:
 3027 0014 46F2A815 		movw	r5, #25000
 3028 0018 2C4C     		ldr	r4, .L443
 3029 001a 2468     		ldr	r4, [r4]
 3030 001c B4FBF5F5 		udiv	r5, r4, r5
 3031 0020 1924     		movs	r4, #25
 3032 0022 6C43     		muls	r4, r5, r4
 3033 0024 0194     		str	r4, [sp, #4]
 3034              	.L435:
 3035 0026 019C     		ldr	r4, [sp, #4]
 3036 0028 013C     		subs	r4, r4, #1
 3037 002a 0194     		str	r4, [sp, #4]
 3038 002c 019C     		ldr	r4, [sp, #4]
 3039 002e 6CB9     		cbnz	r4, .L434
 3040 0030 2023     		movs	r3, #32
 3041 0032 0463     		str	r4, [r0, #48]
 3042 0034 80F83D30 		strb	r3, [r0, #61]
 3043 0038 80F83E40 		strb	r4, [r0, #62]
 3044 003c 036C     		ldr	r3, [r0, #64]
 3045 003e 80F83C40 		strb	r4, [r0, #60]
 3046 0042 43F02003 		orr	r3, r3, #32
 3047 0046 0364     		str	r3, [r0, #64]
 3048 0048 0120     		movs	r0, #1
 3049 004a E1E7     		b	.L433
 3050              	.L434:
 3051 004c 0468     		ldr	r4, [r0]
 3052 004e A569     		ldr	r5, [r4, #24]
 3053 0050 AE07     		lsls	r6, r5, #30
 3054 0052 E8D4     		bmi	.L435
 3055 0054 90F83C50 		ldrb	r5, [r0, #60]	@ zero_extendqisi2
 3056 0058 012D     		cmp	r5, #1
 3057 005a D8D0     		beq	.L436
 3058 005c 0125     		movs	r5, #1
 3059 005e 80F83C50 		strb	r5, [r0, #60]
 3060 0062 2568     		ldr	r5, [r4]
 3061 0064 0026     		movs	r6, #0
 3062 0066 ED07     		lsls	r5, r5, #31
 3063 0068 58BF     		it	pl
 3064 006a 2568     		ldrpl	r5, [r4]
 3065 006c 184F     		ldr	r7, .L443+4
 3066 006e 5CBF     		itt	pl
 3067 0070 45F00105 		orrpl	r5, r5, #1
 3068 0074 2560     		strpl	r5, [r4]
 3069 0076 2568     		ldr	r5, [r4]
 3070 0078 25F40065 		bic	r5, r5, #2048
 3071 007c 2560     		str	r5, [r4]
 3072 007e 2225     		movs	r5, #34
 3073 0080 80F83D50 		strb	r5, [r0, #61]
 3074 0084 4025     		movs	r5, #64
 3075 0086 80F83E50 		strb	r5, [r0, #62]
 3076 008a 089D     		ldr	r5, [sp, #32]
ARM GAS  /tmp/cc5JP12Q.s 			page 54


 3077 008c 0664     		str	r6, [r0, #64]
 3078 008e 4562     		str	r5, [r0, #36]
 3079 0090 BDF82450 		ldrh	r5, [sp, #36]
 3080 0094 4585     		strh	r5, [r0, #42]	@ movhi
 3081 0096 458D     		ldrh	r5, [r0, #42]
 3082 0098 C762     		str	r7, [r0, #44]
 3083 009a 4164     		str	r1, [r0, #68]
 3084 009c 8264     		str	r2, [r0, #72]
 3085 009e C364     		str	r3, [r0, #76]
 3086 00a0 0665     		str	r6, [r0, #80]
 3087 00a2 2368     		ldr	r3, [r4]
 3088 00a4 ADB2     		uxth	r5, r5
 3089 00a6 43F48063 		orr	r3, r3, #1024
 3090 00aa 0585     		strh	r5, [r0, #40]	@ movhi
 3091 00ac 2360     		str	r3, [r4]
 3092 00ae 2368     		ldr	r3, [r4]
 3093 00b0 43F48073 		orr	r3, r3, #256
 3094 00b4 2360     		str	r3, [r4]
 3095 00b6 80F83C60 		strb	r6, [r0, #60]
 3096 00ba 2DB1     		cbz	r5, .L438
 3097 00bc 6368     		ldr	r3, [r4, #4]
 3098 00be 3046     		mov	r0, r6
 3099 00c0 43F4E063 		orr	r3, r3, #1792
 3100 00c4 6360     		str	r3, [r4, #4]
 3101 00c6 A3E7     		b	.L433
 3102              	.L438:
 3103 00c8 2846     		mov	r0, r5
 3104 00ca A1E7     		b	.L433
 3105              	.L444:
 3106              		.align	2
 3107              	.L443:
 3108 00cc 00000000 		.word	SystemCoreClock
 3109 00d0 0000FFFF 		.word	-65536
 3111              		.section	.text.HAL_I2C_Mem_Write_DMA,"ax",%progbits
 3112              		.align	1
 3113              		.global	HAL_I2C_Mem_Write_DMA
 3114              		.syntax unified
 3115              		.thumb
 3116              		.thumb_func
 3117              		.fpu softvfp
 3119              	HAL_I2C_Mem_Write_DMA:
 3120              		@ args = 8, pretend = 0, frame = 8
 3121              		@ frame_needed = 0, uses_anonymous_args = 0
 3122 0000 2DE9FF47 		push	{r0, r1, r2, r3, r4, r5, r6, r7, r8, r9, r10, lr}
 3123 0004 9946     		mov	r9, r3
 3124 0006 0023     		movs	r3, #0
 3125 0008 0446     		mov	r4, r0
 3126 000a 0293     		str	r3, [sp, #8]
 3127 000c 0F46     		mov	r7, r1
 3128 000e 9046     		mov	r8, r2
 3129 0010 0C9E     		ldr	r6, [sp, #48]
 3130 0012 FFF7FEFF 		bl	HAL_GetTick
 3131 0016 94F83D30 		ldrb	r3, [r4, #61]	@ zero_extendqisi2
 3132 001a 8246     		mov	r10, r0
 3133 001c 202B     		cmp	r3, #32
 3134 001e 03D0     		beq	.L446
 3135              	.L450:
ARM GAS  /tmp/cc5JP12Q.s 			page 55


 3136 0020 0220     		movs	r0, #2
 3137              	.L447:
 3138 0022 04B0     		add	sp, sp, #16
 3139              		@ sp needed
 3140 0024 BDE8F087 		pop	{r4, r5, r6, r7, r8, r9, r10, pc}
 3141              	.L446:
 3142 0028 46F2A812 		movw	r2, #25000
 3143 002c 404B     		ldr	r3, .L460
 3144 002e 1B68     		ldr	r3, [r3]
 3145 0030 B3FBF2F2 		udiv	r2, r3, r2
 3146 0034 1923     		movs	r3, #25
 3147 0036 5343     		muls	r3, r2, r3
 3148 0038 0293     		str	r3, [sp, #8]
 3149              	.L449:
 3150 003a 029B     		ldr	r3, [sp, #8]
 3151 003c 013B     		subs	r3, r3, #1
 3152 003e 0293     		str	r3, [sp, #8]
 3153 0040 029B     		ldr	r3, [sp, #8]
 3154 0042 63B9     		cbnz	r3, .L448
 3155 0044 2022     		movs	r2, #32
 3156 0046 2363     		str	r3, [r4, #48]
 3157 0048 84F83D20 		strb	r2, [r4, #61]
 3158 004c 84F83E30 		strb	r3, [r4, #62]
 3159 0050 226C     		ldr	r2, [r4, #64]
 3160 0052 42F02002 		orr	r2, r2, #32
 3161              	.L459:
 3162 0056 2264     		str	r2, [r4, #64]
 3163 0058 84F83C30 		strb	r3, [r4, #60]
 3164 005c 5DE0     		b	.L454
 3165              	.L448:
 3166 005e 2268     		ldr	r2, [r4]
 3167 0060 9369     		ldr	r3, [r2, #24]
 3168 0062 9907     		lsls	r1, r3, #30
 3169 0064 E9D4     		bmi	.L449
 3170 0066 94F83C30 		ldrb	r3, [r4, #60]	@ zero_extendqisi2
 3171 006a 012B     		cmp	r3, #1
 3172 006c D8D0     		beq	.L450
 3173 006e 0123     		movs	r3, #1
 3174 0070 84F83C30 		strb	r3, [r4, #60]
 3175 0074 1368     		ldr	r3, [r2]
 3176 0076 0025     		movs	r5, #0
 3177 0078 DB07     		lsls	r3, r3, #31
 3178 007a 58BF     		it	pl
 3179 007c 1368     		ldrpl	r3, [r2]
 3180 007e 2D49     		ldr	r1, .L460+4
 3181 0080 5CBF     		itt	pl
 3182 0082 43F00103 		orrpl	r3, r3, #1
 3183 0086 1360     		strpl	r3, [r2]
 3184 0088 1368     		ldr	r3, [r2]
 3185 008a 23F40063 		bic	r3, r3, #2048
 3186 008e 1360     		str	r3, [r2]
 3187 0090 2123     		movs	r3, #33
 3188 0092 84F83D30 		strb	r3, [r4, #61]
 3189 0096 4023     		movs	r3, #64
 3190 0098 84F83E30 		strb	r3, [r4, #62]
 3191 009c BDF83430 		ldrh	r3, [sp, #52]
 3192 00a0 2564     		str	r5, [r4, #64]
ARM GAS  /tmp/cc5JP12Q.s 			page 56


 3193 00a2 6385     		strh	r3, [r4, #42]	@ movhi
 3194 00a4 638D     		ldrh	r3, [r4, #42]
 3195 00a6 6662     		str	r6, [r4, #36]
 3196 00a8 9BB2     		uxth	r3, r3
 3197 00aa 2385     		strh	r3, [r4, #40]	@ movhi
 3198 00ac E162     		str	r1, [r4, #44]
 3199 00ae 002B     		cmp	r3, #0
 3200 00b0 35D0     		beq	.L452
 3201 00b2 606B     		ldr	r0, [r4, #52]
 3202 00b4 2049     		ldr	r1, .L460+8
 3203 00b6 C562     		str	r5, [r0, #44]
 3204 00b8 8162     		str	r1, [r0, #40]
 3205 00ba 2049     		ldr	r1, .L460+12
 3206 00bc 4563     		str	r5, [r0, #52]
 3207 00be 0163     		str	r1, [r0, #48]
 3208 00c0 1032     		adds	r2, r2, #16
 3209 00c2 3146     		mov	r1, r6
 3210 00c4 FFF7FEFF 		bl	HAL_DMA_Start_IT
 3211 00c8 E0B9     		cbnz	r0, .L453
 3212 00ca 2323     		movs	r3, #35
 3213 00cc CDF804A0 		str	r10, [sp, #4]
 3214 00d0 0093     		str	r3, [sp]
 3215 00d2 4246     		mov	r2, r8
 3216 00d4 4B46     		mov	r3, r9
 3217 00d6 3946     		mov	r1, r7
 3218 00d8 2046     		mov	r0, r4
 3219 00da FFF7FEFF 		bl	I2C_RequestMemoryWrite
 3220 00de E0B9     		cbnz	r0, .L454
 3221 00e0 2368     		ldr	r3, [r4]
 3222 00e2 0390     		str	r0, [sp, #12]
 3223 00e4 5A69     		ldr	r2, [r3, #20]
 3224 00e6 0392     		str	r2, [sp, #12]
 3225 00e8 9A69     		ldr	r2, [r3, #24]
 3226 00ea 84F83C00 		strb	r0, [r4, #60]
 3227 00ee 0392     		str	r2, [sp, #12]
 3228 00f0 039A     		ldr	r2, [sp, #12]
 3229 00f2 5A68     		ldr	r2, [r3, #4]
 3230 00f4 42F48072 		orr	r2, r2, #256
 3231 00f8 5A60     		str	r2, [r3, #4]
 3232 00fa 5A68     		ldr	r2, [r3, #4]
 3233 00fc 42F40062 		orr	r2, r2, #2048
 3234 0100 5A60     		str	r2, [r3, #4]
 3235 0102 8EE7     		b	.L447
 3236              	.L453:
 3237 0104 2023     		movs	r3, #32
 3238 0106 84F83D30 		strb	r3, [r4, #61]
 3239 010a 84F83E50 		strb	r5, [r4, #62]
 3240 010e 236C     		ldr	r3, [r4, #64]
 3241 0110 84F83C50 		strb	r5, [r4, #60]
 3242 0114 43F01003 		orr	r3, r3, #16
 3243 0118 2364     		str	r3, [r4, #64]
 3244              	.L454:
 3245 011a 0120     		movs	r0, #1
 3246 011c 81E7     		b	.L447
 3247              	.L452:
 3248 011e 2022     		movs	r2, #32
 3249 0120 84F83D20 		strb	r2, [r4, #61]
ARM GAS  /tmp/cc5JP12Q.s 			page 57


 3250 0124 84F83E30 		strb	r3, [r4, #62]
 3251 0128 226C     		ldr	r2, [r4, #64]
 3252 012a 42F04002 		orr	r2, r2, #64
 3253 012e 92E7     		b	.L459
 3254              	.L461:
 3255              		.align	2
 3256              	.L460:
 3257 0130 00000000 		.word	SystemCoreClock
 3258 0134 0000FFFF 		.word	-65536
 3259 0138 00000000 		.word	I2C_DMAXferCplt
 3260 013c 00000000 		.word	I2C_DMAError
 3262              		.section	.text.HAL_I2C_Mem_Read_DMA,"ax",%progbits
 3263              		.align	1
 3264              		.global	HAL_I2C_Mem_Read_DMA
 3265              		.syntax unified
 3266              		.thumb
 3267              		.thumb_func
 3268              		.fpu softvfp
 3270              	HAL_I2C_Mem_Read_DMA:
 3271              		@ args = 8, pretend = 0, frame = 16
 3272              		@ frame_needed = 0, uses_anonymous_args = 0
 3273 0000 2DE9F047 		push	{r4, r5, r6, r7, r8, r9, r10, lr}
 3274 0004 86B0     		sub	sp, sp, #24
 3275 0006 0446     		mov	r4, r0
 3276 0008 9846     		mov	r8, r3
 3277 000a 0E46     		mov	r6, r1
 3278 000c 1746     		mov	r7, r2
 3279 000e DDF838A0 		ldr	r10, [sp, #56]
 3280 0012 FFF7FEFF 		bl	HAL_GetTick
 3281 0016 0023     		movs	r3, #0
 3282 0018 0393     		str	r3, [sp, #12]
 3283 001a 94F83D30 		ldrb	r3, [r4, #61]	@ zero_extendqisi2
 3284 001e 8146     		mov	r9, r0
 3285 0020 202B     		cmp	r3, #32
 3286 0022 03D0     		beq	.L463
 3287              	.L467:
 3288 0024 0220     		movs	r0, #2
 3289              	.L464:
 3290 0026 06B0     		add	sp, sp, #24
 3291              		@ sp needed
 3292 0028 BDE8F087 		pop	{r4, r5, r6, r7, r8, r9, r10, pc}
 3293              	.L463:
 3294 002c 46F2A812 		movw	r2, #25000
 3295 0030 524B     		ldr	r3, .L480
 3296 0032 1B68     		ldr	r3, [r3]
 3297 0034 B3FBF2F2 		udiv	r2, r3, r2
 3298 0038 1923     		movs	r3, #25
 3299 003a 5343     		muls	r3, r2, r3
 3300 003c 0393     		str	r3, [sp, #12]
 3301              	.L466:
 3302 003e 039B     		ldr	r3, [sp, #12]
 3303 0040 013B     		subs	r3, r3, #1
 3304 0042 0393     		str	r3, [sp, #12]
 3305 0044 039B     		ldr	r3, [sp, #12]
 3306 0046 6BB9     		cbnz	r3, .L465
 3307 0048 2022     		movs	r2, #32
 3308 004a 2363     		str	r3, [r4, #48]
ARM GAS  /tmp/cc5JP12Q.s 			page 58


 3309 004c 84F83D20 		strb	r2, [r4, #61]
 3310 0050 84F83E30 		strb	r3, [r4, #62]
 3311 0054 226C     		ldr	r2, [r4, #64]
 3312 0056 84F83C30 		strb	r3, [r4, #60]
 3313 005a 42F02002 		orr	r2, r2, #32
 3314 005e 2264     		str	r2, [r4, #64]
 3315              	.L479:
 3316 0060 0120     		movs	r0, #1
 3317 0062 E0E7     		b	.L464
 3318              	.L465:
 3319 0064 2168     		ldr	r1, [r4]
 3320 0066 8B69     		ldr	r3, [r1, #24]
 3321 0068 9A07     		lsls	r2, r3, #30
 3322 006a E8D4     		bmi	.L466
 3323 006c 94F83C30 		ldrb	r3, [r4, #60]	@ zero_extendqisi2
 3324 0070 012B     		cmp	r3, #1
 3325 0072 D7D0     		beq	.L467
 3326 0074 0123     		movs	r3, #1
 3327 0076 84F83C30 		strb	r3, [r4, #60]
 3328 007a 0B68     		ldr	r3, [r1]
 3329 007c 0025     		movs	r5, #0
 3330 007e DB07     		lsls	r3, r3, #31
 3331 0080 58BF     		it	pl
 3332 0082 0B68     		ldrpl	r3, [r1]
 3333 0084 3E4A     		ldr	r2, .L480+4
 3334 0086 5CBF     		itt	pl
 3335 0088 43F00103 		orrpl	r3, r3, #1
 3336 008c 0B60     		strpl	r3, [r1]
 3337 008e 0B68     		ldr	r3, [r1]
 3338 0090 23F40063 		bic	r3, r3, #2048
 3339 0094 0B60     		str	r3, [r1]
 3340 0096 2223     		movs	r3, #34
 3341 0098 84F83D30 		strb	r3, [r4, #61]
 3342 009c 4023     		movs	r3, #64
 3343 009e 84F83E30 		strb	r3, [r4, #62]
 3344 00a2 BDF83C30 		ldrh	r3, [sp, #60]
 3345 00a6 2564     		str	r5, [r4, #64]
 3346 00a8 6385     		strh	r3, [r4, #42]	@ movhi
 3347 00aa 638D     		ldrh	r3, [r4, #42]
 3348 00ac C4F824A0 		str	r10, [r4, #36]
 3349 00b0 9BB2     		uxth	r3, r3
 3350 00b2 2385     		strh	r3, [r4, #40]	@ movhi
 3351 00b4 E262     		str	r2, [r4, #44]
 3352 00b6 002B     		cmp	r3, #0
 3353 00b8 43D0     		beq	.L469
 3354 00ba A06B     		ldr	r0, [r4, #56]
 3355 00bc 314A     		ldr	r2, .L480+8
 3356 00be C562     		str	r5, [r0, #44]
 3357 00c0 8262     		str	r2, [r0, #40]
 3358 00c2 314A     		ldr	r2, .L480+12
 3359 00c4 4563     		str	r5, [r0, #52]
 3360 00c6 0263     		str	r2, [r0, #48]
 3361 00c8 1031     		adds	r1, r1, #16
 3362 00ca 5246     		mov	r2, r10
 3363 00cc FFF7FEFF 		bl	HAL_DMA_Start_IT
 3364 00d0 0028     		cmp	r0, #0
 3365 00d2 2AD1     		bne	.L470
ARM GAS  /tmp/cc5JP12Q.s 			page 59


 3366 00d4 2323     		movs	r3, #35
 3367 00d6 CDF80490 		str	r9, [sp, #4]
 3368 00da 0093     		str	r3, [sp]
 3369 00dc 3A46     		mov	r2, r7
 3370 00de 4346     		mov	r3, r8
 3371 00e0 3146     		mov	r1, r6
 3372 00e2 2046     		mov	r0, r4
 3373 00e4 FFF7FEFF 		bl	I2C_RequestMemoryRead
 3374 00e8 0028     		cmp	r0, #0
 3375 00ea B9D1     		bne	.L479
 3376 00ec 238D     		ldrh	r3, [r4, #40]
 3377 00ee 012B     		cmp	r3, #1
 3378 00f0 2368     		ldr	r3, [r4]
 3379 00f2 0BBF     		itete	eq
 3380 00f4 1A68     		ldreq	r2, [r3]
 3381 00f6 5A68     		ldrne	r2, [r3, #4]
 3382 00f8 22F48062 		biceq	r2, r2, #1024
 3383 00fc 42F48052 		orrne	r2, r2, #4096
 3384 0100 0CBF     		ite	eq
 3385 0102 1A60     		streq	r2, [r3]
 3386 0104 5A60     		strne	r2, [r3, #4]
 3387 0106 0022     		movs	r2, #0
 3388 0108 0492     		str	r2, [sp, #16]
 3389 010a 5969     		ldr	r1, [r3, #20]
 3390 010c 0491     		str	r1, [sp, #16]
 3391 010e 9969     		ldr	r1, [r3, #24]
 3392 0110 84F83C20 		strb	r2, [r4, #60]
 3393 0114 0491     		str	r1, [sp, #16]
 3394 0116 0499     		ldr	r1, [sp, #16]
 3395 0118 5A68     		ldr	r2, [r3, #4]
 3396 011a 42F48072 		orr	r2, r2, #256
 3397 011e 5A60     		str	r2, [r3, #4]
 3398 0120 5A68     		ldr	r2, [r3, #4]
 3399 0122 42F40062 		orr	r2, r2, #2048
 3400 0126 5A60     		str	r2, [r3, #4]
 3401 0128 7DE7     		b	.L464
 3402              	.L470:
 3403 012a 2023     		movs	r3, #32
 3404 012c 84F83D30 		strb	r3, [r4, #61]
 3405 0130 84F83E50 		strb	r5, [r4, #62]
 3406 0134 236C     		ldr	r3, [r4, #64]
 3407 0136 84F83C50 		strb	r5, [r4, #60]
 3408 013a 43F01003 		orr	r3, r3, #16
 3409 013e 2364     		str	r3, [r4, #64]
 3410 0140 8EE7     		b	.L479
 3411              	.L469:
 3412 0142 2323     		movs	r3, #35
 3413 0144 CDF80490 		str	r9, [sp, #4]
 3414 0148 0093     		str	r3, [sp]
 3415 014a 3A46     		mov	r2, r7
 3416 014c 4346     		mov	r3, r8
 3417 014e 3146     		mov	r1, r6
 3418 0150 2046     		mov	r0, r4
 3419 0152 FFF7FEFF 		bl	I2C_RequestMemoryRead
 3420 0156 0028     		cmp	r0, #0
 3421 0158 82D1     		bne	.L479
 3422 015a 2368     		ldr	r3, [r4]
ARM GAS  /tmp/cc5JP12Q.s 			page 60


 3423 015c 0590     		str	r0, [sp, #20]
 3424 015e 5A69     		ldr	r2, [r3, #20]
 3425 0160 0592     		str	r2, [sp, #20]
 3426 0162 9A69     		ldr	r2, [r3, #24]
 3427 0164 0592     		str	r2, [sp, #20]
 3428 0166 059A     		ldr	r2, [sp, #20]
 3429 0168 1A68     		ldr	r2, [r3]
 3430 016a 42F40072 		orr	r2, r2, #512
 3431 016e 1A60     		str	r2, [r3]
 3432 0170 2023     		movs	r3, #32
 3433 0172 84F83C00 		strb	r0, [r4, #60]
 3434 0176 84F83D30 		strb	r3, [r4, #61]
 3435 017a 54E7     		b	.L464
 3436              	.L481:
 3437              		.align	2
 3438              	.L480:
 3439 017c 00000000 		.word	SystemCoreClock
 3440 0180 0000FFFF 		.word	-65536
 3441 0184 00000000 		.word	I2C_DMAXferCplt
 3442 0188 00000000 		.word	I2C_DMAError
 3444              		.section	.text.HAL_I2C_IsDeviceReady,"ax",%progbits
 3445              		.align	1
 3446              		.global	HAL_I2C_IsDeviceReady
 3447              		.syntax unified
 3448              		.thumb
 3449              		.thumb_func
 3450              		.fpu softvfp
 3452              	HAL_I2C_IsDeviceReady:
 3453              		@ args = 0, pretend = 0, frame = 8
 3454              		@ frame_needed = 0, uses_anonymous_args = 0
 3455 0000 2DE9F04F 		push	{r4, r5, r6, r7, r8, r9, r10, fp, lr}
 3456 0004 0446     		mov	r4, r0
 3457 0006 85B0     		sub	sp, sp, #20
 3458 0008 9846     		mov	r8, r3
 3459 000a 8946     		mov	r9, r1
 3460 000c 9246     		mov	r10, r2
 3461 000e FFF7FEFF 		bl	HAL_GetTick
 3462 0012 94F83D30 		ldrb	r3, [r4, #61]	@ zero_extendqisi2
 3463 0016 0546     		mov	r5, r0
 3464 0018 202B     		cmp	r3, #32
 3465 001a 03D0     		beq	.L483
 3466              	.L485:
 3467 001c 0220     		movs	r0, #2
 3468              	.L484:
 3469 001e 05B0     		add	sp, sp, #20
 3470              		@ sp needed
 3471 0020 BDE8F08F 		pop	{r4, r5, r6, r7, r8, r9, r10, fp, pc}
 3472              	.L483:
 3473 0024 0090     		str	r0, [sp]
 3474 0026 1923     		movs	r3, #25
 3475 0028 0122     		movs	r2, #1
 3476 002a 4949     		ldr	r1, .L504
 3477 002c 2046     		mov	r0, r4
 3478 002e FFF7FEFF 		bl	I2C_WaitOnFlagUntilTimeout
 3479 0032 0028     		cmp	r0, #0
 3480 0034 F2D1     		bne	.L485
 3481 0036 94F83C30 		ldrb	r3, [r4, #60]	@ zero_extendqisi2
ARM GAS  /tmp/cc5JP12Q.s 			page 61


 3482 003a 012B     		cmp	r3, #1
 3483 003c EED0     		beq	.L485
 3484 003e 0123     		movs	r3, #1
 3485 0040 84F83C30 		strb	r3, [r4, #60]
 3486 0044 2368     		ldr	r3, [r4]
 3487 0046 0127     		movs	r7, #1
 3488 0048 1A68     		ldr	r2, [r3]
 3489 004a DFF804B1 		ldr	fp, .L504
 3490 004e D207     		lsls	r2, r2, #31
 3491 0050 58BF     		it	pl
 3492 0052 1A68     		ldrpl	r2, [r3]
 3493 0054 09F0FE09 		and	r9, r9, #254
 3494 0058 5CBF     		itt	pl
 3495 005a 42F00102 		orrpl	r2, r2, #1
 3496 005e 1A60     		strpl	r2, [r3]
 3497 0060 1A68     		ldr	r2, [r3]
 3498 0062 22F40062 		bic	r2, r2, #2048
 3499 0066 1A60     		str	r2, [r3]
 3500 0068 2423     		movs	r3, #36
 3501 006a 84F83D30 		strb	r3, [r4, #61]
 3502 006e 0023     		movs	r3, #0
 3503 0070 2364     		str	r3, [r4, #64]
 3504 0072 A3F58033 		sub	r3, r3, #65536
 3505 0076 E362     		str	r3, [r4, #44]
 3506              	.L495:
 3507 0078 2268     		ldr	r2, [r4]
 3508 007a 4FF00111 		mov	r1, #65537
 3509 007e 1368     		ldr	r3, [r2]
 3510 0080 2046     		mov	r0, r4
 3511 0082 43F48073 		orr	r3, r3, #256
 3512 0086 1360     		str	r3, [r2]
 3513 0088 0095     		str	r5, [sp]
 3514 008a 4346     		mov	r3, r8
 3515 008c 0022     		movs	r2, #0
 3516 008e FFF7FEFF 		bl	I2C_WaitOnFlagUntilTimeout
 3517 0092 08B1     		cbz	r0, .L487
 3518              	.L503:
 3519 0094 0120     		movs	r0, #1
 3520 0096 C2E7     		b	.L484
 3521              	.L487:
 3522 0098 2368     		ldr	r3, [r4]
 3523 009a A026     		movs	r6, #160
 3524 009c C3F81090 		str	r9, [r3, #16]
 3525 00a0 FFF7FEFF 		bl	HAL_GetTick
 3526 00a4 0546     		mov	r5, r0
 3527 00a6 2368     		ldr	r3, [r4]
 3528 00a8 5A69     		ldr	r2, [r3, #20]
 3529 00aa 5B69     		ldr	r3, [r3, #20]
 3530 00ac C2F34002 		ubfx	r2, r2, #1, #1
 3531 00b0 C3F38023 		ubfx	r3, r3, #10, #1
 3532              	.L488:
 3533 00b4 94F83D10 		ldrb	r1, [r4, #61]	@ zero_extendqisi2
 3534 00b8 A029     		cmp	r1, #160
 3535 00ba 01D0     		beq	.L491
 3536 00bc 02B9     		cbnz	r2, .L491
 3537 00be 03B3     		cbz	r3, .L492
 3538              	.L491:
ARM GAS  /tmp/cc5JP12Q.s 			page 62


 3539 00c0 2026     		movs	r6, #32
 3540 00c2 2368     		ldr	r3, [r4]
 3541 00c4 84F83D60 		strb	r6, [r4, #61]
 3542 00c8 5A69     		ldr	r2, [r3, #20]
 3543 00ca 12F0020F 		tst	r2, #2
 3544 00ce 1A68     		ldr	r2, [r3]
 3545 00d0 42F40072 		orr	r2, r2, #512
 3546 00d4 1A60     		str	r2, [r3]
 3547 00d6 26D0     		beq	.L493
 3548 00d8 0022     		movs	r2, #0
 3549 00da 0392     		str	r2, [sp, #12]
 3550 00dc 5A69     		ldr	r2, [r3, #20]
 3551 00de 1C49     		ldr	r1, .L504
 3552 00e0 0392     		str	r2, [sp, #12]
 3553 00e2 9B69     		ldr	r3, [r3, #24]
 3554 00e4 0122     		movs	r2, #1
 3555 00e6 0393     		str	r3, [sp, #12]
 3556 00e8 039B     		ldr	r3, [sp, #12]
 3557 00ea 0095     		str	r5, [sp]
 3558 00ec 1923     		movs	r3, #25
 3559 00ee 2046     		mov	r0, r4
 3560 00f0 FFF7FEFF 		bl	I2C_WaitOnFlagUntilTimeout
 3561 00f4 0028     		cmp	r0, #0
 3562 00f6 CDD1     		bne	.L503
 3563 00f8 84F83D60 		strb	r6, [r4, #61]
 3564 00fc 84F83C00 		strb	r0, [r4, #60]
 3565 0100 8DE7     		b	.L484
 3566              	.L492:
 3567 0102 FFF7FEFF 		bl	HAL_GetTick
 3568 0106 401B     		subs	r0, r0, r5
 3569 0108 8045     		cmp	r8, r0
 3570 010a 02D3     		bcc	.L489
 3571 010c B8F1000F 		cmp	r8, #0
 3572 0110 01D1     		bne	.L490
 3573              	.L489:
 3574 0112 84F83D60 		strb	r6, [r4, #61]
 3575              	.L490:
 3576 0116 2368     		ldr	r3, [r4]
 3577 0118 5A69     		ldr	r2, [r3, #20]
 3578 011a 5B69     		ldr	r3, [r3, #20]
 3579 011c C2F34002 		ubfx	r2, r2, #1, #1
 3580 0120 C3F38023 		ubfx	r3, r3, #10, #1
 3581 0124 C6E7     		b	.L488
 3582              	.L493:
 3583 0126 6FF48062 		mvn	r2, #1024
 3584 012a 5946     		mov	r1, fp
 3585 012c 5A61     		str	r2, [r3, #20]
 3586 012e 2046     		mov	r0, r4
 3587 0130 0095     		str	r5, [sp]
 3588 0132 1923     		movs	r3, #25
 3589 0134 0122     		movs	r2, #1
 3590 0136 FFF7FEFF 		bl	I2C_WaitOnFlagUntilTimeout
 3591 013a 0028     		cmp	r0, #0
 3592 013c AAD1     		bne	.L503
 3593 013e 0137     		adds	r7, r7, #1
 3594 0140 5745     		cmp	r7, r10
 3595 0142 99D3     		bcc	.L495
ARM GAS  /tmp/cc5JP12Q.s 			page 63


 3596 0144 84F83D60 		strb	r6, [r4, #61]
 3597 0148 84F83C00 		strb	r0, [r4, #60]
 3598 014c A2E7     		b	.L503
 3599              	.L505:
 3600 014e 00BF     		.align	2
 3601              	.L504:
 3602 0150 02001000 		.word	1048578
 3604              		.section	.text.HAL_I2C_Master_Seq_Transmit_IT,"ax",%progbits
 3605              		.align	1
 3606              		.global	HAL_I2C_Master_Seq_Transmit_IT
 3607              		.syntax unified
 3608              		.thumb
 3609              		.thumb_func
 3610              		.fpu softvfp
 3612              	HAL_I2C_Master_Seq_Transmit_IT:
 3613              		@ args = 4, pretend = 0, frame = 8
 3614              		@ frame_needed = 0, uses_anonymous_args = 0
 3615 0000 73B5     		push	{r0, r1, r4, r5, r6, lr}
 3616 0002 0024     		movs	r4, #0
 3617 0004 0094     		str	r4, [sp]
 3618 0006 0194     		str	r4, [sp, #4]
 3619 0008 90F83D40 		ldrb	r4, [r0, #61]	@ zero_extendqisi2
 3620 000c 069D     		ldr	r5, [sp, #24]
 3621 000e 202C     		cmp	r4, #32
 3622 0010 02D0     		beq	.L507
 3623              	.L510:
 3624 0012 0220     		movs	r0, #2
 3625              	.L508:
 3626 0014 02B0     		add	sp, sp, #8
 3627              		@ sp needed
 3628 0016 70BD     		pop	{r4, r5, r6, pc}
 3629              	.L507:
 3630 0018 082D     		cmp	r5, #8
 3631 001a 3AD0     		beq	.L509
 3632 001c 012D     		cmp	r5, #1
 3633 001e 38D0     		beq	.L509
 3634              	.L514:
 3635 0020 90F83C40 		ldrb	r4, [r0, #60]	@ zero_extendqisi2
 3636 0024 012C     		cmp	r4, #1
 3637 0026 F4D0     		beq	.L510
 3638 0028 0124     		movs	r4, #1
 3639 002a 80F83C40 		strb	r4, [r0, #60]
 3640 002e 0468     		ldr	r4, [r0]
 3641 0030 2668     		ldr	r6, [r4]
 3642 0032 F607     		lsls	r6, r6, #31
 3643 0034 5EBF     		ittt	pl
 3644 0036 2668     		ldrpl	r6, [r4]
 3645 0038 46F00106 		orrpl	r6, r6, #1
 3646 003c 2660     		strpl	r6, [r4]
 3647 003e 2668     		ldr	r6, [r4]
 3648 0040 26F40066 		bic	r6, r6, #2048
 3649 0044 2660     		str	r6, [r4]
 3650 0046 2126     		movs	r6, #33
 3651 0048 80F83D60 		strb	r6, [r0, #61]
 3652 004c 1026     		movs	r6, #16
 3653 004e 80F83E60 		strb	r6, [r0, #62]
 3654 0052 0026     		movs	r6, #0
ARM GAS  /tmp/cc5JP12Q.s 			page 64


 3655 0054 0664     		str	r6, [r0, #64]
 3656 0056 4385     		strh	r3, [r0, #42]	@ movhi
 3657 0058 438D     		ldrh	r3, [r0, #42]
 3658 005a C562     		str	r5, [r0, #44]
 3659 005c 4164     		str	r1, [r0, #68]
 3660 005e 0385     		strh	r3, [r0, #40]	@ movhi
 3661 0060 036B     		ldr	r3, [r0, #48]
 3662 0062 4262     		str	r2, [r0, #36]
 3663 0064 0093     		str	r3, [sp]
 3664 0066 009B     		ldr	r3, [sp]
 3665 0068 112B     		cmp	r3, #17
 3666 006a 05D1     		bne	.L516
 3667 006c B5F52A0F 		cmp	r5, #11141120
 3668 0070 02D0     		beq	.L516
 3669 0072 B5F12A4F 		cmp	r5, #-1442840576
 3670 0076 03D1     		bne	.L517
 3671              	.L516:
 3672 0078 2368     		ldr	r3, [r4]
 3673 007a 43F48073 		orr	r3, r3, #256
 3674 007e 2360     		str	r3, [r4]
 3675              	.L517:
 3676 0080 0023     		movs	r3, #0
 3677 0082 6268     		ldr	r2, [r4, #4]
 3678 0084 80F83C30 		strb	r3, [r0, #60]
 3679 0088 42F4E062 		orr	r2, r2, #1792
 3680 008c 6260     		str	r2, [r4, #4]
 3681 008e 1846     		mov	r0, r3
 3682 0090 C0E7     		b	.L508
 3683              	.L509:
 3684 0092 46F2A816 		movw	r6, #25000
 3685 0096 0F4C     		ldr	r4, .L532
 3686 0098 2468     		ldr	r4, [r4]
 3687 009a B4FBF6F6 		udiv	r6, r4, r6
 3688 009e 1924     		movs	r4, #25
 3689 00a0 7443     		muls	r4, r6, r4
 3690 00a2 0194     		str	r4, [sp, #4]
 3691              	.L513:
 3692 00a4 019C     		ldr	r4, [sp, #4]
 3693 00a6 013C     		subs	r4, r4, #1
 3694 00a8 0194     		str	r4, [sp, #4]
 3695 00aa 019C     		ldr	r4, [sp, #4]
 3696 00ac 6CB9     		cbnz	r4, .L512
 3697 00ae 2023     		movs	r3, #32
 3698 00b0 0463     		str	r4, [r0, #48]
 3699 00b2 80F83D30 		strb	r3, [r0, #61]
 3700 00b6 80F83E40 		strb	r4, [r0, #62]
 3701 00ba 036C     		ldr	r3, [r0, #64]
 3702 00bc 80F83C40 		strb	r4, [r0, #60]
 3703 00c0 43F02003 		orr	r3, r3, #32
 3704 00c4 0364     		str	r3, [r0, #64]
 3705 00c6 0120     		movs	r0, #1
 3706 00c8 A4E7     		b	.L508
 3707              	.L512:
 3708 00ca 0468     		ldr	r4, [r0]
 3709 00cc A469     		ldr	r4, [r4, #24]
 3710 00ce A407     		lsls	r4, r4, #30
 3711 00d0 E8D4     		bmi	.L513
ARM GAS  /tmp/cc5JP12Q.s 			page 65


 3712 00d2 A5E7     		b	.L514
 3713              	.L533:
 3714              		.align	2
 3715              	.L532:
 3716 00d4 00000000 		.word	SystemCoreClock
 3718              		.section	.text.HAL_I2C_Master_Seq_Transmit_DMA,"ax",%progbits
 3719              		.align	1
 3720              		.global	HAL_I2C_Master_Seq_Transmit_DMA
 3721              		.syntax unified
 3722              		.thumb
 3723              		.thumb_func
 3724              		.fpu softvfp
 3726              	HAL_I2C_Master_Seq_Transmit_DMA:
 3727              		@ args = 4, pretend = 0, frame = 8
 3728              		@ frame_needed = 0, uses_anonymous_args = 0
 3729 0000 F7B5     		push	{r0, r1, r2, r4, r5, r6, r7, lr}
 3730 0002 0F46     		mov	r7, r1
 3731 0004 1146     		mov	r1, r2
 3732 0006 0022     		movs	r2, #0
 3733 0008 0092     		str	r2, [sp]
 3734 000a 0192     		str	r2, [sp, #4]
 3735 000c 90F83D20 		ldrb	r2, [r0, #61]	@ zero_extendqisi2
 3736 0010 0446     		mov	r4, r0
 3737 0012 202A     		cmp	r2, #32
 3738 0014 089D     		ldr	r5, [sp, #32]
 3739 0016 02D0     		beq	.L535
 3740              	.L538:
 3741 0018 0220     		movs	r0, #2
 3742              	.L536:
 3743 001a 03B0     		add	sp, sp, #12
 3744              		@ sp needed
 3745 001c F0BD     		pop	{r4, r5, r6, r7, pc}
 3746              	.L535:
 3747 001e 082D     		cmp	r5, #8
 3748 0020 59D0     		beq	.L537
 3749 0022 012D     		cmp	r5, #1
 3750 0024 57D0     		beq	.L537
 3751              	.L542:
 3752 0026 94F83C20 		ldrb	r2, [r4, #60]	@ zero_extendqisi2
 3753 002a 012A     		cmp	r2, #1
 3754 002c F4D0     		beq	.L538
 3755 002e 0122     		movs	r2, #1
 3756 0030 84F83C20 		strb	r2, [r4, #60]
 3757 0034 2268     		ldr	r2, [r4]
 3758 0036 0026     		movs	r6, #0
 3759 0038 1068     		ldr	r0, [r2]
 3760 003a C007     		lsls	r0, r0, #31
 3761 003c 5EBF     		ittt	pl
 3762 003e 1068     		ldrpl	r0, [r2]
 3763 0040 40F00100 		orrpl	r0, r0, #1
 3764 0044 1060     		strpl	r0, [r2]
 3765 0046 1068     		ldr	r0, [r2]
 3766 0048 20F40060 		bic	r0, r0, #2048
 3767 004c 1060     		str	r0, [r2]
 3768 004e 2120     		movs	r0, #33
 3769 0050 84F83D00 		strb	r0, [r4, #61]
 3770 0054 1020     		movs	r0, #16
ARM GAS  /tmp/cc5JP12Q.s 			page 66


 3771 0056 84F83E00 		strb	r0, [r4, #62]
 3772 005a 2664     		str	r6, [r4, #64]
 3773 005c 6385     		strh	r3, [r4, #42]	@ movhi
 3774 005e 638D     		ldrh	r3, [r4, #42]
 3775 0060 E562     		str	r5, [r4, #44]
 3776 0062 6764     		str	r7, [r4, #68]
 3777 0064 206B     		ldr	r0, [r4, #48]
 3778 0066 9BB2     		uxth	r3, r3
 3779 0068 6162     		str	r1, [r4, #36]
 3780 006a 2385     		strh	r3, [r4, #40]	@ movhi
 3781 006c 0090     		str	r0, [sp]
 3782 006e 002B     		cmp	r3, #0
 3783 0070 5ED0     		beq	.L544
 3784 0072 606B     		ldr	r0, [r4, #52]
 3785 0074 3B4F     		ldr	r7, .L569
 3786 0076 C662     		str	r6, [r0, #44]
 3787 0078 8762     		str	r7, [r0, #40]
 3788 007a 3B4F     		ldr	r7, .L569+4
 3789 007c 4663     		str	r6, [r0, #52]
 3790 007e 0763     		str	r7, [r0, #48]
 3791 0080 1032     		adds	r2, r2, #16
 3792 0082 FFF7FEFF 		bl	HAL_DMA_Start_IT
 3793 0086 0028     		cmp	r0, #0
 3794 0088 46D1     		bne	.L545
 3795 008a 2368     		ldr	r3, [r4]
 3796 008c 1A68     		ldr	r2, [r3]
 3797 008e 42F48062 		orr	r2, r2, #1024
 3798 0092 1A60     		str	r2, [r3]
 3799 0094 009A     		ldr	r2, [sp]
 3800 0096 112A     		cmp	r2, #17
 3801 0098 05D1     		bne	.L546
 3802 009a B5F52A0F 		cmp	r5, #11141120
 3803 009e 02D0     		beq	.L546
 3804 00a0 B5F12A4F 		cmp	r5, #-1442840576
 3805 00a4 03D1     		bne	.L547
 3806              	.L546:
 3807 00a6 1A68     		ldr	r2, [r3]
 3808 00a8 42F48072 		orr	r2, r2, #256
 3809 00ac 1A60     		str	r2, [r3]
 3810              	.L547:
 3811 00ae 0022     		movs	r2, #0
 3812 00b0 043D     		subs	r5, r5, #4
 3813 00b2 1C2D     		cmp	r5, #28
 3814 00b4 84F83C20 		strb	r2, [r4, #60]
 3815 00b8 08D8     		bhi	.L548
 3816 00ba 2C4A     		ldr	r2, .L569+8
 3817 00bc 22FA05F5 		lsr	r5, r2, r5
 3818 00c0 EA07     		lsls	r2, r5, #31
 3819 00c2 42BF     		ittt	mi
 3820 00c4 5A68     		ldrmi	r2, [r3, #4]
 3821 00c6 42F40062 		orrmi	r2, r2, #2048
 3822 00ca 5A60     		strmi	r2, [r3, #4]
 3823              	.L548:
 3824 00cc 5A68     		ldr	r2, [r3, #4]
 3825 00ce 42F44072 		orr	r2, r2, #768
 3826 00d2 5A60     		str	r2, [r3, #4]
 3827 00d4 A1E7     		b	.L536
ARM GAS  /tmp/cc5JP12Q.s 			page 67


 3828              	.L537:
 3829 00d6 46F2A810 		movw	r0, #25000
 3830 00da 254A     		ldr	r2, .L569+12
 3831 00dc 1268     		ldr	r2, [r2]
 3832 00de B2FBF0F0 		udiv	r0, r2, r0
 3833 00e2 1922     		movs	r2, #25
 3834 00e4 4243     		muls	r2, r0, r2
 3835 00e6 0192     		str	r2, [sp, #4]
 3836              	.L541:
 3837 00e8 019A     		ldr	r2, [sp, #4]
 3838 00ea 013A     		subs	r2, r2, #1
 3839 00ec 0192     		str	r2, [sp, #4]
 3840 00ee 019A     		ldr	r2, [sp, #4]
 3841 00f0 6AB9     		cbnz	r2, .L540
 3842 00f2 2023     		movs	r3, #32
 3843 00f4 2263     		str	r2, [r4, #48]
 3844 00f6 84F83D30 		strb	r3, [r4, #61]
 3845 00fa 84F83E20 		strb	r2, [r4, #62]
 3846 00fe 236C     		ldr	r3, [r4, #64]
 3847 0100 84F83C20 		strb	r2, [r4, #60]
 3848 0104 43F02003 		orr	r3, r3, #32
 3849 0108 2364     		str	r3, [r4, #64]
 3850              	.L568:
 3851 010a 0120     		movs	r0, #1
 3852 010c 85E7     		b	.L536
 3853              	.L540:
 3854 010e 2268     		ldr	r2, [r4]
 3855 0110 9269     		ldr	r2, [r2, #24]
 3856 0112 9607     		lsls	r6, r2, #30
 3857 0114 E8D4     		bmi	.L541
 3858 0116 86E7     		b	.L542
 3859              	.L545:
 3860 0118 2023     		movs	r3, #32
 3861 011a 84F83D30 		strb	r3, [r4, #61]
 3862 011e 84F83E60 		strb	r6, [r4, #62]
 3863 0122 236C     		ldr	r3, [r4, #64]
 3864 0124 84F83C60 		strb	r6, [r4, #60]
 3865 0128 43F01003 		orr	r3, r3, #16
 3866 012c 2364     		str	r3, [r4, #64]
 3867 012e ECE7     		b	.L568
 3868              	.L544:
 3869 0130 1368     		ldr	r3, [r2]
 3870 0132 43F48063 		orr	r3, r3, #1024
 3871 0136 1360     		str	r3, [r2]
 3872 0138 009B     		ldr	r3, [sp]
 3873 013a 112B     		cmp	r3, #17
 3874 013c 05D1     		bne	.L549
 3875 013e B5F52A0F 		cmp	r5, #11141120
 3876 0142 02D0     		beq	.L549
 3877 0144 B5F12A4F 		cmp	r5, #-1442840576
 3878 0148 03D1     		bne	.L550
 3879              	.L549:
 3880 014a 1368     		ldr	r3, [r2]
 3881 014c 43F48073 		orr	r3, r3, #256
 3882 0150 1360     		str	r3, [r2]
 3883              	.L550:
 3884 0152 0020     		movs	r0, #0
ARM GAS  /tmp/cc5JP12Q.s 			page 68


 3885 0154 5368     		ldr	r3, [r2, #4]
 3886 0156 84F83C00 		strb	r0, [r4, #60]
 3887 015a 43F4E063 		orr	r3, r3, #1792
 3888 015e 5360     		str	r3, [r2, #4]
 3889 0160 5BE7     		b	.L536
 3890              	.L570:
 3891 0162 00BF     		.align	2
 3892              	.L569:
 3893 0164 00000000 		.word	I2C_DMAXferCplt
 3894 0168 00000000 		.word	I2C_DMAError
 3895 016c 01100010 		.word	268439553
 3896 0170 00000000 		.word	SystemCoreClock
 3898              		.section	.text.HAL_I2C_Master_Seq_Receive_IT,"ax",%progbits
 3899              		.align	1
 3900              		.global	HAL_I2C_Master_Seq_Receive_IT
 3901              		.syntax unified
 3902              		.thumb
 3903              		.thumb_func
 3904              		.fpu softvfp
 3906              	HAL_I2C_Master_Seq_Receive_IT:
 3907              		@ args = 4, pretend = 0, frame = 8
 3908              		@ frame_needed = 0, uses_anonymous_args = 0
 3909 0000 73B5     		push	{r0, r1, r4, r5, r6, lr}
 3910 0002 0024     		movs	r4, #0
 3911 0004 0094     		str	r4, [sp]
 3912 0006 0194     		str	r4, [sp, #4]
 3913 0008 90F83D40 		ldrb	r4, [r0, #61]	@ zero_extendqisi2
 3914 000c 069D     		ldr	r5, [sp, #24]
 3915 000e 202C     		cmp	r4, #32
 3916 0010 02D0     		beq	.L572
 3917              	.L575:
 3918 0012 0220     		movs	r0, #2
 3919              	.L573:
 3920 0014 02B0     		add	sp, sp, #8
 3921              		@ sp needed
 3922 0016 70BD     		pop	{r4, r5, r6, pc}
 3923              	.L572:
 3924 0018 082D     		cmp	r5, #8
 3925 001a 4ED0     		beq	.L574
 3926 001c 012D     		cmp	r5, #1
 3927 001e 4CD0     		beq	.L574
 3928              	.L579:
 3929 0020 90F83C40 		ldrb	r4, [r0, #60]	@ zero_extendqisi2
 3930 0024 012C     		cmp	r4, #1
 3931 0026 F4D0     		beq	.L575
 3932 0028 0124     		movs	r4, #1
 3933 002a 80F83C40 		strb	r4, [r0, #60]
 3934 002e 0468     		ldr	r4, [r0]
 3935 0030 2668     		ldr	r6, [r4]
 3936 0032 F607     		lsls	r6, r6, #31
 3937 0034 5EBF     		ittt	pl
 3938 0036 2668     		ldrpl	r6, [r4]
 3939 0038 46F00106 		orrpl	r6, r6, #1
 3940 003c 2660     		strpl	r6, [r4]
 3941 003e 2668     		ldr	r6, [r4]
 3942 0040 26F40066 		bic	r6, r6, #2048
 3943 0044 2660     		str	r6, [r4]
ARM GAS  /tmp/cc5JP12Q.s 			page 69


 3944 0046 2226     		movs	r6, #34
 3945 0048 80F83D60 		strb	r6, [r0, #61]
 3946 004c 1026     		movs	r6, #16
 3947 004e 80F83E60 		strb	r6, [r0, #62]
 3948 0052 0026     		movs	r6, #0
 3949 0054 0664     		str	r6, [r0, #64]
 3950 0056 4385     		strh	r3, [r0, #42]	@ movhi
 3951 0058 438D     		ldrh	r3, [r0, #42]
 3952 005a C562     		str	r5, [r0, #44]
 3953 005c 4164     		str	r1, [r0, #68]
 3954 005e 0385     		strh	r3, [r0, #40]	@ movhi
 3955 0060 036B     		ldr	r3, [r0, #48]
 3956 0062 4262     		str	r2, [r0, #36]
 3957 0064 0093     		str	r3, [sp]
 3958 0066 438D     		ldrh	r3, [r0, #42]
 3959 0068 9BB2     		uxth	r3, r3
 3960 006a 022B     		cmp	r3, #2
 3961 006c 46D1     		bne	.L581
 3962 006e 202D     		cmp	r5, #32
 3963 0070 01D0     		beq	.L582
 3964 0072 102D     		cmp	r5, #16
 3965 0074 42D1     		bne	.L581
 3966              	.L582:
 3967 0076 009B     		ldr	r3, [sp]
 3968 0078 122B     		cmp	r3, #18
 3969 007a 2368     		ldr	r3, [r4]
 3970 007c 3FD1     		bne	.L604
 3971 007e 4FF44072 		mov	r2, #768
 3972 0082 23F48063 		bic	r3, r3, #1024
 3973 0086 2360     		str	r3, [r4]
 3974 0088 2368     		ldr	r3, [r4]
 3975 008a 43F40063 		orr	r3, r3, #2048
 3976 008e 2360     		str	r3, [r4]
 3977              	.L584:
 3978 0090 009B     		ldr	r3, [sp]
 3979 0092 122B     		cmp	r3, #18
 3980 0094 05D1     		bne	.L585
 3981 0096 B5F52A0F 		cmp	r5, #11141120
 3982 009a 02D0     		beq	.L585
 3983 009c B5F12A4F 		cmp	r5, #-1442840576
 3984 00a0 03D1     		bne	.L586
 3985              	.L585:
 3986 00a2 2368     		ldr	r3, [r4]
 3987 00a4 43F48073 		orr	r3, r3, #256
 3988 00a8 2360     		str	r3, [r4]
 3989              	.L586:
 3990 00aa 0023     		movs	r3, #0
 3991 00ac 6168     		ldr	r1, [r4, #4]
 3992 00ae 80F83C30 		strb	r3, [r0, #60]
 3993 00b2 0A43     		orrs	r2, r2, r1
 3994 00b4 6260     		str	r2, [r4, #4]
 3995 00b6 1846     		mov	r0, r3
 3996 00b8 ACE7     		b	.L573
 3997              	.L574:
 3998 00ba 46F2A816 		movw	r6, #25000
 3999 00be 134C     		ldr	r4, .L605
 4000 00c0 2468     		ldr	r4, [r4]
ARM GAS  /tmp/cc5JP12Q.s 			page 70


 4001 00c2 B4FBF6F6 		udiv	r6, r4, r6
 4002 00c6 1924     		movs	r4, #25
 4003 00c8 7443     		muls	r4, r6, r4
 4004 00ca 0194     		str	r4, [sp, #4]
 4005              	.L578:
 4006 00cc 019C     		ldr	r4, [sp, #4]
 4007 00ce 013C     		subs	r4, r4, #1
 4008 00d0 0194     		str	r4, [sp, #4]
 4009 00d2 019C     		ldr	r4, [sp, #4]
 4010 00d4 6CB9     		cbnz	r4, .L577
 4011 00d6 2023     		movs	r3, #32
 4012 00d8 0463     		str	r4, [r0, #48]
 4013 00da 80F83D30 		strb	r3, [r0, #61]
 4014 00de 80F83E40 		strb	r4, [r0, #62]
 4015 00e2 036C     		ldr	r3, [r0, #64]
 4016 00e4 80F83C40 		strb	r4, [r0, #60]
 4017 00e8 43F02003 		orr	r3, r3, #32
 4018 00ec 0364     		str	r3, [r0, #64]
 4019 00ee 0120     		movs	r0, #1
 4020 00f0 90E7     		b	.L573
 4021              	.L577:
 4022 00f2 0468     		ldr	r4, [r0]
 4023 00f4 A469     		ldr	r4, [r4, #24]
 4024 00f6 A407     		lsls	r4, r4, #30
 4025 00f8 E8D4     		bmi	.L578
 4026 00fa 91E7     		b	.L579
 4027              	.L581:
 4028 00fc 2368     		ldr	r3, [r4]
 4029              	.L604:
 4030 00fe 43F48063 		orr	r3, r3, #1024
 4031 0102 2360     		str	r3, [r4]
 4032 0104 4FF4E062 		mov	r2, #1792
 4033 0108 C2E7     		b	.L584
 4034              	.L606:
 4035 010a 00BF     		.align	2
 4036              	.L605:
 4037 010c 00000000 		.word	SystemCoreClock
 4039              		.section	.text.HAL_I2C_Master_Seq_Receive_DMA,"ax",%progbits
 4040              		.align	1
 4041              		.global	HAL_I2C_Master_Seq_Receive_DMA
 4042              		.syntax unified
 4043              		.thumb
 4044              		.thumb_func
 4045              		.fpu softvfp
 4047              	HAL_I2C_Master_Seq_Receive_DMA:
 4048              		@ args = 4, pretend = 0, frame = 8
 4049              		@ frame_needed = 0, uses_anonymous_args = 0
 4050 0000 F7B5     		push	{r0, r1, r2, r4, r5, r6, r7, lr}
 4051 0002 0446     		mov	r4, r0
 4052 0004 0020     		movs	r0, #0
 4053 0006 0090     		str	r0, [sp]
 4054 0008 0190     		str	r0, [sp, #4]
 4055 000a 94F83D00 		ldrb	r0, [r4, #61]	@ zero_extendqisi2
 4056 000e 089E     		ldr	r6, [sp, #32]
 4057 0010 2028     		cmp	r0, #32
 4058 0012 02D0     		beq	.L608
 4059              	.L611:
ARM GAS  /tmp/cc5JP12Q.s 			page 71


 4060 0014 0220     		movs	r0, #2
 4061              	.L609:
 4062 0016 03B0     		add	sp, sp, #12
 4063              		@ sp needed
 4064 0018 F0BD     		pop	{r4, r5, r6, r7, pc}
 4065              	.L608:
 4066 001a 082E     		cmp	r6, #8
 4067 001c 44D0     		beq	.L610
 4068 001e 012E     		cmp	r6, #1
 4069 0020 42D0     		beq	.L610
 4070              	.L615:
 4071 0022 94F83C00 		ldrb	r0, [r4, #60]	@ zero_extendqisi2
 4072 0026 0128     		cmp	r0, #1
 4073 0028 F4D0     		beq	.L611
 4074 002a 0120     		movs	r0, #1
 4075 002c 2568     		ldr	r5, [r4]
 4076 002e 84F83C00 		strb	r0, [r4, #60]
 4077 0032 2868     		ldr	r0, [r5]
 4078 0034 C007     		lsls	r0, r0, #31
 4079 0036 5EBF     		ittt	pl
 4080 0038 2868     		ldrpl	r0, [r5]
 4081 003a 40F00100 		orrpl	r0, r0, #1
 4082 003e 2860     		strpl	r0, [r5]
 4083 0040 2868     		ldr	r0, [r5]
 4084 0042 20F40060 		bic	r0, r0, #2048
 4085 0046 2860     		str	r0, [r5]
 4086 0048 6868     		ldr	r0, [r5, #4]
 4087 004a 20F48050 		bic	r0, r0, #4096
 4088 004e 6860     		str	r0, [r5, #4]
 4089 0050 2220     		movs	r0, #34
 4090 0052 84F83D00 		strb	r0, [r4, #61]
 4091 0056 1020     		movs	r0, #16
 4092 0058 84F83E00 		strb	r0, [r4, #62]
 4093 005c 0020     		movs	r0, #0
 4094 005e 2064     		str	r0, [r4, #64]
 4095 0060 6385     		strh	r3, [r4, #42]	@ movhi
 4096 0062 638D     		ldrh	r3, [r4, #42]
 4097 0064 E662     		str	r6, [r4, #44]
 4098 0066 6164     		str	r1, [r4, #68]
 4099 0068 216B     		ldr	r1, [r4, #48]
 4100 006a 9BB2     		uxth	r3, r3
 4101 006c 6262     		str	r2, [r4, #36]
 4102 006e 2385     		strh	r3, [r4, #40]	@ movhi
 4103 0070 0091     		str	r1, [sp]
 4104 0072 002B     		cmp	r3, #0
 4105 0074 00F08880 		beq	.L617
 4106 0078 618D     		ldrh	r1, [r4, #42]
 4107 007a 89B2     		uxth	r1, r1
 4108 007c 0229     		cmp	r1, #2
 4109 007e 68D1     		bne	.L618
 4110 0080 202E     		cmp	r6, #32
 4111 0082 01D0     		beq	.L619
 4112 0084 102E     		cmp	r6, #16
 4113 0086 64D1     		bne	.L618
 4114              	.L619:
 4115 0088 0099     		ldr	r1, [sp]
 4116 008a 1229     		cmp	r1, #18
ARM GAS  /tmp/cc5JP12Q.s 			page 72


 4117 008c 2968     		ldr	r1, [r5]
 4118 008e 2CD1     		bne	.L620
 4119 0090 21F48061 		bic	r1, r1, #1024
 4120 0094 2960     		str	r1, [r5]
 4121 0096 2968     		ldr	r1, [r5]
 4122 0098 41F40061 		orr	r1, r1, #2048
 4123 009c 2960     		str	r1, [r5]
 4124              	.L622:
 4125 009e 6968     		ldr	r1, [r5, #4]
 4126 00a0 41F48051 		orr	r1, r1, #4096
 4127 00a4 6960     		str	r1, [r5, #4]
 4128 00a6 23E0     		b	.L621
 4129              	.L610:
 4130 00a8 46F2A815 		movw	r5, #25000
 4131 00ac 4348     		ldr	r0, .L657
 4132 00ae 0068     		ldr	r0, [r0]
 4133 00b0 B0FBF5F5 		udiv	r5, r0, r5
 4134 00b4 1920     		movs	r0, #25
 4135 00b6 6843     		muls	r0, r5, r0
 4136 00b8 0190     		str	r0, [sp, #4]
 4137              	.L614:
 4138 00ba 0198     		ldr	r0, [sp, #4]
 4139 00bc 0138     		subs	r0, r0, #1
 4140 00be 0190     		str	r0, [sp, #4]
 4141 00c0 0198     		ldr	r0, [sp, #4]
 4142 00c2 68B9     		cbnz	r0, .L613
 4143 00c4 2023     		movs	r3, #32
 4144 00c6 2063     		str	r0, [r4, #48]
 4145 00c8 84F83D30 		strb	r3, [r4, #61]
 4146 00cc 84F83E00 		strb	r0, [r4, #62]
 4147 00d0 236C     		ldr	r3, [r4, #64]
 4148 00d2 84F83C00 		strb	r0, [r4, #60]
 4149 00d6 43F02003 		orr	r3, r3, #32
 4150 00da 2364     		str	r3, [r4, #64]
 4151              	.L656:
 4152 00dc 0120     		movs	r0, #1
 4153 00de 9AE7     		b	.L609
 4154              	.L613:
 4155 00e0 2068     		ldr	r0, [r4]
 4156 00e2 8069     		ldr	r0, [r0, #24]
 4157 00e4 8507     		lsls	r5, r0, #30
 4158 00e6 E8D4     		bmi	.L614
 4159 00e8 9BE7     		b	.L615
 4160              	.L620:
 4161 00ea 41F48061 		orr	r1, r1, #1024
 4162 00ee 2960     		str	r1, [r5]
 4163              	.L621:
 4164 00f0 0027     		movs	r7, #0
 4165 00f2 A06B     		ldr	r0, [r4, #56]
 4166 00f4 3249     		ldr	r1, .L657+4
 4167 00f6 C762     		str	r7, [r0, #44]
 4168 00f8 8162     		str	r1, [r0, #40]
 4169 00fa 3249     		ldr	r1, .L657+8
 4170 00fc 4763     		str	r7, [r0, #52]
 4171 00fe 0163     		str	r1, [r0, #48]
 4172 0100 05F11001 		add	r1, r5, #16
 4173 0104 FFF7FEFF 		bl	HAL_DMA_Start_IT
ARM GAS  /tmp/cc5JP12Q.s 			page 73


 4174 0108 0028     		cmp	r0, #0
 4175 010a 31D1     		bne	.L623
 4176 010c 009B     		ldr	r3, [sp]
 4177 010e 122B     		cmp	r3, #18
 4178 0110 2368     		ldr	r3, [r4]
 4179 0112 05D1     		bne	.L624
 4180 0114 B6F52A0F 		cmp	r6, #11141120
 4181 0118 02D0     		beq	.L624
 4182 011a B6F12A4F 		cmp	r6, #-1442840576
 4183 011e 24D1     		bne	.L629
 4184              	.L624:
 4185 0120 1A68     		ldr	r2, [r3]
 4186 0122 42F48072 		orr	r2, r2, #256
 4187 0126 1A60     		str	r2, [r3]
 4188 0128 4FF44072 		mov	r2, #768
 4189              	.L625:
 4190 012c 0021     		movs	r1, #0
 4191 012e 043E     		subs	r6, r6, #4
 4192 0130 1C2E     		cmp	r6, #28
 4193 0132 84F83C10 		strb	r1, [r4, #60]
 4194 0136 08D8     		bhi	.L626
 4195 0138 2349     		ldr	r1, .L657+12
 4196 013a 21FA06F6 		lsr	r6, r1, r6
 4197 013e F107     		lsls	r1, r6, #31
 4198 0140 42BF     		ittt	mi
 4199 0142 5968     		ldrmi	r1, [r3, #4]
 4200 0144 41F40061 		orrmi	r1, r1, #2048
 4201 0148 5960     		strmi	r1, [r3, #4]
 4202              	.L626:
 4203 014a 5968     		ldr	r1, [r3, #4]
 4204 014c 0A43     		orrs	r2, r2, r1
 4205 014e 5A60     		str	r2, [r3, #4]
 4206 0150 61E7     		b	.L609
 4207              	.L618:
 4208 0152 2968     		ldr	r1, [r5]
 4209 0154 202E     		cmp	r6, #32
 4210 0156 41F48061 		orr	r1, r1, #1024
 4211 015a 2960     		str	r1, [r5]
 4212 015c 9FD0     		beq	.L622
 4213 015e B6F12A4F 		cmp	r6, #-1442840576
 4214 0162 9CD0     		beq	.L622
 4215 0164 102E     		cmp	r6, #16
 4216 0166 C3D1     		bne	.L621
 4217 0168 99E7     		b	.L622
 4218              	.L629:
 4219 016a 4FF48072 		mov	r2, #256
 4220 016e DDE7     		b	.L625
 4221              	.L623:
 4222 0170 2023     		movs	r3, #32
 4223 0172 84F83D30 		strb	r3, [r4, #61]
 4224 0176 84F83E70 		strb	r7, [r4, #62]
 4225 017a 236C     		ldr	r3, [r4, #64]
 4226 017c 84F83C70 		strb	r7, [r4, #60]
 4227 0180 43F01003 		orr	r3, r3, #16
 4228 0184 2364     		str	r3, [r4, #64]
 4229 0186 A9E7     		b	.L656
 4230              	.L617:
ARM GAS  /tmp/cc5JP12Q.s 			page 74


 4231 0188 2B68     		ldr	r3, [r5]
 4232 018a 43F48063 		orr	r3, r3, #1024
 4233 018e 2B60     		str	r3, [r5]
 4234 0190 009B     		ldr	r3, [sp]
 4235 0192 122B     		cmp	r3, #18
 4236 0194 05D1     		bne	.L627
 4237 0196 B6F52A0F 		cmp	r6, #11141120
 4238 019a 02D0     		beq	.L627
 4239 019c B6F12A4F 		cmp	r6, #-1442840576
 4240 01a0 03D1     		bne	.L628
 4241              	.L627:
 4242 01a2 2B68     		ldr	r3, [r5]
 4243 01a4 43F48073 		orr	r3, r3, #256
 4244 01a8 2B60     		str	r3, [r5]
 4245              	.L628:
 4246 01aa 0020     		movs	r0, #0
 4247 01ac 6B68     		ldr	r3, [r5, #4]
 4248 01ae 84F83C00 		strb	r0, [r4, #60]
 4249 01b2 43F4E063 		orr	r3, r3, #1792
 4250 01b6 6B60     		str	r3, [r5, #4]
 4251 01b8 2DE7     		b	.L609
 4252              	.L658:
 4253 01ba 00BF     		.align	2
 4254              	.L657:
 4255 01bc 00000000 		.word	SystemCoreClock
 4256 01c0 00000000 		.word	I2C_DMAXferCplt
 4257 01c4 00000000 		.word	I2C_DMAError
 4258 01c8 01100010 		.word	268439553
 4260              		.section	.text.HAL_I2C_Slave_Seq_Transmit_IT,"ax",%progbits
 4261              		.align	1
 4262              		.global	HAL_I2C_Slave_Seq_Transmit_IT
 4263              		.syntax unified
 4264              		.thumb
 4265              		.thumb_func
 4266              		.fpu softvfp
 4268              	HAL_I2C_Slave_Seq_Transmit_IT:
 4269              		@ args = 0, pretend = 0, frame = 8
 4270              		@ frame_needed = 0, uses_anonymous_args = 0
 4271 0000 37B5     		push	{r0, r1, r2, r4, r5, lr}
 4272 0002 90F83D40 		ldrb	r4, [r0, #61]	@ zero_extendqisi2
 4273 0006 04F02804 		and	r4, r4, #40
 4274 000a 282C     		cmp	r4, #40
 4275 000c 34D1     		bne	.L665
 4276 000e 0029     		cmp	r1, #0
 4277 0010 30D0     		beq	.L664
 4278 0012 002A     		cmp	r2, #0
 4279 0014 2ED0     		beq	.L664
 4280 0016 90F83C40 		ldrb	r4, [r0, #60]	@ zero_extendqisi2
 4281 001a 012C     		cmp	r4, #1
 4282 001c 2CD0     		beq	.L665
 4283 001e 0124     		movs	r4, #1
 4284 0020 0568     		ldr	r5, [r0]
 4285 0022 80F83C40 		strb	r4, [r0, #60]
 4286 0026 2C68     		ldr	r4, [r5]
 4287 0028 E407     		lsls	r4, r4, #31
 4288 002a 5EBF     		ittt	pl
 4289 002c 2C68     		ldrpl	r4, [r5]
ARM GAS  /tmp/cc5JP12Q.s 			page 75


 4290 002e 44F00104 		orrpl	r4, r4, #1
 4291 0032 2C60     		strpl	r4, [r5]
 4292 0034 2C68     		ldr	r4, [r5]
 4293 0036 24F40064 		bic	r4, r4, #2048
 4294 003a 2C60     		str	r4, [r5]
 4295 003c 2924     		movs	r4, #41
 4296 003e 80F83D40 		strb	r4, [r0, #61]
 4297 0042 2024     		movs	r4, #32
 4298 0044 80F83E40 		strb	r4, [r0, #62]
 4299 0048 0024     		movs	r4, #0
 4300 004a 0464     		str	r4, [r0, #64]
 4301 004c 4285     		strh	r2, [r0, #42]	@ movhi
 4302 004e 428D     		ldrh	r2, [r0, #42]
 4303 0050 C362     		str	r3, [r0, #44]
 4304 0052 0194     		str	r4, [sp, #4]
 4305 0054 6B69     		ldr	r3, [r5, #20]
 4306 0056 4162     		str	r1, [r0, #36]
 4307 0058 0193     		str	r3, [sp, #4]
 4308 005a AB69     		ldr	r3, [r5, #24]
 4309 005c 0285     		strh	r2, [r0, #40]	@ movhi
 4310 005e 80F83C40 		strb	r4, [r0, #60]
 4311 0062 2046     		mov	r0, r4
 4312 0064 0193     		str	r3, [sp, #4]
 4313 0066 019B     		ldr	r3, [sp, #4]
 4314 0068 6B68     		ldr	r3, [r5, #4]
 4315 006a 43F4E063 		orr	r3, r3, #1792
 4316 006e 6B60     		str	r3, [r5, #4]
 4317              	.L660:
 4318 0070 03B0     		add	sp, sp, #12
 4319              		@ sp needed
 4320 0072 30BD     		pop	{r4, r5, pc}
 4321              	.L664:
 4322 0074 0120     		movs	r0, #1
 4323 0076 FBE7     		b	.L660
 4324              	.L665:
 4325 0078 0220     		movs	r0, #2
 4326 007a F9E7     		b	.L660
 4328              		.section	.text.HAL_I2C_Slave_Seq_Transmit_DMA,"ax",%progbits
 4329              		.align	1
 4330              		.global	HAL_I2C_Slave_Seq_Transmit_DMA
 4331              		.syntax unified
 4332              		.thumb
 4333              		.thumb_func
 4334              		.fpu softvfp
 4336              	HAL_I2C_Slave_Seq_Transmit_DMA:
 4337              		@ args = 0, pretend = 0, frame = 8
 4338              		@ frame_needed = 0, uses_anonymous_args = 0
 4339 0000 2DE9F743 		push	{r0, r1, r2, r4, r5, r6, r7, r8, r9, lr}
 4340 0004 9946     		mov	r9, r3
 4341 0006 90F83D30 		ldrb	r3, [r0, #61]	@ zero_extendqisi2
 4342 000a 0446     		mov	r4, r0
 4343 000c 03F02803 		and	r3, r3, #40
 4344 0010 282B     		cmp	r3, #40
 4345 0012 0E46     		mov	r6, r1
 4346 0014 9046     		mov	r8, r2
 4347 0016 40F08C80 		bne	.L677
 4348 001a 0029     		cmp	r1, #0
ARM GAS  /tmp/cc5JP12Q.s 			page 76


 4349 001c 00F08780 		beq	.L676
 4350 0020 002A     		cmp	r2, #0
 4351 0022 00F08480 		beq	.L676
 4352 0026 90F83C30 		ldrb	r3, [r0, #60]	@ zero_extendqisi2
 4353 002a 012B     		cmp	r3, #1
 4354 002c 00F08180 		beq	.L677
 4355 0030 0123     		movs	r3, #1
 4356 0032 80F83C30 		strb	r3, [r0, #60]
 4357 0036 0368     		ldr	r3, [r0]
 4358 0038 5A68     		ldr	r2, [r3, #4]
 4359 003a 22F44072 		bic	r2, r2, #768
 4360 003e 5A60     		str	r2, [r3, #4]
 4361 0040 90F83D20 		ldrb	r2, [r0, #61]	@ zero_extendqisi2
 4362 0044 2A2A     		cmp	r2, #42
 4363 0046 52D1     		bne	.L668
 4364 0048 5A68     		ldr	r2, [r3, #4]
 4365 004a 1105     		lsls	r1, r2, #20
 4366 004c 0DD5     		bpl	.L670
 4367 004e 806B     		ldr	r0, [r0, #56]
 4368 0050 58B1     		cbz	r0, .L670
 4369 0052 5A68     		ldr	r2, [r3, #4]
 4370 0054 22F40062 		bic	r2, r2, #2048
 4371 0058 5A60     		str	r2, [r3, #4]
 4372 005a 374B     		ldr	r3, .L694
 4373 005c 4363     		str	r3, [r0, #52]
 4374 005e FFF7FEFF 		bl	HAL_DMA_Abort_IT
 4375 0062 10B1     		cbz	r0, .L670
 4376 0064 A06B     		ldr	r0, [r4, #56]
 4377              	.L693:
 4378 0066 436B     		ldr	r3, [r0, #52]
 4379 0068 9847     		blx	r3
 4380              	.L670:
 4381 006a 2268     		ldr	r2, [r4]
 4382 006c 0025     		movs	r5, #0
 4383 006e 1368     		ldr	r3, [r2]
 4384 0070 2027     		movs	r7, #32
 4385 0072 DB07     		lsls	r3, r3, #31
 4386 0074 58BF     		it	pl
 4387 0076 1368     		ldrpl	r3, [r2]
 4388 0078 606B     		ldr	r0, [r4, #52]
 4389 007a 5CBF     		itt	pl
 4390 007c 43F00103 		orrpl	r3, r3, #1
 4391 0080 1360     		strpl	r3, [r2]
 4392 0082 1368     		ldr	r3, [r2]
 4393 0084 2D49     		ldr	r1, .L694+4
 4394 0086 23F40063 		bic	r3, r3, #2048
 4395 008a 42F8103B 		str	r3, [r2], #16
 4396 008e 2923     		movs	r3, #41
 4397 0090 84F83D30 		strb	r3, [r4, #61]
 4398 0094 84F83E70 		strb	r7, [r4, #62]
 4399 0098 2564     		str	r5, [r4, #64]
 4400 009a A4F82A80 		strh	r8, [r4, #42]	@ movhi
 4401 009e 638D     		ldrh	r3, [r4, #42]
 4402 00a0 6662     		str	r6, [r4, #36]
 4403 00a2 9BB2     		uxth	r3, r3
 4404 00a4 2385     		strh	r3, [r4, #40]	@ movhi
 4405 00a6 C4F82C90 		str	r9, [r4, #44]
ARM GAS  /tmp/cc5JP12Q.s 			page 77


 4406 00aa 8162     		str	r1, [r0, #40]
 4407 00ac 2449     		ldr	r1, .L694+8
 4408 00ae C562     		str	r5, [r0, #44]
 4409 00b0 0163     		str	r1, [r0, #48]
 4410 00b2 4563     		str	r5, [r0, #52]
 4411 00b4 3146     		mov	r1, r6
 4412 00b6 FFF7FEFF 		bl	HAL_DMA_Start_IT
 4413 00ba 0028     		cmp	r0, #0
 4414 00bc 2DD1     		bne	.L673
 4415 00be 2368     		ldr	r3, [r4]
 4416 00c0 1A68     		ldr	r2, [r3]
 4417 00c2 42F48062 		orr	r2, r2, #1024
 4418 00c6 1A60     		str	r2, [r3]
 4419 00c8 0190     		str	r0, [sp, #4]
 4420 00ca 5A69     		ldr	r2, [r3, #20]
 4421 00cc 0192     		str	r2, [sp, #4]
 4422 00ce 9A69     		ldr	r2, [r3, #24]
 4423 00d0 84F83C00 		strb	r0, [r4, #60]
 4424 00d4 0192     		str	r2, [sp, #4]
 4425 00d6 019A     		ldr	r2, [sp, #4]
 4426 00d8 5A68     		ldr	r2, [r3, #4]
 4427 00da 42F44072 		orr	r2, r2, #768
 4428 00de 5A60     		str	r2, [r3, #4]
 4429 00e0 5A68     		ldr	r2, [r3, #4]
 4430 00e2 42F40062 		orr	r2, r2, #2048
 4431 00e6 5A60     		str	r2, [r3, #4]
 4432              	.L667:
 4433 00e8 03B0     		add	sp, sp, #12
 4434              		@ sp needed
 4435 00ea BDE8F083 		pop	{r4, r5, r6, r7, r8, r9, pc}
 4436              	.L668:
 4437 00ee 90F83D20 		ldrb	r2, [r0, #61]	@ zero_extendqisi2
 4438 00f2 292A     		cmp	r2, #41
 4439 00f4 B9D1     		bne	.L670
 4440 00f6 5A68     		ldr	r2, [r3, #4]
 4441 00f8 1205     		lsls	r2, r2, #20
 4442 00fa B6D5     		bpl	.L670
 4443 00fc 5A68     		ldr	r2, [r3, #4]
 4444 00fe 406B     		ldr	r0, [r0, #52]
 4445 0100 22F40062 		bic	r2, r2, #2048
 4446 0104 5A60     		str	r2, [r3, #4]
 4447 0106 0028     		cmp	r0, #0
 4448 0108 AFD0     		beq	.L670
 4449 010a 0B4B     		ldr	r3, .L694
 4450 010c 4363     		str	r3, [r0, #52]
 4451 010e FFF7FEFF 		bl	HAL_DMA_Abort_IT
 4452 0112 0028     		cmp	r0, #0
 4453 0114 A9D0     		beq	.L670
 4454 0116 606B     		ldr	r0, [r4, #52]
 4455 0118 A5E7     		b	.L693
 4456              	.L673:
 4457 011a 84F83D70 		strb	r7, [r4, #61]
 4458 011e 84F83E50 		strb	r5, [r4, #62]
 4459 0122 236C     		ldr	r3, [r4, #64]
 4460 0124 84F83C50 		strb	r5, [r4, #60]
 4461 0128 43F01003 		orr	r3, r3, #16
 4462 012c 2364     		str	r3, [r4, #64]
ARM GAS  /tmp/cc5JP12Q.s 			page 78


 4463              	.L676:
 4464 012e 0120     		movs	r0, #1
 4465 0130 DAE7     		b	.L667
 4466              	.L677:
 4467 0132 0220     		movs	r0, #2
 4468 0134 D8E7     		b	.L667
 4469              	.L695:
 4470 0136 00BF     		.align	2
 4471              	.L694:
 4472 0138 00000000 		.word	I2C_DMAAbort
 4473 013c 00000000 		.word	I2C_DMAXferCplt
 4474 0140 00000000 		.word	I2C_DMAError
 4476              		.section	.text.HAL_I2C_Slave_Seq_Receive_IT,"ax",%progbits
 4477              		.align	1
 4478              		.global	HAL_I2C_Slave_Seq_Receive_IT
 4479              		.syntax unified
 4480              		.thumb
 4481              		.thumb_func
 4482              		.fpu softvfp
 4484              	HAL_I2C_Slave_Seq_Receive_IT:
 4485              		@ args = 0, pretend = 0, frame = 8
 4486              		@ frame_needed = 0, uses_anonymous_args = 0
 4487 0000 37B5     		push	{r0, r1, r2, r4, r5, lr}
 4488 0002 90F83D40 		ldrb	r4, [r0, #61]	@ zero_extendqisi2
 4489 0006 04F02804 		and	r4, r4, #40
 4490 000a 282C     		cmp	r4, #40
 4491 000c 34D1     		bne	.L702
 4492 000e 0029     		cmp	r1, #0
 4493 0010 30D0     		beq	.L701
 4494 0012 002A     		cmp	r2, #0
 4495 0014 2ED0     		beq	.L701
 4496 0016 90F83C40 		ldrb	r4, [r0, #60]	@ zero_extendqisi2
 4497 001a 012C     		cmp	r4, #1
 4498 001c 2CD0     		beq	.L702
 4499 001e 0124     		movs	r4, #1
 4500 0020 0568     		ldr	r5, [r0]
 4501 0022 80F83C40 		strb	r4, [r0, #60]
 4502 0026 2C68     		ldr	r4, [r5]
 4503 0028 E407     		lsls	r4, r4, #31
 4504 002a 5EBF     		ittt	pl
 4505 002c 2C68     		ldrpl	r4, [r5]
 4506 002e 44F00104 		orrpl	r4, r4, #1
 4507 0032 2C60     		strpl	r4, [r5]
 4508 0034 2C68     		ldr	r4, [r5]
 4509 0036 24F40064 		bic	r4, r4, #2048
 4510 003a 2C60     		str	r4, [r5]
 4511 003c 2A24     		movs	r4, #42
 4512 003e 80F83D40 		strb	r4, [r0, #61]
 4513 0042 2024     		movs	r4, #32
 4514 0044 80F83E40 		strb	r4, [r0, #62]
 4515 0048 0024     		movs	r4, #0
 4516 004a 0464     		str	r4, [r0, #64]
 4517 004c 4285     		strh	r2, [r0, #42]	@ movhi
 4518 004e 428D     		ldrh	r2, [r0, #42]
 4519 0050 C362     		str	r3, [r0, #44]
 4520 0052 0194     		str	r4, [sp, #4]
 4521 0054 6B69     		ldr	r3, [r5, #20]
ARM GAS  /tmp/cc5JP12Q.s 			page 79


 4522 0056 4162     		str	r1, [r0, #36]
 4523 0058 0193     		str	r3, [sp, #4]
 4524 005a AB69     		ldr	r3, [r5, #24]
 4525 005c 0285     		strh	r2, [r0, #40]	@ movhi
 4526 005e 80F83C40 		strb	r4, [r0, #60]
 4527 0062 2046     		mov	r0, r4
 4528 0064 0193     		str	r3, [sp, #4]
 4529 0066 019B     		ldr	r3, [sp, #4]
 4530 0068 6B68     		ldr	r3, [r5, #4]
 4531 006a 43F4E063 		orr	r3, r3, #1792
 4532 006e 6B60     		str	r3, [r5, #4]
 4533              	.L697:
 4534 0070 03B0     		add	sp, sp, #12
 4535              		@ sp needed
 4536 0072 30BD     		pop	{r4, r5, pc}
 4537              	.L701:
 4538 0074 0120     		movs	r0, #1
 4539 0076 FBE7     		b	.L697
 4540              	.L702:
 4541 0078 0220     		movs	r0, #2
 4542 007a F9E7     		b	.L697
 4544              		.section	.text.HAL_I2C_Slave_Seq_Receive_DMA,"ax",%progbits
 4545              		.align	1
 4546              		.global	HAL_I2C_Slave_Seq_Receive_DMA
 4547              		.syntax unified
 4548              		.thumb
 4549              		.thumb_func
 4550              		.fpu softvfp
 4552              	HAL_I2C_Slave_Seq_Receive_DMA:
 4553              		@ args = 0, pretend = 0, frame = 8
 4554              		@ frame_needed = 0, uses_anonymous_args = 0
 4555 0000 2DE9F743 		push	{r0, r1, r2, r4, r5, r6, r7, r8, r9, lr}
 4556 0004 9946     		mov	r9, r3
 4557 0006 90F83D30 		ldrb	r3, [r0, #61]	@ zero_extendqisi2
 4558 000a 0446     		mov	r4, r0
 4559 000c 03F02803 		and	r3, r3, #40
 4560 0010 282B     		cmp	r3, #40
 4561 0012 0E46     		mov	r6, r1
 4562 0014 9046     		mov	r8, r2
 4563 0016 40F08C80 		bne	.L714
 4564 001a 0029     		cmp	r1, #0
 4565 001c 00F08780 		beq	.L713
 4566 0020 002A     		cmp	r2, #0
 4567 0022 00F08480 		beq	.L713
 4568 0026 90F83C30 		ldrb	r3, [r0, #60]	@ zero_extendqisi2
 4569 002a 012B     		cmp	r3, #1
 4570 002c 00F08180 		beq	.L714
 4571 0030 0123     		movs	r3, #1
 4572 0032 80F83C30 		strb	r3, [r0, #60]
 4573 0036 0368     		ldr	r3, [r0]
 4574 0038 5A68     		ldr	r2, [r3, #4]
 4575 003a 22F44072 		bic	r2, r2, #768
 4576 003e 5A60     		str	r2, [r3, #4]
 4577 0040 90F83D20 		ldrb	r2, [r0, #61]	@ zero_extendqisi2
 4578 0044 2A2A     		cmp	r2, #42
 4579 0046 52D1     		bne	.L705
 4580 0048 5A68     		ldr	r2, [r3, #4]
ARM GAS  /tmp/cc5JP12Q.s 			page 80


 4581 004a 1105     		lsls	r1, r2, #20
 4582 004c 0DD5     		bpl	.L707
 4583 004e 806B     		ldr	r0, [r0, #56]
 4584 0050 58B1     		cbz	r0, .L707
 4585 0052 5A68     		ldr	r2, [r3, #4]
 4586 0054 22F40062 		bic	r2, r2, #2048
 4587 0058 5A60     		str	r2, [r3, #4]
 4588 005a 374B     		ldr	r3, .L731
 4589 005c 4363     		str	r3, [r0, #52]
 4590 005e FFF7FEFF 		bl	HAL_DMA_Abort_IT
 4591 0062 10B1     		cbz	r0, .L707
 4592 0064 A06B     		ldr	r0, [r4, #56]
 4593              	.L730:
 4594 0066 436B     		ldr	r3, [r0, #52]
 4595 0068 9847     		blx	r3
 4596              	.L707:
 4597 006a 2168     		ldr	r1, [r4]
 4598 006c 0025     		movs	r5, #0
 4599 006e 0B68     		ldr	r3, [r1]
 4600 0070 2027     		movs	r7, #32
 4601 0072 DB07     		lsls	r3, r3, #31
 4602 0074 58BF     		it	pl
 4603 0076 0B68     		ldrpl	r3, [r1]
 4604 0078 A06B     		ldr	r0, [r4, #56]
 4605 007a 5CBF     		itt	pl
 4606 007c 43F00103 		orrpl	r3, r3, #1
 4607 0080 0B60     		strpl	r3, [r1]
 4608 0082 0B68     		ldr	r3, [r1]
 4609 0084 2D4A     		ldr	r2, .L731+4
 4610 0086 23F40063 		bic	r3, r3, #2048
 4611 008a 41F8103B 		str	r3, [r1], #16
 4612 008e 2A23     		movs	r3, #42
 4613 0090 84F83D30 		strb	r3, [r4, #61]
 4614 0094 84F83E70 		strb	r7, [r4, #62]
 4615 0098 2564     		str	r5, [r4, #64]
 4616 009a A4F82A80 		strh	r8, [r4, #42]	@ movhi
 4617 009e 638D     		ldrh	r3, [r4, #42]
 4618 00a0 6662     		str	r6, [r4, #36]
 4619 00a2 9BB2     		uxth	r3, r3
 4620 00a4 2385     		strh	r3, [r4, #40]	@ movhi
 4621 00a6 C4F82C90 		str	r9, [r4, #44]
 4622 00aa 8262     		str	r2, [r0, #40]
 4623 00ac 244A     		ldr	r2, .L731+8
 4624 00ae C562     		str	r5, [r0, #44]
 4625 00b0 0263     		str	r2, [r0, #48]
 4626 00b2 4563     		str	r5, [r0, #52]
 4627 00b4 3246     		mov	r2, r6
 4628 00b6 FFF7FEFF 		bl	HAL_DMA_Start_IT
 4629 00ba 0028     		cmp	r0, #0
 4630 00bc 2DD1     		bne	.L710
 4631 00be 2368     		ldr	r3, [r4]
 4632 00c0 1A68     		ldr	r2, [r3]
 4633 00c2 42F48062 		orr	r2, r2, #1024
 4634 00c6 1A60     		str	r2, [r3]
 4635 00c8 0190     		str	r0, [sp, #4]
 4636 00ca 5A69     		ldr	r2, [r3, #20]
 4637 00cc 0192     		str	r2, [sp, #4]
ARM GAS  /tmp/cc5JP12Q.s 			page 81


 4638 00ce 9A69     		ldr	r2, [r3, #24]
 4639 00d0 84F83C00 		strb	r0, [r4, #60]
 4640 00d4 0192     		str	r2, [sp, #4]
 4641 00d6 019A     		ldr	r2, [sp, #4]
 4642 00d8 5A68     		ldr	r2, [r3, #4]
 4643 00da 42F40062 		orr	r2, r2, #2048
 4644 00de 5A60     		str	r2, [r3, #4]
 4645 00e0 5A68     		ldr	r2, [r3, #4]
 4646 00e2 42F44072 		orr	r2, r2, #768
 4647 00e6 5A60     		str	r2, [r3, #4]
 4648              	.L704:
 4649 00e8 03B0     		add	sp, sp, #12
 4650              		@ sp needed
 4651 00ea BDE8F083 		pop	{r4, r5, r6, r7, r8, r9, pc}
 4652              	.L705:
 4653 00ee 90F83D20 		ldrb	r2, [r0, #61]	@ zero_extendqisi2
 4654 00f2 292A     		cmp	r2, #41
 4655 00f4 B9D1     		bne	.L707
 4656 00f6 5A68     		ldr	r2, [r3, #4]
 4657 00f8 1205     		lsls	r2, r2, #20
 4658 00fa B6D5     		bpl	.L707
 4659 00fc 5A68     		ldr	r2, [r3, #4]
 4660 00fe 406B     		ldr	r0, [r0, #52]
 4661 0100 22F40062 		bic	r2, r2, #2048
 4662 0104 5A60     		str	r2, [r3, #4]
 4663 0106 0028     		cmp	r0, #0
 4664 0108 AFD0     		beq	.L707
 4665 010a 0B4B     		ldr	r3, .L731
 4666 010c 4363     		str	r3, [r0, #52]
 4667 010e FFF7FEFF 		bl	HAL_DMA_Abort_IT
 4668 0112 0028     		cmp	r0, #0
 4669 0114 A9D0     		beq	.L707
 4670 0116 606B     		ldr	r0, [r4, #52]
 4671 0118 A5E7     		b	.L730
 4672              	.L710:
 4673 011a 84F83D70 		strb	r7, [r4, #61]
 4674 011e 84F83E50 		strb	r5, [r4, #62]
 4675 0122 236C     		ldr	r3, [r4, #64]
 4676 0124 84F83C50 		strb	r5, [r4, #60]
 4677 0128 43F01003 		orr	r3, r3, #16
 4678 012c 2364     		str	r3, [r4, #64]
 4679              	.L713:
 4680 012e 0120     		movs	r0, #1
 4681 0130 DAE7     		b	.L704
 4682              	.L714:
 4683 0132 0220     		movs	r0, #2
 4684 0134 D8E7     		b	.L704
 4685              	.L732:
 4686 0136 00BF     		.align	2
 4687              	.L731:
 4688 0138 00000000 		.word	I2C_DMAAbort
 4689 013c 00000000 		.word	I2C_DMAXferCplt
 4690 0140 00000000 		.word	I2C_DMAError
 4692              		.section	.text.HAL_I2C_EnableListen_IT,"ax",%progbits
 4693              		.align	1
 4694              		.global	HAL_I2C_EnableListen_IT
 4695              		.syntax unified
ARM GAS  /tmp/cc5JP12Q.s 			page 82


 4696              		.thumb
 4697              		.thumb_func
 4698              		.fpu softvfp
 4700              	HAL_I2C_EnableListen_IT:
 4701              		@ args = 0, pretend = 0, frame = 0
 4702              		@ frame_needed = 0, uses_anonymous_args = 0
 4703              		@ link register save eliminated.
 4704 0000 90F83D30 		ldrb	r3, [r0, #61]	@ zero_extendqisi2
 4705 0004 202B     		cmp	r3, #32
 4706 0006 14D1     		bne	.L736
 4707 0008 2823     		movs	r3, #40
 4708 000a 80F83D30 		strb	r3, [r0, #61]
 4709 000e 0368     		ldr	r3, [r0]
 4710 0010 0020     		movs	r0, #0
 4711 0012 1A68     		ldr	r2, [r3]
 4712 0014 D207     		lsls	r2, r2, #31
 4713 0016 5EBF     		ittt	pl
 4714 0018 1A68     		ldrpl	r2, [r3]
 4715 001a 42F00102 		orrpl	r2, r2, #1
 4716 001e 1A60     		strpl	r2, [r3]
 4717 0020 1A68     		ldr	r2, [r3]
 4718 0022 42F48062 		orr	r2, r2, #1024
 4719 0026 1A60     		str	r2, [r3]
 4720 0028 5A68     		ldr	r2, [r3, #4]
 4721 002a 42F44072 		orr	r2, r2, #768
 4722 002e 5A60     		str	r2, [r3, #4]
 4723 0030 7047     		bx	lr
 4724              	.L736:
 4725 0032 0220     		movs	r0, #2
 4726 0034 7047     		bx	lr
 4728              		.section	.text.HAL_I2C_DisableListen_IT,"ax",%progbits
 4729              		.align	1
 4730              		.global	HAL_I2C_DisableListen_IT
 4731              		.syntax unified
 4732              		.thumb
 4733              		.thumb_func
 4734              		.fpu softvfp
 4736              	HAL_I2C_DisableListen_IT:
 4737              		@ args = 0, pretend = 0, frame = 0
 4738              		@ frame_needed = 0, uses_anonymous_args = 0
 4739              		@ link register save eliminated.
 4740 0000 90F83D30 		ldrb	r3, [r0, #61]	@ zero_extendqisi2
 4741 0004 282B     		cmp	r3, #40
 4742 0006 18D1     		bne	.L739
 4743 0008 90F83D20 		ldrb	r2, [r0, #61]	@ zero_extendqisi2
 4744 000c 90F83E30 		ldrb	r3, [r0, #62]	@ zero_extendqisi2
 4745 0010 02F00302 		and	r2, r2, #3
 4746 0014 1343     		orrs	r3, r3, r2
 4747 0016 0363     		str	r3, [r0, #48]
 4748 0018 2023     		movs	r3, #32
 4749 001a 80F83D30 		strb	r3, [r0, #61]
 4750 001e 0023     		movs	r3, #0
 4751 0020 0268     		ldr	r2, [r0]
 4752 0022 80F83E30 		strb	r3, [r0, #62]
 4753 0026 1168     		ldr	r1, [r2]
 4754 0028 1846     		mov	r0, r3
 4755 002a 21F48061 		bic	r1, r1, #1024
ARM GAS  /tmp/cc5JP12Q.s 			page 83


 4756 002e 1160     		str	r1, [r2]
 4757 0030 5168     		ldr	r1, [r2, #4]
 4758 0032 21F44071 		bic	r1, r1, #768
 4759 0036 5160     		str	r1, [r2, #4]
 4760 0038 7047     		bx	lr
 4761              	.L739:
 4762 003a 0220     		movs	r0, #2
 4763 003c 7047     		bx	lr
 4765              		.section	.text.HAL_I2C_MasterTxCpltCallback,"ax",%progbits
 4766              		.align	1
 4767              		.weak	HAL_I2C_MasterTxCpltCallback
 4768              		.syntax unified
 4769              		.thumb
 4770              		.thumb_func
 4771              		.fpu softvfp
 4773              	HAL_I2C_MasterTxCpltCallback:
 4774              		@ args = 0, pretend = 0, frame = 0
 4775              		@ frame_needed = 0, uses_anonymous_args = 0
 4776              		@ link register save eliminated.
 4777 0000 7047     		bx	lr
 4779              		.section	.text.HAL_I2C_MasterRxCpltCallback,"ax",%progbits
 4780              		.align	1
 4781              		.weak	HAL_I2C_MasterRxCpltCallback
 4782              		.syntax unified
 4783              		.thumb
 4784              		.thumb_func
 4785              		.fpu softvfp
 4787              	HAL_I2C_MasterRxCpltCallback:
 4788              		@ args = 0, pretend = 0, frame = 0
 4789              		@ frame_needed = 0, uses_anonymous_args = 0
 4790              		@ link register save eliminated.
 4791 0000 7047     		bx	lr
 4793              		.section	.text.HAL_I2C_SlaveTxCpltCallback,"ax",%progbits
 4794              		.align	1
 4795              		.weak	HAL_I2C_SlaveTxCpltCallback
 4796              		.syntax unified
 4797              		.thumb
 4798              		.thumb_func
 4799              		.fpu softvfp
 4801              	HAL_I2C_SlaveTxCpltCallback:
 4802              		@ args = 0, pretend = 0, frame = 0
 4803              		@ frame_needed = 0, uses_anonymous_args = 0
 4804              		@ link register save eliminated.
 4805 0000 7047     		bx	lr
 4807              		.section	.text.HAL_I2C_SlaveRxCpltCallback,"ax",%progbits
 4808              		.align	1
 4809              		.weak	HAL_I2C_SlaveRxCpltCallback
 4810              		.syntax unified
 4811              		.thumb
 4812              		.thumb_func
 4813              		.fpu softvfp
 4815              	HAL_I2C_SlaveRxCpltCallback:
 4816              		@ args = 0, pretend = 0, frame = 0
 4817              		@ frame_needed = 0, uses_anonymous_args = 0
 4818              		@ link register save eliminated.
 4819 0000 7047     		bx	lr
 4821              		.section	.text.HAL_I2C_AddrCallback,"ax",%progbits
ARM GAS  /tmp/cc5JP12Q.s 			page 84


 4822              		.align	1
 4823              		.weak	HAL_I2C_AddrCallback
 4824              		.syntax unified
 4825              		.thumb
 4826              		.thumb_func
 4827              		.fpu softvfp
 4829              	HAL_I2C_AddrCallback:
 4830              		@ args = 0, pretend = 0, frame = 0
 4831              		@ frame_needed = 0, uses_anonymous_args = 0
 4832              		@ link register save eliminated.
 4833 0000 7047     		bx	lr
 4835              		.section	.text.HAL_I2C_ListenCpltCallback,"ax",%progbits
 4836              		.align	1
 4837              		.weak	HAL_I2C_ListenCpltCallback
 4838              		.syntax unified
 4839              		.thumb
 4840              		.thumb_func
 4841              		.fpu softvfp
 4843              	HAL_I2C_ListenCpltCallback:
 4844              		@ args = 0, pretend = 0, frame = 0
 4845              		@ frame_needed = 0, uses_anonymous_args = 0
 4846              		@ link register save eliminated.
 4847 0000 7047     		bx	lr
 4849              		.section	.text.HAL_I2C_MemTxCpltCallback,"ax",%progbits
 4850              		.align	1
 4851              		.weak	HAL_I2C_MemTxCpltCallback
 4852              		.syntax unified
 4853              		.thumb
 4854              		.thumb_func
 4855              		.fpu softvfp
 4857              	HAL_I2C_MemTxCpltCallback:
 4858              		@ args = 0, pretend = 0, frame = 0
 4859              		@ frame_needed = 0, uses_anonymous_args = 0
 4860              		@ link register save eliminated.
 4861 0000 7047     		bx	lr
 4863              		.section	.text.HAL_I2C_MemRxCpltCallback,"ax",%progbits
 4864              		.align	1
 4865              		.weak	HAL_I2C_MemRxCpltCallback
 4866              		.syntax unified
 4867              		.thumb
 4868              		.thumb_func
 4869              		.fpu softvfp
 4871              	HAL_I2C_MemRxCpltCallback:
 4872              		@ args = 0, pretend = 0, frame = 0
 4873              		@ frame_needed = 0, uses_anonymous_args = 0
 4874              		@ link register save eliminated.
 4875 0000 7047     		bx	lr
 4877              		.section	.text.HAL_I2C_ErrorCallback,"ax",%progbits
 4878              		.align	1
 4879              		.weak	HAL_I2C_ErrorCallback
 4880              		.syntax unified
 4881              		.thumb
 4882              		.thumb_func
 4883              		.fpu softvfp
 4885              	HAL_I2C_ErrorCallback:
 4886              		@ args = 0, pretend = 0, frame = 0
 4887              		@ frame_needed = 0, uses_anonymous_args = 0
ARM GAS  /tmp/cc5JP12Q.s 			page 85


 4888              		@ link register save eliminated.
 4889 0000 7047     		bx	lr
 4891              		.section	.text.I2C_DMAError,"ax",%progbits
 4892              		.align	1
 4893              		.syntax unified
 4894              		.thumb
 4895              		.thumb_func
 4896              		.fpu softvfp
 4898              	I2C_DMAError:
 4899              		@ args = 0, pretend = 0, frame = 0
 4900              		@ frame_needed = 0, uses_anonymous_args = 0
 4901 0000 08B5     		push	{r3, lr}
 4902 0002 0023     		movs	r3, #0
 4903 0004 406A     		ldr	r0, [r0, #36]
 4904 0006 426B     		ldr	r2, [r0, #52]
 4905 0008 0168     		ldr	r1, [r0]
 4906 000a 9362     		str	r3, [r2, #40]
 4907 000c 826B     		ldr	r2, [r0, #56]
 4908 000e 9362     		str	r3, [r2, #40]
 4909 0010 0A68     		ldr	r2, [r1]
 4910 0012 22F48062 		bic	r2, r2, #1024
 4911 0016 0A60     		str	r2, [r1]
 4912 0018 2022     		movs	r2, #32
 4913 001a 4385     		strh	r3, [r0, #42]	@ movhi
 4914 001c 80F83D20 		strb	r2, [r0, #61]
 4915 0020 80F83E30 		strb	r3, [r0, #62]
 4916 0024 036C     		ldr	r3, [r0, #64]
 4917 0026 43F01003 		orr	r3, r3, #16
 4918 002a 0364     		str	r3, [r0, #64]
 4919 002c FFF7FEFF 		bl	HAL_I2C_ErrorCallback
 4920 0030 08BD     		pop	{r3, pc}
 4922              		.section	.text.I2C_DMAXferCplt,"ax",%progbits
 4923              		.align	1
 4924              		.syntax unified
 4925              		.thumb
 4926              		.thumb_func
 4927              		.fpu softvfp
 4929              	I2C_DMAXferCplt:
 4930              		@ args = 0, pretend = 0, frame = 0
 4931              		@ frame_needed = 0, uses_anonymous_args = 0
 4932 0000 70B5     		push	{r4, r5, r6, lr}
 4933 0002 446A     		ldr	r4, [r0, #36]
 4934 0004 2368     		ldr	r3, [r4]
 4935 0006 94F83D20 		ldrb	r2, [r4, #61]	@ zero_extendqisi2
 4936 000a 94F83E00 		ldrb	r0, [r4, #62]	@ zero_extendqisi2
 4937 000e E16A     		ldr	r1, [r4, #44]
 4938 0010 5D68     		ldr	r5, [r3, #4]
 4939 0012 666B     		ldr	r6, [r4, #52]
 4940 0014 25F44075 		bic	r5, r5, #768
 4941 0018 5D60     		str	r5, [r3, #4]
 4942 001a 0025     		movs	r5, #0
 4943 001c B562     		str	r5, [r6, #40]
 4944 001e A66B     		ldr	r6, [r4, #56]
 4945 0020 D2B2     		uxtb	r2, r2
 4946 0022 B562     		str	r5, [r6, #40]
 4947 0024 02F02105 		and	r5, r2, #33
 4948 0028 212D     		cmp	r5, #33
ARM GAS  /tmp/cc5JP12Q.s 			page 86


 4949 002a C0B2     		uxtb	r0, r0
 4950 002c 05D0     		beq	.L751
 4951 002e 02F02205 		and	r5, r2, #34
 4952 0032 222D     		cmp	r5, #34
 4953 0034 23D1     		bne	.L752
 4954 0036 2028     		cmp	r0, #32
 4955 0038 21D1     		bne	.L752
 4956              	.L751:
 4957 003a 5968     		ldr	r1, [r3, #4]
 4958 003c 292A     		cmp	r2, #41
 4959 003e 21F40061 		bic	r1, r1, #2048
 4960 0042 5960     		str	r1, [r3, #4]
 4961 0044 4FF00003 		mov	r3, #0
 4962 0048 6385     		strh	r3, [r4, #42]	@ movhi
 4963 004a 0DD1     		bne	.L753
 4964 004c 2123     		movs	r3, #33
 4965 004e 2363     		str	r3, [r4, #48]
 4966 0050 2823     		movs	r3, #40
 4967 0052 2046     		mov	r0, r4
 4968 0054 84F83D30 		strb	r3, [r4, #61]
 4969 0058 FFF7FEFF 		bl	HAL_I2C_SlaveTxCpltCallback
 4970              	.L754:
 4971 005c 2268     		ldr	r2, [r4]
 4972 005e 5368     		ldr	r3, [r2, #4]
 4973 0060 43F44073 		orr	r3, r3, #768
 4974 0064 5360     		str	r3, [r2, #4]
 4975 0066 70BD     		pop	{r4, r5, r6, pc}
 4976              	.L753:
 4977 0068 2A2A     		cmp	r2, #42
 4978 006a F7D1     		bne	.L754
 4979 006c 2223     		movs	r3, #34
 4980 006e 2363     		str	r3, [r4, #48]
 4981 0070 2823     		movs	r3, #40
 4982 0072 2046     		mov	r0, r4
 4983 0074 84F83D30 		strb	r3, [r4, #61]
 4984 0078 FFF7FEFF 		bl	HAL_I2C_SlaveRxCpltCallback
 4985 007c EEE7     		b	.L754
 4986              	.L752:
 4987 007e 94F83E20 		ldrb	r2, [r4, #62]	@ zero_extendqisi2
 4988 0082 002A     		cmp	r2, #0
 4989 0084 3CD0     		beq	.L750
 4990 0086 628D     		ldrh	r2, [r4, #42]
 4991 0088 92B2     		uxth	r2, r2
 4992 008a 012A     		cmp	r2, #1
 4993 008c 02BF     		ittt	eq
 4994 008e 1A68     		ldreq	r2, [r3]
 4995 0090 22F48062 		biceq	r2, r2, #1024
 4996 0094 1A60     		streq	r2, [r3]
 4997 0096 5A68     		ldr	r2, [r3, #4]
 4998 0098 11F5803F 		cmn	r1, #65536
 4999 009c 22F44072 		bic	r2, r2, #768
 5000 00a0 5A60     		str	r2, [r3, #4]
 5001 00a2 06D0     		beq	.L757
 5002 00a4 0829     		cmp	r1, #8
 5003 00a6 04D0     		beq	.L757
 5004 00a8 B1F12A4F 		cmp	r1, #-1442840576
 5005 00ac 01D0     		beq	.L757
ARM GAS  /tmp/cc5JP12Q.s 			page 87


 5006 00ae 2029     		cmp	r1, #32
 5007 00b0 03D1     		bne	.L758
 5008              	.L757:
 5009 00b2 1A68     		ldr	r2, [r3]
 5010 00b4 42F40072 		orr	r2, r2, #512
 5011 00b8 1A60     		str	r2, [r3]
 5012              	.L758:
 5013 00ba 5A68     		ldr	r2, [r3, #4]
 5014 00bc 22F48052 		bic	r2, r2, #4096
 5015 00c0 5A60     		str	r2, [r3, #4]
 5016 00c2 5A68     		ldr	r2, [r3, #4]
 5017 00c4 22F40062 		bic	r2, r2, #2048
 5018 00c8 5A60     		str	r2, [r3, #4]
 5019 00ca 0023     		movs	r3, #0
 5020 00cc 6385     		strh	r3, [r4, #42]	@ movhi
 5021 00ce 236C     		ldr	r3, [r4, #64]
 5022 00d0 1BB1     		cbz	r3, .L759
 5023 00d2 2046     		mov	r0, r4
 5024 00d4 FFF7FEFF 		bl	HAL_I2C_ErrorCallback
 5025 00d8 70BD     		pop	{r4, r5, r6, pc}
 5026              	.L759:
 5027 00da 2022     		movs	r2, #32
 5028 00dc 84F83D20 		strb	r2, [r4, #61]
 5029 00e0 94F83E20 		ldrb	r2, [r4, #62]	@ zero_extendqisi2
 5030 00e4 84F83E30 		strb	r3, [r4, #62]
 5031 00e8 402A     		cmp	r2, #64
 5032 00ea 04D1     		bne	.L760
 5033 00ec 2363     		str	r3, [r4, #48]
 5034 00ee 2046     		mov	r0, r4
 5035 00f0 FFF7FEFF 		bl	HAL_I2C_MemRxCpltCallback
 5036 00f4 70BD     		pop	{r4, r5, r6, pc}
 5037              	.L760:
 5038 00f6 1223     		movs	r3, #18
 5039 00f8 2046     		mov	r0, r4
 5040 00fa 2363     		str	r3, [r4, #48]
 5041 00fc FFF7FEFF 		bl	HAL_I2C_MasterRxCpltCallback
 5042              	.L750:
 5043 0100 70BD     		pop	{r4, r5, r6, pc}
 5045              		.section	.text.HAL_I2C_AbortCpltCallback,"ax",%progbits
 5046              		.align	1
 5047              		.weak	HAL_I2C_AbortCpltCallback
 5048              		.syntax unified
 5049              		.thumb
 5050              		.thumb_func
 5051              		.fpu softvfp
 5053              	HAL_I2C_AbortCpltCallback:
 5054              		@ args = 0, pretend = 0, frame = 0
 5055              		@ frame_needed = 0, uses_anonymous_args = 0
 5056              		@ link register save eliminated.
 5057 0000 7047     		bx	lr
 5059              		.section	.text.I2C_DMAAbort,"ax",%progbits
 5060              		.align	1
 5061              		.syntax unified
 5062              		.thumb
 5063              		.thumb_func
 5064              		.fpu softvfp
 5066              	I2C_DMAAbort:
ARM GAS  /tmp/cc5JP12Q.s 			page 88


 5067              		@ args = 0, pretend = 0, frame = 0
 5068              		@ frame_needed = 0, uses_anonymous_args = 0
 5069 0000 0023     		movs	r3, #0
 5070 0002 406A     		ldr	r0, [r0, #36]
 5071 0004 70B5     		push	{r4, r5, r6, lr}
 5072 0006 0268     		ldr	r2, [r0]
 5073 0008 90F83D10 		ldrb	r1, [r0, #61]	@ zero_extendqisi2
 5074 000c 1468     		ldr	r4, [r2]
 5075 000e 466B     		ldr	r6, [r0, #52]
 5076 0010 856B     		ldr	r5, [r0, #56]
 5077 0012 24F48064 		bic	r4, r4, #1024
 5078 0016 B362     		str	r3, [r6, #40]
 5079 0018 AB62     		str	r3, [r5, #40]
 5080 001a 1460     		str	r4, [r2]
 5081 001c 4385     		strh	r3, [r0, #42]	@ movhi
 5082 001e 1468     		ldr	r4, [r2]
 5083 0020 7363     		str	r3, [r6, #52]
 5084 0022 24F00104 		bic	r4, r4, #1
 5085 0026 6B63     		str	r3, [r5, #52]
 5086 0028 1460     		str	r4, [r2]
 5087 002a 90F83D40 		ldrb	r4, [r0, #61]	@ zero_extendqisi2
 5088 002e C9B2     		uxtb	r1, r1
 5089 0030 602C     		cmp	r4, #96
 5090 0032 08D1     		bne	.L778
 5091 0034 2022     		movs	r2, #32
 5092 0036 80F83D20 		strb	r2, [r0, #61]
 5093 003a 80F83E30 		strb	r3, [r0, #62]
 5094 003e 0364     		str	r3, [r0, #64]
 5095 0040 FFF7FEFF 		bl	HAL_I2C_AbortCpltCallback
 5096 0044 70BD     		pop	{r4, r5, r6, pc}
 5097              	.L778:
 5098 0046 01F02801 		and	r1, r1, #40
 5099 004a 2829     		cmp	r1, #40
 5100 004c 0DD1     		bne	.L780
 5101 004e 1468     		ldr	r4, [r2]
 5102 0050 44F00104 		orr	r4, r4, #1
 5103 0054 1460     		str	r4, [r2]
 5104 0056 1468     		ldr	r4, [r2]
 5105 0058 44F48064 		orr	r4, r4, #1024
 5106 005c 1460     		str	r4, [r2]
 5107 005e 0363     		str	r3, [r0, #48]
 5108 0060 80F83D10 		strb	r1, [r0, #61]
 5109              	.L781:
 5110 0064 FFF7FEFF 		bl	HAL_I2C_ErrorCallback
 5111 0068 70BD     		pop	{r4, r5, r6, pc}
 5112              	.L780:
 5113 006a 2022     		movs	r2, #32
 5114 006c 80F83D20 		strb	r2, [r0, #61]
 5115 0070 80F83E30 		strb	r3, [r0, #62]
 5116 0074 F6E7     		b	.L781
 5118              		.section	.text.I2C_ITError,"ax",%progbits
 5119              		.align	1
 5120              		.syntax unified
 5121              		.thumb
 5122              		.thumb_func
 5123              		.fpu softvfp
 5125              	I2C_ITError:
ARM GAS  /tmp/cc5JP12Q.s 			page 89


 5126              		@ args = 0, pretend = 0, frame = 0
 5127              		@ frame_needed = 0, uses_anonymous_args = 0
 5128 0000 90F83D20 		ldrb	r2, [r0, #61]	@ zero_extendqisi2
 5129 0004 90F83E30 		ldrb	r3, [r0, #62]	@ zero_extendqisi2
 5130 0008 10B5     		push	{r4, lr}
 5131 000a 102B     		cmp	r3, #16
 5132 000c 0446     		mov	r4, r0
 5133 000e D2B2     		uxtb	r2, r2
 5134 0010 0368     		ldr	r3, [r0]
 5135 0012 05D1     		bne	.L783
 5136 0014 222A     		cmp	r2, #34
 5137 0016 02BF     		ittt	eq
 5138 0018 1968     		ldreq	r1, [r3]
 5139 001a 21F40061 		biceq	r1, r1, #2048
 5140 001e 1960     		streq	r1, [r3]
 5141              	.L783:
 5142 0020 02F02801 		and	r1, r2, #40
 5143 0024 2829     		cmp	r1, #40
 5144 0026 3AD1     		bne	.L784
 5145 0028 0022     		movs	r2, #0
 5146 002a 2263     		str	r2, [r4, #48]
 5147 002c 84F83D10 		strb	r1, [r4, #61]
 5148              	.L785:
 5149 0030 5A68     		ldr	r2, [r3, #4]
 5150 0032 12F40062 		ands	r2, r2, #2048
 5151 0036 59D0     		beq	.L787
 5152 0038 5A68     		ldr	r2, [r3, #4]
 5153 003a 606B     		ldr	r0, [r4, #52]
 5154 003c 22F40062 		bic	r2, r2, #2048
 5155 0040 5A60     		str	r2, [r3, #4]
 5156 0042 90F82130 		ldrb	r3, [r0, #33]	@ zero_extendqisi2
 5157 0046 012B     		cmp	r3, #1
 5158 0048 3C4B     		ldr	r3, .L816
 5159 004a 35D0     		beq	.L788
 5160 004c 4363     		str	r3, [r0, #52]
 5161 004e FFF7FEFF 		bl	HAL_DMA_Abort_IT
 5162 0052 50B1     		cbz	r0, .L790
 5163 0054 2268     		ldr	r2, [r4]
 5164 0056 606B     		ldr	r0, [r4, #52]
 5165 0058 1368     		ldr	r3, [r2]
 5166 005a 23F00103 		bic	r3, r3, #1
 5167 005e 1360     		str	r3, [r2]
 5168 0060 2023     		movs	r3, #32
 5169 0062 84F83D30 		strb	r3, [r4, #61]
 5170              	.L815:
 5171 0066 436B     		ldr	r3, [r0, #52]
 5172 0068 9847     		blx	r3
 5173              	.L790:
 5174 006a 94F83D30 		ldrb	r3, [r4, #61]	@ zero_extendqisi2
 5175 006e 226C     		ldr	r2, [r4, #64]
 5176 0070 DBB2     		uxtb	r3, r3
 5177 0072 5207     		lsls	r2, r2, #29
 5178 0074 12D5     		bpl	.L782
 5179 0076 282B     		cmp	r3, #40
 5180 0078 10D1     		bne	.L782
 5181 007a 2268     		ldr	r2, [r4]
 5182 007c 2046     		mov	r0, r4
ARM GAS  /tmp/cc5JP12Q.s 			page 90


 5183 007e 5368     		ldr	r3, [r2, #4]
 5184 0080 23F4E063 		bic	r3, r3, #1792
 5185 0084 5360     		str	r3, [r2, #4]
 5186 0086 2E4B     		ldr	r3, .L816+4
 5187 0088 2022     		movs	r2, #32
 5188 008a E362     		str	r3, [r4, #44]
 5189 008c 0023     		movs	r3, #0
 5190 008e 2363     		str	r3, [r4, #48]
 5191 0090 84F83D20 		strb	r2, [r4, #61]
 5192 0094 84F83E30 		strb	r3, [r4, #62]
 5193 0098 FFF7FEFF 		bl	HAL_I2C_ListenCpltCallback
 5194              	.L782:
 5195 009c 10BD     		pop	{r4, pc}
 5196              	.L784:
 5197 009e 5968     		ldr	r1, [r3, #4]
 5198 00a0 0905     		lsls	r1, r1, #20
 5199 00a2 04D4     		bmi	.L786
 5200 00a4 602A     		cmp	r2, #96
 5201 00a6 1CBF     		itt	ne
 5202 00a8 2022     		movne	r2, #32
 5203 00aa 84F83D20 		strbne	r2, [r4, #61]
 5204              	.L786:
 5205 00ae 0022     		movs	r2, #0
 5206 00b0 2263     		str	r2, [r4, #48]
 5207 00b2 84F83E20 		strb	r2, [r4, #62]
 5208 00b6 BBE7     		b	.L785
 5209              	.L788:
 5210 00b8 A06B     		ldr	r0, [r4, #56]
 5211 00ba 4363     		str	r3, [r0, #52]
 5212 00bc FFF7FEFF 		bl	HAL_DMA_Abort_IT
 5213 00c0 0028     		cmp	r0, #0
 5214 00c2 D2D0     		beq	.L790
 5215 00c4 2368     		ldr	r3, [r4]
 5216 00c6 5A69     		ldr	r2, [r3, #20]
 5217 00c8 5206     		lsls	r2, r2, #25
 5218 00ca 05D5     		bpl	.L792
 5219 00cc 1B69     		ldr	r3, [r3, #16]
 5220 00ce 626A     		ldr	r2, [r4, #36]
 5221 00d0 1370     		strb	r3, [r2]
 5222 00d2 636A     		ldr	r3, [r4, #36]
 5223 00d4 0133     		adds	r3, r3, #1
 5224 00d6 6362     		str	r3, [r4, #36]
 5225              	.L792:
 5226 00d8 2268     		ldr	r2, [r4]
 5227 00da A06B     		ldr	r0, [r4, #56]
 5228 00dc 1368     		ldr	r3, [r2]
 5229 00de 23F00103 		bic	r3, r3, #1
 5230 00e2 1360     		str	r3, [r2]
 5231 00e4 2023     		movs	r3, #32
 5232 00e6 84F83D30 		strb	r3, [r4, #61]
 5233 00ea BCE7     		b	.L815
 5234              	.L787:
 5235 00ec 94F83D10 		ldrb	r1, [r4, #61]	@ zero_extendqisi2
 5236 00f0 6029     		cmp	r1, #96
 5237 00f2 15D1     		bne	.L793
 5238 00f4 2021     		movs	r1, #32
 5239 00f6 84F83D10 		strb	r1, [r4, #61]
ARM GAS  /tmp/cc5JP12Q.s 			page 91


 5240 00fa 2264     		str	r2, [r4, #64]
 5241 00fc 5A69     		ldr	r2, [r3, #20]
 5242 00fe 5006     		lsls	r0, r2, #25
 5243 0100 05D5     		bpl	.L794
 5244 0102 1B69     		ldr	r3, [r3, #16]
 5245 0104 626A     		ldr	r2, [r4, #36]
 5246 0106 1370     		strb	r3, [r2]
 5247 0108 636A     		ldr	r3, [r4, #36]
 5248 010a 0133     		adds	r3, r3, #1
 5249 010c 6362     		str	r3, [r4, #36]
 5250              	.L794:
 5251 010e 2268     		ldr	r2, [r4]
 5252 0110 2046     		mov	r0, r4
 5253 0112 1368     		ldr	r3, [r2]
 5254 0114 23F00103 		bic	r3, r3, #1
 5255 0118 1360     		str	r3, [r2]
 5256 011a FFF7FEFF 		bl	HAL_I2C_AbortCpltCallback
 5257 011e A4E7     		b	.L790
 5258              	.L793:
 5259 0120 5A69     		ldr	r2, [r3, #20]
 5260 0122 5106     		lsls	r1, r2, #25
 5261 0124 05D5     		bpl	.L795
 5262 0126 1B69     		ldr	r3, [r3, #16]
 5263 0128 626A     		ldr	r2, [r4, #36]
 5264 012a 1370     		strb	r3, [r2]
 5265 012c 636A     		ldr	r3, [r4, #36]
 5266 012e 0133     		adds	r3, r3, #1
 5267 0130 6362     		str	r3, [r4, #36]
 5268              	.L795:
 5269 0132 2046     		mov	r0, r4
 5270 0134 FFF7FEFF 		bl	HAL_I2C_ErrorCallback
 5271 0138 97E7     		b	.L790
 5272              	.L817:
 5273 013a 00BF     		.align	2
 5274              	.L816:
 5275 013c 00000000 		.word	I2C_DMAAbort
 5276 0140 0000FFFF 		.word	-65536
 5278              		.section	.text.HAL_I2C_Master_Abort_IT,"ax",%progbits
 5279              		.align	1
 5280              		.global	HAL_I2C_Master_Abort_IT
 5281              		.syntax unified
 5282              		.thumb
 5283              		.thumb_func
 5284              		.fpu softvfp
 5286              	HAL_I2C_Master_Abort_IT:
 5287              		@ args = 0, pretend = 0, frame = 0
 5288              		@ frame_needed = 0, uses_anonymous_args = 0
 5289 0000 90F83E20 		ldrb	r2, [r0, #62]	@ zero_extendqisi2
 5290 0004 10B5     		push	{r4, lr}
 5291 0006 102A     		cmp	r2, #16
 5292 0008 1CD1     		bne	.L820
 5293 000a 90F83C20 		ldrb	r2, [r0, #60]	@ zero_extendqisi2
 5294 000e 012A     		cmp	r2, #1
 5295 0010 1AD0     		beq	.L821
 5296 0012 0024     		movs	r4, #0
 5297 0014 6022     		movs	r2, #96
 5298 0016 0463     		str	r4, [r0, #48]
ARM GAS  /tmp/cc5JP12Q.s 			page 92


 5299 0018 80F83D20 		strb	r2, [r0, #61]
 5300 001c 0268     		ldr	r2, [r0]
 5301 001e 1168     		ldr	r1, [r2]
 5302 0020 21F48061 		bic	r1, r1, #1024
 5303 0024 1160     		str	r1, [r2]
 5304 0026 1168     		ldr	r1, [r2]
 5305 0028 41F40071 		orr	r1, r1, #512
 5306 002c 1160     		str	r1, [r2]
 5307 002e 4485     		strh	r4, [r0, #42]	@ movhi
 5308 0030 5168     		ldr	r1, [r2, #4]
 5309 0032 21F4E061 		bic	r1, r1, #1792
 5310 0036 5160     		str	r1, [r2, #4]
 5311 0038 80F83C40 		strb	r4, [r0, #60]
 5312 003c FFF7FEFF 		bl	I2C_ITError
 5313 0040 2046     		mov	r0, r4
 5314 0042 10BD     		pop	{r4, pc}
 5315              	.L820:
 5316 0044 0120     		movs	r0, #1
 5317 0046 10BD     		pop	{r4, pc}
 5318              	.L821:
 5319 0048 0220     		movs	r0, #2
 5320 004a 10BD     		pop	{r4, pc}
 5322              		.section	.text.HAL_I2C_EV_IRQHandler,"ax",%progbits
 5323              		.align	1
 5324              		.global	HAL_I2C_EV_IRQHandler
 5325              		.syntax unified
 5326              		.thumb
 5327              		.thumb_func
 5328              		.fpu softvfp
 5330              	HAL_I2C_EV_IRQHandler:
 5331              		@ args = 0, pretend = 0, frame = 48
 5332              		@ frame_needed = 0, uses_anonymous_args = 0
 5333 0000 0368     		ldr	r3, [r0]
 5334 0002 30B5     		push	{r4, r5, lr}
 5335 0004 5A68     		ldr	r2, [r3, #4]
 5336 0006 C56A     		ldr	r5, [r0, #44]
 5337 0008 90F83E10 		ldrb	r1, [r0, #62]	@ zero_extendqisi2
 5338 000c 0446     		mov	r4, r0
 5339 000e C9B2     		uxtb	r1, r1
 5340 0010 90F83D00 		ldrb	r0, [r0, #61]	@ zero_extendqisi2
 5341 0014 1029     		cmp	r1, #16
 5342 0016 8DB0     		sub	sp, sp, #52
 5343 0018 C0B2     		uxtb	r0, r0
 5344 001a 02D0     		beq	.L823
 5345 001c 4029     		cmp	r1, #64
 5346 001e 40F0BE82 		bne	.L824
 5347              	.L823:
 5348 0022 9869     		ldr	r0, [r3, #24]
 5349 0024 5969     		ldr	r1, [r3, #20]
 5350 0026 11F0010F 		tst	r1, #1
 5351 002a 07D1     		bne	.L825
 5352 002c B5F52A0F 		cmp	r5, #11141120
 5353 0030 02D0     		beq	.L822
 5354 0032 B5F12A4F 		cmp	r5, #-1442840576
 5355 0036 52D1     		bne	.L829
 5356              	.L822:
 5357 0038 0DB0     		add	sp, sp, #52
ARM GAS  /tmp/cc5JP12Q.s 			page 93


 5358              		@ sp needed
 5359 003a 30BD     		pop	{r4, r5, pc}
 5360              	.L825:
 5361 003c 9505     		lsls	r5, r2, #22
 5362 003e 4ED5     		bpl	.L829
 5363 0040 E26A     		ldr	r2, [r4, #44]
 5364 0042 B2F52A0F 		cmp	r2, #11141120
 5365 0046 0CD1     		bne	.L830
 5366 0048 0122     		movs	r2, #1
 5367              	.L1118:
 5368 004a E262     		str	r2, [r4, #44]
 5369              	.L831:
 5370 004c 94F83E20 		ldrb	r2, [r4, #62]	@ zero_extendqisi2
 5371 0050 402A     		cmp	r2, #64
 5372 0052 11D1     		bne	.L832
 5373 0054 226D     		ldr	r2, [r4, #80]
 5374 0056 52B9     		cbnz	r2, .L833
 5375 0058 626C     		ldr	r2, [r4, #68]
 5376 005a 02F0FE02 		and	r2, r2, #254
 5377              	.L1124:
 5378 005e 1A61     		str	r2, [r3, #16]
 5379 0060 EAE7     		b	.L822
 5380              	.L830:
 5381 0062 E26A     		ldr	r2, [r4, #44]
 5382 0064 B2F12A4F 		cmp	r2, #-1442840576
 5383 0068 F0D1     		bne	.L831
 5384 006a 0822     		movs	r2, #8
 5385 006c EDE7     		b	.L1118
 5386              	.L833:
 5387 006e 626C     		ldr	r2, [r4, #68]
 5388 0070 42F00102 		orr	r2, r2, #1
 5389 0074 D2B2     		uxtb	r2, r2
 5390 0076 F2E7     		b	.L1124
 5391              	.L832:
 5392 0078 2269     		ldr	r2, [r4, #16]
 5393 007a B2F5804F 		cmp	r2, #16384
 5394 007e 1BD1     		bne	.L834
 5395 0080 94F83D20 		ldrb	r2, [r4, #61]	@ zero_extendqisi2
 5396 0084 212A     		cmp	r2, #33
 5397 0086 626C     		ldr	r2, [r4, #68]
 5398 0088 12D1     		bne	.L835
 5399 008a 02F0FE02 		and	r2, r2, #254
 5400              	.L1119:
 5401 008e 1A61     		str	r2, [r3, #16]
 5402 0090 626B     		ldr	r2, [r4, #52]
 5403 0092 12B9     		cbnz	r2, .L841
 5404 0094 A16B     		ldr	r1, [r4, #56]
 5405 0096 0029     		cmp	r1, #0
 5406 0098 CED0     		beq	.L822
 5407              	.L841:
 5408 009a 926A     		ldr	r2, [r2, #40]
 5409 009c 1AB9     		cbnz	r2, .L842
 5410 009e A26B     		ldr	r2, [r4, #56]
 5411 00a0 926A     		ldr	r2, [r2, #40]
 5412 00a2 002A     		cmp	r2, #0
 5413 00a4 C8D0     		beq	.L822
 5414              	.L842:
ARM GAS  /tmp/cc5JP12Q.s 			page 94


 5415 00a6 5A68     		ldr	r2, [r3, #4]
 5416 00a8 42F40062 		orr	r2, r2, #2048
 5417              	.L1126:
 5418 00ac 5A60     		str	r2, [r3, #4]
 5419 00ae C3E7     		b	.L822
 5420              	.L835:
 5421 00b0 42F00102 		orr	r2, r2, #1
 5422              	.L1142:
 5423 00b4 D2B2     		uxtb	r2, r2
 5424 00b6 EAE7     		b	.L1119
 5425              	.L834:
 5426 00b8 226D     		ldr	r2, [r4, #80]
 5427 00ba 32B9     		cbnz	r2, .L839
 5428 00bc 626C     		ldr	r2, [r4, #68]
 5429 00be D211     		asrs	r2, r2, #7
 5430 00c0 02F00602 		and	r2, r2, #6
 5431 00c4 42F0F002 		orr	r2, r2, #240
 5432 00c8 C9E7     		b	.L1124
 5433              	.L839:
 5434 00ca 226D     		ldr	r2, [r4, #80]
 5435 00cc 012A     		cmp	r2, #1
 5436 00ce B3D1     		bne	.L822
 5437 00d0 626C     		ldr	r2, [r4, #68]
 5438 00d2 D211     		asrs	r2, r2, #7
 5439 00d4 02F00602 		and	r2, r2, #6
 5440 00d8 42F0F102 		orr	r2, r2, #241
 5441 00dc BFE7     		b	.L1124
 5442              	.L829:
 5443 00de 0D07     		lsls	r5, r1, #28
 5444 00e0 03D5     		bpl	.L840
 5445 00e2 9505     		lsls	r5, r2, #22
 5446 00e4 01D5     		bpl	.L840
 5447 00e6 626C     		ldr	r2, [r4, #68]
 5448 00e8 E4E7     		b	.L1142
 5449              	.L840:
 5450 00ea 8D07     		lsls	r5, r1, #30
 5451 00ec 40F1EA80 		bpl	.L843
 5452 00f0 9505     		lsls	r5, r2, #22
 5453 00f2 40F1E780 		bpl	.L843
 5454 00f6 94F83E10 		ldrb	r1, [r4, #62]	@ zero_extendqisi2
 5455 00fa E26A     		ldr	r2, [r4, #44]
 5456 00fc 256B     		ldr	r5, [r4, #48]
 5457 00fe 94F83D00 		ldrb	r0, [r4, #61]	@ zero_extendqisi2
 5458 0102 C9B2     		uxtb	r1, r1
 5459 0104 2228     		cmp	r0, #34
 5460 0106 40F0D580 		bne	.L844
 5461 010a 206D     		ldr	r0, [r4, #80]
 5462 010c 40B9     		cbnz	r0, .L845
 5463 010e 4029     		cmp	r1, #64
 5464 0110 06D1     		bne	.L845
 5465 0112 0090     		str	r0, [sp]
 5466 0114 5A69     		ldr	r2, [r3, #20]
 5467 0116 0092     		str	r2, [sp]
 5468 0118 9B69     		ldr	r3, [r3, #24]
 5469 011a 0093     		str	r3, [sp]
 5470 011c 009B     		ldr	r3, [sp]
 5471 011e 8BE7     		b	.L822
ARM GAS  /tmp/cc5JP12Q.s 			page 95


 5472              	.L845:
 5473 0120 216D     		ldr	r1, [r4, #80]
 5474 0122 81B9     		cbnz	r1, .L846
 5475 0124 2069     		ldr	r0, [r4, #16]
 5476 0126 B0F5404F 		cmp	r0, #49152
 5477 012a 0CD1     		bne	.L846
 5478 012c 0191     		str	r1, [sp, #4]
 5479 012e 5A69     		ldr	r2, [r3, #20]
 5480 0130 0192     		str	r2, [sp, #4]
 5481 0132 9A69     		ldr	r2, [r3, #24]
 5482 0134 0192     		str	r2, [sp, #4]
 5483 0136 019A     		ldr	r2, [sp, #4]
 5484 0138 1A68     		ldr	r2, [r3]
 5485 013a 42F48072 		orr	r2, r2, #256
 5486 013e 1A60     		str	r2, [r3]
 5487              	.L1135:
 5488 0140 236D     		ldr	r3, [r4, #80]
 5489 0142 0133     		adds	r3, r3, #1
 5490 0144 28E0     		b	.L1127
 5491              	.L846:
 5492 0146 618D     		ldrh	r1, [r4, #42]
 5493 0148 89B2     		uxth	r1, r1
 5494 014a 51B9     		cbnz	r1, .L847
 5495 014c 0291     		str	r1, [sp, #8]
 5496 014e 5A69     		ldr	r2, [r3, #20]
 5497 0150 0292     		str	r2, [sp, #8]
 5498 0152 9A69     		ldr	r2, [r3, #24]
 5499 0154 0292     		str	r2, [sp, #8]
 5500 0156 029A     		ldr	r2, [sp, #8]
 5501              	.L1121:
 5502 0158 1A68     		ldr	r2, [r3]
 5503 015a 42F40072 		orr	r2, r2, #512
 5504 015e 1A60     		str	r2, [r3]
 5505 0160 19E0     		b	.L848
 5506              	.L847:
 5507 0162 618D     		ldrh	r1, [r4, #42]
 5508 0164 89B2     		uxth	r1, r1
 5509 0166 0129     		cmp	r1, #1
 5510 0168 4AD1     		bne	.L849
 5511 016a 12F5803F 		cmn	r2, #65536
 5512 016e 1CD1     		bne	.L850
 5513 0170 1A68     		ldr	r2, [r3]
 5514 0172 22F48062 		bic	r2, r2, #1024
 5515 0176 1A60     		str	r2, [r3]
 5516 0178 5A68     		ldr	r2, [r3, #4]
 5517 017a 12F40062 		ands	r2, r2, #2048
 5518 017e 0DD0     		beq	.L851
 5519 0180 1A68     		ldr	r2, [r3]
 5520 0182 22F48062 		bic	r2, r2, #1024
 5521 0186 1A60     		str	r2, [r3]
 5522 0188 0022     		movs	r2, #0
 5523 018a 0392     		str	r2, [sp, #12]
 5524 018c 5A69     		ldr	r2, [r3, #20]
 5525 018e 0392     		str	r2, [sp, #12]
 5526 0190 9B69     		ldr	r3, [r3, #24]
 5527 0192 0393     		str	r3, [sp, #12]
 5528 0194 039B     		ldr	r3, [sp, #12]
ARM GAS  /tmp/cc5JP12Q.s 			page 96


 5529              	.L848:
 5530 0196 0023     		movs	r3, #0
 5531              	.L1127:
 5532 0198 2365     		str	r3, [r4, #80]
 5533 019a 4DE7     		b	.L822
 5534              	.L851:
 5535 019c 0492     		str	r2, [sp, #16]
 5536 019e 5A69     		ldr	r2, [r3, #20]
 5537 01a0 0492     		str	r2, [sp, #16]
 5538 01a2 9A69     		ldr	r2, [r3, #24]
 5539 01a4 0492     		str	r2, [sp, #16]
 5540 01a6 049A     		ldr	r2, [sp, #16]
 5541 01a8 D6E7     		b	.L1121
 5542              	.L850:
 5543 01aa 082A     		cmp	r2, #8
 5544 01ac 1CD0     		beq	.L852
 5545 01ae 202A     		cmp	r2, #32
 5546 01b0 1AD0     		beq	.L852
 5547 01b2 122D     		cmp	r5, #18
 5548 01b4 0DD1     		bne	.L853
 5549 01b6 012A     		cmp	r2, #1
 5550 01b8 16D1     		bne	.L852
 5551              	.L854:
 5552 01ba 1A68     		ldr	r2, [r3]
 5553 01bc 22F48062 		bic	r2, r2, #1024
 5554              	.L1120:
 5555 01c0 1A60     		str	r2, [r3]
 5556 01c2 0022     		movs	r2, #0
 5557 01c4 0592     		str	r2, [sp, #20]
 5558 01c6 5A69     		ldr	r2, [r3, #20]
 5559 01c8 0592     		str	r2, [sp, #20]
 5560 01ca 9B69     		ldr	r3, [r3, #24]
 5561 01cc 0593     		str	r3, [sp, #20]
 5562 01ce 059B     		ldr	r3, [sp, #20]
 5563 01d0 E1E7     		b	.L848
 5564              	.L853:
 5565 01d2 102A     		cmp	r2, #16
 5566 01d4 F1D8     		bhi	.L854
 5567 01d6 9249     		ldr	r1, .L1143
 5568 01d8 21FA02F2 		lsr	r2, r1, r2
 5569 01dc D207     		lsls	r2, r2, #31
 5570 01de ECD5     		bpl	.L854
 5571 01e0 1A68     		ldr	r2, [r3]
 5572 01e2 42F48062 		orr	r2, r2, #1024
 5573 01e6 EBE7     		b	.L1120
 5574              	.L852:
 5575 01e8 1A68     		ldr	r2, [r3]
 5576 01ea 22F48062 		bic	r2, r2, #1024
 5577 01ee 1A60     		str	r2, [r3]
 5578 01f0 0022     		movs	r2, #0
 5579 01f2 0692     		str	r2, [sp, #24]
 5580 01f4 5A69     		ldr	r2, [r3, #20]
 5581 01f6 0692     		str	r2, [sp, #24]
 5582 01f8 9A69     		ldr	r2, [r3, #24]
 5583 01fa 0692     		str	r2, [sp, #24]
 5584 01fc 069A     		ldr	r2, [sp, #24]
 5585 01fe ABE7     		b	.L1121
ARM GAS  /tmp/cc5JP12Q.s 			page 97


 5586              	.L849:
 5587 0200 618D     		ldrh	r1, [r4, #42]
 5588 0202 89B2     		uxth	r1, r1
 5589 0204 0229     		cmp	r1, #2
 5590 0206 35D1     		bne	.L857
 5591 0208 102A     		cmp	r2, #16
 5592 020a 05D8     		bhi	.L858
 5593 020c 8449     		ldr	r1, .L1143
 5594 020e D140     		lsrs	r1, r1, r2
 5595 0210 C943     		mvns	r1, r1
 5596 0212 11F00101 		ands	r1, r1, #1
 5597 0216 22D0     		beq	.L859
 5598              	.L858:
 5599 0218 1968     		ldr	r1, [r3]
 5600 021a 41F40061 		orr	r1, r1, #2048
 5601 021e 1960     		str	r1, [r3]
 5602 0220 0021     		movs	r1, #0
 5603 0222 0791     		str	r1, [sp, #28]
 5604 0224 5969     		ldr	r1, [r3, #20]
 5605 0226 0791     		str	r1, [sp, #28]
 5606 0228 9969     		ldr	r1, [r3, #24]
 5607 022a 0791     		str	r1, [sp, #28]
 5608 022c 0799     		ldr	r1, [sp, #28]
 5609 022e 1968     		ldr	r1, [r3]
 5610 0230 21F48061 		bic	r1, r1, #1024
 5611 0234 1960     		str	r1, [r3]
 5612              	.L860:
 5613 0236 5968     		ldr	r1, [r3, #4]
 5614 0238 0D05     		lsls	r5, r1, #20
 5615 023a ACD5     		bpl	.L848
 5616 023c 12F5803F 		cmn	r2, #65536
 5617 0240 08D0     		beq	.L861
 5618 0242 511E     		subs	r1, r2, #1
 5619 0244 1F29     		cmp	r1, #31
 5620 0246 97BF     		itett	ls
 5621 0248 764A     		ldrls	r2, .L1143+4
 5622 024a 0122     		movhi	r2, #1
 5623 024c CA40     		lsrls	r2, r2, r1
 5624 024e D243     		mvnls	r2, r2
 5625 0250 D007     		lsls	r0, r2, #31
 5626 0252 A0D4     		bmi	.L848
 5627              	.L861:
 5628 0254 5A68     		ldr	r2, [r3, #4]
 5629 0256 42F48052 		orr	r2, r2, #4096
 5630 025a 5A60     		str	r2, [r3, #4]
 5631 025c 9BE7     		b	.L848
 5632              	.L859:
 5633 025e 1868     		ldr	r0, [r3]
 5634 0260 40F48060 		orr	r0, r0, #1024
 5635 0264 1860     		str	r0, [r3]
 5636 0266 0891     		str	r1, [sp, #32]
 5637 0268 5969     		ldr	r1, [r3, #20]
 5638 026a 0891     		str	r1, [sp, #32]
 5639 026c 9969     		ldr	r1, [r3, #24]
 5640 026e 0891     		str	r1, [sp, #32]
 5641 0270 0899     		ldr	r1, [sp, #32]
 5642 0272 E0E7     		b	.L860
ARM GAS  /tmp/cc5JP12Q.s 			page 98


 5643              	.L857:
 5644 0274 1968     		ldr	r1, [r3]
 5645 0276 41F48061 		orr	r1, r1, #1024
 5646 027a 1960     		str	r1, [r3]
 5647 027c 5968     		ldr	r1, [r3, #4]
 5648 027e 0905     		lsls	r1, r1, #20
 5649 0280 10D5     		bpl	.L863
 5650 0282 12F5803F 		cmn	r2, #65536
 5651 0286 09D0     		beq	.L864
 5652 0288 013A     		subs	r2, r2, #1
 5653 028a 1F2A     		cmp	r2, #31
 5654 028c 97BF     		itett	ls
 5655 028e 6549     		ldrls	r1, .L1143+4
 5656 0290 0122     		movhi	r2, #1
 5657 0292 21FA02F2 		lsrls	r2, r1, r2
 5658 0296 D243     		mvnls	r2, r2
 5659 0298 D207     		lsls	r2, r2, #31
 5660 029a 03D4     		bmi	.L863
 5661              	.L864:
 5662 029c 5A68     		ldr	r2, [r3, #4]
 5663 029e 42F48052 		orr	r2, r2, #4096
 5664 02a2 5A60     		str	r2, [r3, #4]
 5665              	.L863:
 5666 02a4 0022     		movs	r2, #0
 5667 02a6 0992     		str	r2, [sp, #36]
 5668 02a8 5A69     		ldr	r2, [r3, #20]
 5669 02aa 0992     		str	r2, [sp, #36]
 5670 02ac 9B69     		ldr	r3, [r3, #24]
 5671 02ae 0993     		str	r3, [sp, #36]
 5672 02b0 099B     		ldr	r3, [sp, #36]
 5673 02b2 70E7     		b	.L848
 5674              	.L844:
 5675 02b4 0022     		movs	r2, #0
 5676 02b6 0A92     		str	r2, [sp, #40]
 5677 02b8 5A69     		ldr	r2, [r3, #20]
 5678 02ba 0A92     		str	r2, [sp, #40]
 5679 02bc 9B69     		ldr	r3, [r3, #24]
 5680 02be 0A93     		str	r3, [sp, #40]
 5681 02c0 0A9B     		ldr	r3, [sp, #40]
 5682 02c2 B9E6     		b	.L822
 5683              	.L843:
 5684 02c4 10F0040F 		tst	r0, #4
 5685 02c8 5868     		ldr	r0, [r3, #4]
 5686 02ca 00F0AD80 		beq	.L866
 5687 02ce 0505     		lsls	r5, r0, #20
 5688 02d0 3FF5B2AE 		bmi	.L822
 5689 02d4 11F0800F 		tst	r1, #128
 5690 02d8 01F00401 		and	r1, r1, #4
 5691 02dc 69D0     		beq	.L867
 5692 02de 5005     		lsls	r0, r2, #21
 5693 02e0 67D5     		bpl	.L867
 5694 02e2 0029     		cmp	r1, #0
 5695 02e4 65D1     		bne	.L867
 5696 02e6 94F83D20 		ldrb	r2, [r4, #61]	@ zero_extendqisi2
 5697 02ea 258D     		ldrh	r5, [r4, #40]
 5698 02ec 94F83E10 		ldrb	r1, [r4, #62]	@ zero_extendqisi2
 5699 02f0 D2B2     		uxtb	r2, r2
ARM GAS  /tmp/cc5JP12Q.s 			page 99


 5700 02f2 C9B2     		uxtb	r1, r1
 5701 02f4 E06A     		ldr	r0, [r4, #44]
 5702 02f6 C5B9     		cbnz	r5, .L868
 5703 02f8 212A     		cmp	r2, #33
 5704 02fa 18D1     		bne	.L869
 5705 02fc 0828     		cmp	r0, #8
 5706 02fe 78D0     		beq	.L880
 5707 0300 2028     		cmp	r0, #32
 5708 0302 76D0     		beq	.L880
 5709 0304 10F5803F 		cmn	r0, #65536
 5710 0308 73D0     		beq	.L880
 5711 030a 5A68     		ldr	r2, [r3, #4]
 5712 030c 22F4E062 		bic	r2, r2, #1792
 5713 0310 5A60     		str	r2, [r3, #4]
 5714 0312 1123     		movs	r3, #17
 5715 0314 2363     		str	r3, [r4, #48]
 5716 0316 0023     		movs	r3, #0
 5717 0318 84F83E30 		strb	r3, [r4, #62]
 5718              	.L1137:
 5719 031c 2023     		movs	r3, #32
 5720 031e 2046     		mov	r0, r4
 5721 0320 84F83D30 		strb	r3, [r4, #61]
 5722              	.L1129:
 5723 0324 FFF7FEFF 		bl	HAL_I2C_MasterTxCpltCallback
 5724 0328 86E6     		b	.L822
 5725              	.L868:
 5726 032a 212A     		cmp	r2, #33
 5727 032c 05D0     		beq	.L872
 5728              	.L869:
 5729 032e 4029     		cmp	r1, #64
 5730 0330 7FF482AE 		bne	.L822
 5731 0334 222A     		cmp	r2, #34
 5732 0336 7FF47FAE 		bne	.L822
 5733              	.L872:
 5734 033a 628D     		ldrh	r2, [r4, #42]
 5735 033c 92B2     		uxth	r2, r2
 5736 033e 1AB9     		cbnz	r2, .L873
 5737 0340 5A68     		ldr	r2, [r3, #4]
 5738 0342 22F48062 		bic	r2, r2, #1024
 5739 0346 B1E6     		b	.L1126
 5740              	.L873:
 5741 0348 94F83E20 		ldrb	r2, [r4, #62]	@ zero_extendqisi2
 5742 034c 402A     		cmp	r2, #64
 5743 034e 26D1     		bne	.L1139
 5744 0350 226D     		ldr	r2, [r4, #80]
 5745 0352 62B9     		cbnz	r2, .L875
 5746 0354 E26C     		ldr	r2, [r4, #76]
 5747 0356 012A     		cmp	r2, #1
 5748 0358 A26C     		ldr	r2, [r4, #72]
 5749 035a 04D1     		bne	.L876
 5750 035c D2B2     		uxtb	r2, r2
 5751 035e 1A61     		str	r2, [r3, #16]
 5752 0360 236D     		ldr	r3, [r4, #80]
 5753 0362 0233     		adds	r3, r3, #2
 5754 0364 18E7     		b	.L1127
 5755              	.L876:
 5756 0366 C2F30722 		ubfx	r2, r2, #8, #8
ARM GAS  /tmp/cc5JP12Q.s 			page 100


 5757              	.L1136:
 5758 036a 1A61     		str	r2, [r3, #16]
 5759 036c E8E6     		b	.L1135
 5760              	.L875:
 5761 036e 226D     		ldr	r2, [r4, #80]
 5762 0370 012A     		cmp	r2, #1
 5763 0372 02D1     		bne	.L877
 5764 0374 A26C     		ldr	r2, [r4, #72]
 5765 0376 D2B2     		uxtb	r2, r2
 5766 0378 F7E7     		b	.L1136
 5767              	.L877:
 5768 037a 226D     		ldr	r2, [r4, #80]
 5769 037c 022A     		cmp	r2, #2
 5770 037e 7FF45BAE 		bne	.L822
 5771 0382 94F83D20 		ldrb	r2, [r4, #61]	@ zero_extendqisi2
 5772 0386 222A     		cmp	r2, #34
 5773 0388 04D1     		bne	.L878
 5774 038a 1A68     		ldr	r2, [r3]
 5775 038c 42F48072 		orr	r2, r2, #256
 5776 0390 1A60     		str	r2, [r3]
 5777 0392 51E6     		b	.L822
 5778              	.L878:
 5779 0394 94F83D20 		ldrb	r2, [r4, #61]	@ zero_extendqisi2
 5780 0398 212A     		cmp	r2, #33
 5781 039a 7FF44DAE 		bne	.L822
 5782              	.L1139:
 5783 039e 626A     		ldr	r2, [r4, #36]
 5784 03a0 12F8011B 		ldrb	r1, [r2], #1	@ zero_extendqisi2
 5785 03a4 1961     		str	r1, [r3, #16]
 5786 03a6 6262     		str	r2, [r4, #36]
 5787              	.L1125:
 5788 03a8 638D     		ldrh	r3, [r4, #42]
 5789 03aa 013B     		subs	r3, r3, #1
 5790 03ac 9BB2     		uxth	r3, r3
 5791 03ae 6385     		strh	r3, [r4, #42]	@ movhi
 5792 03b0 42E6     		b	.L822
 5793              	.L867:
 5794 03b2 0029     		cmp	r1, #0
 5795 03b4 3FF440AE 		beq	.L822
 5796 03b8 9205     		lsls	r2, r2, #22
 5797 03ba 7FF53DAE 		bpl	.L822
 5798 03be E16A     		ldr	r1, [r4, #44]
 5799 03c0 94F83D20 		ldrb	r2, [r4, #61]	@ zero_extendqisi2
 5800 03c4 212A     		cmp	r2, #33
 5801 03c6 7FF437AE 		bne	.L822
 5802 03ca 628D     		ldrh	r2, [r4, #42]
 5803 03cc 92B2     		uxth	r2, r2
 5804 03ce 002A     		cmp	r2, #0
 5805 03d0 E5D1     		bne	.L1139
 5806 03d2 0829     		cmp	r1, #8
 5807 03d4 0DD0     		beq	.L880
 5808 03d6 2029     		cmp	r1, #32
 5809 03d8 0BD0     		beq	.L880
 5810 03da 11F5803F 		cmn	r1, #65536
 5811 03de 08D0     		beq	.L880
 5812 03e0 5968     		ldr	r1, [r3, #4]
 5813 03e2 21F4E061 		bic	r1, r1, #1792
ARM GAS  /tmp/cc5JP12Q.s 			page 101


 5814 03e6 5960     		str	r1, [r3, #4]
 5815 03e8 1123     		movs	r3, #17
 5816 03ea 2363     		str	r3, [r4, #48]
 5817 03ec 84F83E20 		strb	r2, [r4, #62]
 5818 03f0 94E7     		b	.L1137
 5819              	.L880:
 5820 03f2 5A68     		ldr	r2, [r3, #4]
 5821 03f4 2046     		mov	r0, r4
 5822 03f6 22F4E062 		bic	r2, r2, #1792
 5823 03fa 5A60     		str	r2, [r3, #4]
 5824 03fc 1A68     		ldr	r2, [r3]
 5825 03fe 42F40072 		orr	r2, r2, #512
 5826 0402 1A60     		str	r2, [r3]
 5827 0404 0023     		movs	r3, #0
 5828 0406 2022     		movs	r2, #32
 5829 0408 2363     		str	r3, [r4, #48]
 5830 040a 84F83D20 		strb	r2, [r4, #61]
 5831 040e 94F83E20 		ldrb	r2, [r4, #62]	@ zero_extendqisi2
 5832 0412 84F83E30 		strb	r3, [r4, #62]
 5833 0416 402A     		cmp	r2, #64
 5834 0418 84D1     		bne	.L1129
 5835 041a FFF7FEFF 		bl	HAL_I2C_MemTxCpltCallback
 5836 041e 0BE6     		b	.L822
 5837              	.L1144:
 5838              		.align	2
 5839              	.L1143:
 5840 0420 14000100 		.word	65556
 5841 0424 81800080 		.word	-2147450751
 5842              	.L866:
 5843 0428 0505     		lsls	r5, r0, #20
 5844 042a 3FF505AE 		bmi	.L822
 5845 042e 11F0400F 		tst	r1, #64
 5846 0432 01F00401 		and	r1, r1, #4
 5847 0436 48D0     		beq	.L882
 5848 0438 5005     		lsls	r0, r2, #21
 5849 043a 46D5     		bpl	.L882
 5850 043c 0029     		cmp	r1, #0
 5851 043e 44D1     		bne	.L882
 5852 0440 94F83D20 		ldrb	r2, [r4, #61]	@ zero_extendqisi2
 5853 0444 222A     		cmp	r2, #34
 5854 0446 7FF4F7AD 		bne	.L822
 5855 044a 628D     		ldrh	r2, [r4, #42]
 5856 044c 92B2     		uxth	r2, r2
 5857 044e 032A     		cmp	r2, #3
 5858 0450 14D9     		bls	.L883
 5859 0452 1B69     		ldr	r3, [r3, #16]
 5860 0454 626A     		ldr	r2, [r4, #36]
 5861 0456 1370     		strb	r3, [r2]
 5862 0458 636A     		ldr	r3, [r4, #36]
 5863 045a 0133     		adds	r3, r3, #1
 5864 045c 6362     		str	r3, [r4, #36]
 5865 045e 638D     		ldrh	r3, [r4, #42]
 5866 0460 013B     		subs	r3, r3, #1
 5867 0462 9BB2     		uxth	r3, r3
 5868 0464 6385     		strh	r3, [r4, #42]	@ movhi
 5869 0466 638D     		ldrh	r3, [r4, #42]
 5870 0468 9BB2     		uxth	r3, r3
ARM GAS  /tmp/cc5JP12Q.s 			page 102


 5871 046a 032B     		cmp	r3, #3
 5872 046c 7FF4E4AD 		bne	.L822
 5873 0470 2268     		ldr	r2, [r4]
 5874 0472 5368     		ldr	r3, [r2, #4]
 5875 0474 23F48063 		bic	r3, r3, #1024
 5876 0478 5360     		str	r3, [r2, #4]
 5877 047a DDE5     		b	.L822
 5878              	.L883:
 5879 047c E06A     		ldr	r0, [r4, #44]
 5880 047e 0228     		cmp	r0, #2
 5881 0480 3FF4DAAD 		beq	.L822
 5882 0484 012A     		cmp	r2, #1
 5883 0486 3FF6D7AD 		bhi	.L822
 5884 048a 1A68     		ldr	r2, [r3]
 5885 048c 22F48062 		bic	r2, r2, #1024
 5886 0490 1A60     		str	r2, [r3]
 5887 0492 5A68     		ldr	r2, [r3, #4]
 5888 0494 22F4E062 		bic	r2, r2, #1792
 5889 0498 5A60     		str	r2, [r3, #4]
 5890 049a 1B69     		ldr	r3, [r3, #16]
 5891 049c 626A     		ldr	r2, [r4, #36]
 5892 049e 1370     		strb	r3, [r2]
 5893 04a0 636A     		ldr	r3, [r4, #36]
 5894 04a2 0133     		adds	r3, r3, #1
 5895 04a4 6362     		str	r3, [r4, #36]
 5896 04a6 638D     		ldrh	r3, [r4, #42]
 5897 04a8 013B     		subs	r3, r3, #1
 5898 04aa 9BB2     		uxth	r3, r3
 5899 04ac 6385     		strh	r3, [r4, #42]	@ movhi
 5900 04ae 2023     		movs	r3, #32
 5901 04b0 84F83D30 		strb	r3, [r4, #61]
 5902 04b4 94F83E30 		ldrb	r3, [r4, #62]	@ zero_extendqisi2
 5903 04b8 84F83E10 		strb	r1, [r4, #62]
 5904 04bc 402B     		cmp	r3, #64
 5905 04be 68D1     		bne	.L894
 5906 04c0 2163     		str	r1, [r4, #48]
 5907              	.L1131:
 5908 04c2 2046     		mov	r0, r4
 5909 04c4 FFF7FEFF 		bl	HAL_I2C_MemRxCpltCallback
 5910 04c8 B6E5     		b	.L822
 5911              	.L882:
 5912 04ca 0029     		cmp	r1, #0
 5913 04cc 3FF4B4AD 		beq	.L822
 5914 04d0 9205     		lsls	r2, r2, #22
 5915 04d2 7FF5B1AD 		bpl	.L822
 5916 04d6 E26A     		ldr	r2, [r4, #44]
 5917 04d8 618D     		ldrh	r1, [r4, #42]
 5918 04da 89B2     		uxth	r1, r1
 5919 04dc 0429     		cmp	r1, #4
 5920 04de 616A     		ldr	r1, [r4, #36]
 5921 04e0 09D1     		bne	.L885
 5922 04e2 5A68     		ldr	r2, [r3, #4]
 5923 04e4 22F48062 		bic	r2, r2, #1024
 5924 04e8 5A60     		str	r2, [r3, #4]
 5925              	.L888:
 5926 04ea 1B69     		ldr	r3, [r3, #16]
 5927 04ec 0B70     		strb	r3, [r1]
ARM GAS  /tmp/cc5JP12Q.s 			page 103


 5928              	.L1132:
 5929 04ee 636A     		ldr	r3, [r4, #36]
 5930 04f0 0133     		adds	r3, r3, #1
 5931 04f2 6362     		str	r3, [r4, #36]
 5932 04f4 58E7     		b	.L1125
 5933              	.L885:
 5934 04f6 608D     		ldrh	r0, [r4, #42]
 5935 04f8 80B2     		uxth	r0, r0
 5936 04fa 0328     		cmp	r0, #3
 5937 04fc 0CD1     		bne	.L886
 5938 04fe 5868     		ldr	r0, [r3, #4]
 5939 0500 042A     		cmp	r2, #4
 5940 0502 20F48060 		bic	r0, r0, #1024
 5941 0506 5860     		str	r0, [r3, #4]
 5942 0508 EFD0     		beq	.L888
 5943 050a 022A     		cmp	r2, #2
 5944 050c EDD0     		beq	.L888
 5945 050e 1A68     		ldr	r2, [r3]
 5946 0510 22F48062 		bic	r2, r2, #1024
 5947 0514 1A60     		str	r2, [r3]
 5948 0516 E8E7     		b	.L888
 5949              	.L886:
 5950 0518 608D     		ldrh	r0, [r4, #42]
 5951 051a 80B2     		uxth	r0, r0
 5952 051c 0228     		cmp	r0, #2
 5953 051e E4D1     		bne	.L888
 5954 0520 012A     		cmp	r2, #1
 5955 0522 01D0     		beq	.L889
 5956 0524 102A     		cmp	r2, #16
 5957 0526 28D1     		bne	.L890
 5958              	.L889:
 5959 0528 1A68     		ldr	r2, [r3]
 5960 052a 22F48062 		bic	r2, r2, #1024
 5961              	.L1122:
 5962 052e 1A60     		str	r2, [r3]
 5963 0530 1B69     		ldr	r3, [r3, #16]
 5964 0532 0B70     		strb	r3, [r1]
 5965 0534 626A     		ldr	r2, [r4, #36]
 5966 0536 531C     		adds	r3, r2, #1
 5967 0538 6362     		str	r3, [r4, #36]
 5968 053a 638D     		ldrh	r3, [r4, #42]
 5969 053c 013B     		subs	r3, r3, #1
 5970 053e 9BB2     		uxth	r3, r3
 5971 0540 6385     		strh	r3, [r4, #42]	@ movhi
 5972 0542 2368     		ldr	r3, [r4]
 5973 0544 1B69     		ldr	r3, [r3, #16]
 5974 0546 5370     		strb	r3, [r2, #1]
 5975 0548 636A     		ldr	r3, [r4, #36]
 5976 054a 2268     		ldr	r2, [r4]
 5977 054c 0133     		adds	r3, r3, #1
 5978 054e 6362     		str	r3, [r4, #36]
 5979 0550 638D     		ldrh	r3, [r4, #42]
 5980 0552 013B     		subs	r3, r3, #1
 5981 0554 9BB2     		uxth	r3, r3
 5982 0556 6385     		strh	r3, [r4, #42]	@ movhi
 5983 0558 5368     		ldr	r3, [r2, #4]
 5984 055a 23F44073 		bic	r3, r3, #768
ARM GAS  /tmp/cc5JP12Q.s 			page 104


 5985 055e 5360     		str	r3, [r2, #4]
 5986 0560 2023     		movs	r3, #32
 5987 0562 84F83D30 		strb	r3, [r4, #61]
 5988 0566 94F83E30 		ldrb	r3, [r4, #62]	@ zero_extendqisi2
 5989 056a 402B     		cmp	r3, #64
 5990 056c 4FF00003 		mov	r3, #0
 5991 0570 84F83E30 		strb	r3, [r4, #62]
 5992 0574 0DD1     		bne	.L894
 5993 0576 2363     		str	r3, [r4, #48]
 5994 0578 A3E7     		b	.L1131
 5995              	.L890:
 5996 057a 042A     		cmp	r2, #4
 5997 057c 01D0     		beq	.L892
 5998 057e 022A     		cmp	r2, #2
 5999 0580 03D1     		bne	.L893
 6000              	.L892:
 6001 0582 1A68     		ldr	r2, [r3]
 6002 0584 42F48062 		orr	r2, r2, #1024
 6003 0588 D1E7     		b	.L1122
 6004              	.L893:
 6005 058a 1A68     		ldr	r2, [r3]
 6006 058c 42F40072 		orr	r2, r2, #512
 6007 0590 CDE7     		b	.L1122
 6008              	.L894:
 6009 0592 1223     		movs	r3, #18
 6010 0594 2046     		mov	r0, r4
 6011 0596 2363     		str	r3, [r4, #48]
 6012 0598 FFF7FEFF 		bl	HAL_I2C_MasterRxCpltCallback
 6013 059c 4CE5     		b	.L822
 6014              	.L824:
 6015 059e 216C     		ldr	r1, [r4, #64]
 6016 05a0 21B3     		cbz	r1, .L895
 6017 05a2 0025     		movs	r5, #0
 6018 05a4 5969     		ldr	r1, [r3, #20]
 6019              	.L896:
 6020 05a6 11F0020F 		tst	r1, #2
 6021 05aa 29D0     		beq	.L897
 6022 05ac 12F4007F 		tst	r2, #512
 6023 05b0 26D0     		beq	.L897
 6024 05b2 226C     		ldr	r2, [r4, #64]
 6025 05b4 02B1     		cbz	r2, .L898
 6026 05b6 9D69     		ldr	r5, [r3, #24]
 6027              	.L898:
 6028 05b8 94F83D20 		ldrb	r2, [r4, #61]	@ zero_extendqisi2
 6029 05bc 02F02802 		and	r2, r2, #40
 6030 05c0 282A     		cmp	r2, #40
 6031 05c2 16D1     		bne	.L899
 6032 05c4 5A68     		ldr	r2, [r3, #4]
 6033 05c6 85F00401 		eor	r1, r5, #4
 6034 05ca 22F48062 		bic	r2, r2, #1024
 6035 05ce 5A60     		str	r2, [r3, #4]
 6036 05d0 2B06     		lsls	r3, r5, #24
 6037 05d2 4FF00003 		mov	r3, #0
 6038 05d6 C1F38001 		ubfx	r1, r1, #2, #1
 6039 05da 54BF     		ite	pl
 6040 05dc A289     		ldrhpl	r2, [r4, #12]
 6041 05de 228B     		ldrhmi	r2, [r4, #24]
ARM GAS  /tmp/cc5JP12Q.s 			page 105


 6042 05e0 84F83C30 		strb	r3, [r4, #60]
 6043 05e4 2046     		mov	r0, r4
 6044 05e6 FFF7FEFF 		bl	HAL_I2C_AddrCallback
 6045 05ea 25E5     		b	.L822
 6046              	.L895:
 6047 05ec 9D69     		ldr	r5, [r3, #24]
 6048 05ee 5969     		ldr	r1, [r3, #20]
 6049 05f0 D9E7     		b	.L896
 6050              	.L899:
 6051 05f2 6FF00202 		mvn	r2, #2
 6052 05f6 5A61     		str	r2, [r3, #20]
 6053 05f8 0023     		movs	r3, #0
 6054 05fa 84F83C30 		strb	r3, [r4, #60]
 6055 05fe 1BE5     		b	.L822
 6056              	.L897:
 6057 0600 CD06     		lsls	r5, r1, #27
 6058 0602 40F1AF80 		bpl	.L902
 6059 0606 9505     		lsls	r5, r2, #22
 6060 0608 40F1AC80 		bpl	.L902
 6061 060c 94F83D50 		ldrb	r5, [r4, #61]	@ zero_extendqisi2
 6062 0610 5A68     		ldr	r2, [r3, #4]
 6063 0612 EDB2     		uxtb	r5, r5
 6064 0614 22F4E062 		bic	r2, r2, #1792
 6065 0618 5A60     		str	r2, [r3, #4]
 6066 061a 0022     		movs	r2, #0
 6067 061c 0B92     		str	r2, [sp, #44]
 6068 061e 5A69     		ldr	r2, [r3, #20]
 6069 0620 0B92     		str	r2, [sp, #44]
 6070 0622 1A68     		ldr	r2, [r3]
 6071 0624 42F00102 		orr	r2, r2, #1
 6072 0628 1A60     		str	r2, [r3]
 6073 062a 0B9A     		ldr	r2, [sp, #44]
 6074 062c 1A68     		ldr	r2, [r3]
 6075 062e 22F48062 		bic	r2, r2, #1024
 6076 0632 1A60     		str	r2, [r3]
 6077 0634 5A68     		ldr	r2, [r3, #4]
 6078 0636 1105     		lsls	r1, r2, #20
 6079 0638 20D5     		bpl	.L904
 6080 063a 05F0F702 		and	r2, r5, #247
 6081 063e 222A     		cmp	r2, #34
 6082 0640 48D1     		bne	.L905
 6083 0642 A06B     		ldr	r0, [r4, #56]
 6084 0644 0268     		ldr	r2, [r0]
 6085 0646 5268     		ldr	r2, [r2, #4]
 6086 0648 92B2     		uxth	r2, r2
 6087 064a 6285     		strh	r2, [r4, #42]	@ movhi
 6088 064c 628D     		ldrh	r2, [r4, #42]
 6089 064e 92B2     		uxth	r2, r2
 6090 0650 1AB1     		cbz	r2, .L906
 6091 0652 226C     		ldr	r2, [r4, #64]
 6092 0654 42F00402 		orr	r2, r2, #4
 6093 0658 2264     		str	r2, [r4, #64]
 6094              	.L906:
 6095 065a 5A68     		ldr	r2, [r3, #4]
 6096 065c 22F40062 		bic	r2, r2, #2048
 6097 0660 5A60     		str	r2, [r3, #4]
 6098 0662 FFF7FEFF 		bl	HAL_DMA_GetState
ARM GAS  /tmp/cc5JP12Q.s 			page 106


 6099 0666 0128     		cmp	r0, #1
 6100 0668 08D0     		beq	.L904
 6101 066a A06B     		ldr	r0, [r4, #56]
 6102 066c 784B     		ldr	r3, .L1145
 6103 066e 4363     		str	r3, [r0, #52]
 6104 0670 FFF7FEFF 		bl	HAL_DMA_Abort_IT
 6105 0674 10B1     		cbz	r0, .L904
 6106 0676 A06B     		ldr	r0, [r4, #56]
 6107              	.L1123:
 6108 0678 436B     		ldr	r3, [r0, #52]
 6109 067a 9847     		blx	r3
 6110              	.L904:
 6111 067c 638D     		ldrh	r3, [r4, #42]
 6112 067e 9BB2     		uxth	r3, r3
 6113 0680 13B3     		cbz	r3, .L910
 6114 0682 2368     		ldr	r3, [r4]
 6115 0684 5A69     		ldr	r2, [r3, #20]
 6116 0686 5207     		lsls	r2, r2, #29
 6117 0688 09D5     		bpl	.L911
 6118 068a 1B69     		ldr	r3, [r3, #16]
 6119 068c 626A     		ldr	r2, [r4, #36]
 6120 068e 1370     		strb	r3, [r2]
 6121 0690 636A     		ldr	r3, [r4, #36]
 6122 0692 0133     		adds	r3, r3, #1
 6123 0694 6362     		str	r3, [r4, #36]
 6124 0696 638D     		ldrh	r3, [r4, #42]
 6125 0698 013B     		subs	r3, r3, #1
 6126 069a 9BB2     		uxth	r3, r3
 6127 069c 6385     		strh	r3, [r4, #42]	@ movhi
 6128              	.L911:
 6129 069e 2368     		ldr	r3, [r4]
 6130 06a0 5A69     		ldr	r2, [r3, #20]
 6131 06a2 5006     		lsls	r0, r2, #25
 6132 06a4 09D5     		bpl	.L912
 6133 06a6 1B69     		ldr	r3, [r3, #16]
 6134 06a8 626A     		ldr	r2, [r4, #36]
 6135 06aa 1370     		strb	r3, [r2]
 6136 06ac 636A     		ldr	r3, [r4, #36]
 6137 06ae 0133     		adds	r3, r3, #1
 6138 06b0 6362     		str	r3, [r4, #36]
 6139 06b2 638D     		ldrh	r3, [r4, #42]
 6140 06b4 013B     		subs	r3, r3, #1
 6141 06b6 9BB2     		uxth	r3, r3
 6142 06b8 6385     		strh	r3, [r4, #42]	@ movhi
 6143              	.L912:
 6144 06ba 638D     		ldrh	r3, [r4, #42]
 6145 06bc 9BB2     		uxth	r3, r3
 6146 06be 1BB1     		cbz	r3, .L910
 6147 06c0 236C     		ldr	r3, [r4, #64]
 6148 06c2 43F00403 		orr	r3, r3, #4
 6149 06c6 2364     		str	r3, [r4, #64]
 6150              	.L910:
 6151 06c8 236C     		ldr	r3, [r4, #64]
 6152 06ca 03B3     		cbz	r3, .L914
 6153 06cc 2046     		mov	r0, r4
 6154 06ce FFF7FEFF 		bl	I2C_ITError
 6155 06d2 B1E4     		b	.L822
ARM GAS  /tmp/cc5JP12Q.s 			page 107


 6156              	.L905:
 6157 06d4 606B     		ldr	r0, [r4, #52]
 6158 06d6 0268     		ldr	r2, [r0]
 6159 06d8 5268     		ldr	r2, [r2, #4]
 6160 06da 92B2     		uxth	r2, r2
 6161 06dc 6285     		strh	r2, [r4, #42]	@ movhi
 6162 06de 628D     		ldrh	r2, [r4, #42]
 6163 06e0 92B2     		uxth	r2, r2
 6164 06e2 1AB1     		cbz	r2, .L908
 6165 06e4 226C     		ldr	r2, [r4, #64]
 6166 06e6 42F00402 		orr	r2, r2, #4
 6167 06ea 2264     		str	r2, [r4, #64]
 6168              	.L908:
 6169 06ec 5A68     		ldr	r2, [r3, #4]
 6170 06ee 22F40062 		bic	r2, r2, #2048
 6171 06f2 5A60     		str	r2, [r3, #4]
 6172 06f4 FFF7FEFF 		bl	HAL_DMA_GetState
 6173 06f8 0128     		cmp	r0, #1
 6174 06fa BFD0     		beq	.L904
 6175 06fc 606B     		ldr	r0, [r4, #52]
 6176 06fe 544B     		ldr	r3, .L1145
 6177 0700 4363     		str	r3, [r0, #52]
 6178 0702 FFF7FEFF 		bl	HAL_DMA_Abort_IT
 6179 0706 0028     		cmp	r0, #0
 6180 0708 B8D0     		beq	.L904
 6181 070a 606B     		ldr	r0, [r4, #52]
 6182 070c B4E7     		b	.L1123
 6183              	.L914:
 6184 070e 2A2D     		cmp	r5, #42
 6185 0710 06D1     		bne	.L915
 6186 0712 2363     		str	r3, [r4, #48]
 6187 0714 2823     		movs	r3, #40
 6188 0716 2046     		mov	r0, r4
 6189 0718 84F83D30 		strb	r3, [r4, #61]
 6190 071c FFF7FEFF 		bl	HAL_I2C_SlaveRxCpltCallback
 6191              	.L915:
 6192 0720 94F83D30 		ldrb	r3, [r4, #61]	@ zero_extendqisi2
 6193 0724 282B     		cmp	r3, #40
 6194 0726 0CD1     		bne	.L916
 6195 0728 4A4B     		ldr	r3, .L1145+4
 6196 072a 2022     		movs	r2, #32
 6197 072c E362     		str	r3, [r4, #44]
 6198 072e 0023     		movs	r3, #0
 6199 0730 2046     		mov	r0, r4
 6200 0732 2363     		str	r3, [r4, #48]
 6201 0734 84F83D20 		strb	r2, [r4, #61]
 6202 0738 84F83E30 		strb	r3, [r4, #62]
 6203 073c FFF7FEFF 		bl	HAL_I2C_ListenCpltCallback
 6204 0740 7AE4     		b	.L822
 6205              	.L916:
 6206 0742 236B     		ldr	r3, [r4, #48]
 6207 0744 222B     		cmp	r3, #34
 6208 0746 02D0     		beq	.L917
 6209 0748 222D     		cmp	r5, #34
 6210 074a 7FF475AC 		bne	.L822
 6211              	.L917:
 6212 074e 0023     		movs	r3, #0
ARM GAS  /tmp/cc5JP12Q.s 			page 108


 6213 0750 2022     		movs	r2, #32
 6214 0752 2363     		str	r3, [r4, #48]
 6215 0754 84F83D20 		strb	r2, [r4, #61]
 6216 0758 84F83E30 		strb	r3, [r4, #62]
 6217              	.L1130:
 6218 075c 2046     		mov	r0, r4
 6219 075e FFF7FEFF 		bl	HAL_I2C_SlaveRxCpltCallback
 6220 0762 69E4     		b	.L822
 6221              	.L902:
 6222 0764 00F0F700 		and	r0, r0, #247
 6223 0768 2128     		cmp	r0, #33
 6224 076a 01F00405 		and	r5, r1, #4
 6225 076e 35D1     		bne	.L918
 6226 0770 0906     		lsls	r1, r1, #24
 6227 0772 27D5     		bpl	.L919
 6228 0774 5105     		lsls	r1, r2, #21
 6229 0776 25D5     		bpl	.L919
 6230 0778 25BB     		cbnz	r5, .L919
 6231 077a 94F83D10 		ldrb	r1, [r4, #61]	@ zero_extendqisi2
 6232 077e 628D     		ldrh	r2, [r4, #42]
 6233 0780 C9B2     		uxtb	r1, r1
 6234 0782 92B2     		uxth	r2, r2
 6235 0784 002A     		cmp	r2, #0
 6236 0786 3FF457AC 		beq	.L822
 6237 078a 626A     		ldr	r2, [r4, #36]
 6238 078c 12F8015B 		ldrb	r5, [r2], #1	@ zero_extendqisi2
 6239 0790 1D61     		str	r5, [r3, #16]
 6240 0792 6262     		str	r2, [r4, #36]
 6241 0794 628D     		ldrh	r2, [r4, #42]
 6242 0796 013A     		subs	r2, r2, #1
 6243 0798 92B2     		uxth	r2, r2
 6244 079a 6285     		strh	r2, [r4, #42]	@ movhi
 6245 079c 628D     		ldrh	r2, [r4, #42]
 6246 079e 92B2     		uxth	r2, r2
 6247 07a0 002A     		cmp	r2, #0
 6248 07a2 7FF449AC 		bne	.L822
 6249 07a6 2929     		cmp	r1, #41
 6250 07a8 7FF446AC 		bne	.L822
 6251 07ac 5A68     		ldr	r2, [r3, #4]
 6252 07ae 22F48062 		bic	r2, r2, #1024
 6253 07b2 5A60     		str	r2, [r3, #4]
 6254 07b4 2823     		movs	r3, #40
 6255 07b6 2063     		str	r0, [r4, #48]
 6256 07b8 84F83D30 		strb	r3, [r4, #61]
 6257 07bc 2046     		mov	r0, r4
 6258 07be FFF7FEFF 		bl	HAL_I2C_SlaveTxCpltCallback
 6259 07c2 39E4     		b	.L822
 6260              	.L919:
 6261 07c4 002D     		cmp	r5, #0
 6262 07c6 3FF437AC 		beq	.L822
 6263 07ca 9505     		lsls	r5, r2, #22
 6264 07cc 7FF534AC 		bpl	.L822
 6265 07d0 628D     		ldrh	r2, [r4, #42]
 6266 07d2 92B2     		uxth	r2, r2
 6267 07d4 002A     		cmp	r2, #0
 6268 07d6 7FF4E2AD 		bne	.L1139
 6269 07da 2DE4     		b	.L822
ARM GAS  /tmp/cc5JP12Q.s 			page 109


 6270              	.L918:
 6271 07dc 4806     		lsls	r0, r1, #25
 6272 07de 27D5     		bpl	.L920
 6273 07e0 5105     		lsls	r1, r2, #21
 6274 07e2 25D5     		bpl	.L920
 6275 07e4 25BB     		cbnz	r5, .L920
 6276 07e6 94F83D20 		ldrb	r2, [r4, #61]	@ zero_extendqisi2
 6277 07ea 618D     		ldrh	r1, [r4, #42]
 6278 07ec D2B2     		uxtb	r2, r2
 6279 07ee 89B2     		uxth	r1, r1
 6280 07f0 0029     		cmp	r1, #0
 6281 07f2 3FF421AC 		beq	.L822
 6282 07f6 1B69     		ldr	r3, [r3, #16]
 6283 07f8 616A     		ldr	r1, [r4, #36]
 6284 07fa 0B70     		strb	r3, [r1]
 6285 07fc 636A     		ldr	r3, [r4, #36]
 6286 07fe 0133     		adds	r3, r3, #1
 6287 0800 6362     		str	r3, [r4, #36]
 6288 0802 638D     		ldrh	r3, [r4, #42]
 6289 0804 013B     		subs	r3, r3, #1
 6290 0806 9BB2     		uxth	r3, r3
 6291 0808 6385     		strh	r3, [r4, #42]	@ movhi
 6292 080a 638D     		ldrh	r3, [r4, #42]
 6293 080c 9BB2     		uxth	r3, r3
 6294 080e 002B     		cmp	r3, #0
 6295 0810 7FF412AC 		bne	.L822
 6296 0814 2A2A     		cmp	r2, #42
 6297 0816 7FF40FAC 		bne	.L822
 6298 081a 2268     		ldr	r2, [r4]
 6299 081c 5368     		ldr	r3, [r2, #4]
 6300 081e 23F48063 		bic	r3, r3, #1024
 6301 0822 5360     		str	r3, [r2, #4]
 6302 0824 2223     		movs	r3, #34
 6303 0826 2363     		str	r3, [r4, #48]
 6304 0828 2823     		movs	r3, #40
 6305 082a 84F83D30 		strb	r3, [r4, #61]
 6306 082e 95E7     		b	.L1130
 6307              	.L920:
 6308 0830 002D     		cmp	r5, #0
 6309 0832 3FF401AC 		beq	.L822
 6310 0836 9205     		lsls	r2, r2, #22
 6311 0838 7FF5FEAB 		bpl	.L822
 6312 083c 628D     		ldrh	r2, [r4, #42]
 6313 083e 92B2     		uxth	r2, r2
 6314 0840 002A     		cmp	r2, #0
 6315 0842 3FF4F9AB 		beq	.L822
 6316 0846 626A     		ldr	r2, [r4, #36]
 6317 0848 1B69     		ldr	r3, [r3, #16]
 6318 084a 1370     		strb	r3, [r2]
 6319 084c 4FE6     		b	.L1132
 6320              	.L1146:
 6321 084e 00BF     		.align	2
 6322              	.L1145:
 6323 0850 00000000 		.word	I2C_DMAAbort
 6324 0854 0000FFFF 		.word	-65536
 6326              		.section	.text.HAL_I2C_ER_IRQHandler,"ax",%progbits
 6327              		.align	1
ARM GAS  /tmp/cc5JP12Q.s 			page 110


 6328              		.global	HAL_I2C_ER_IRQHandler
 6329              		.syntax unified
 6330              		.thumb
 6331              		.thumb_func
 6332              		.fpu softvfp
 6334              	HAL_I2C_ER_IRQHandler:
 6335              		@ args = 0, pretend = 0, frame = 0
 6336              		@ frame_needed = 0, uses_anonymous_args = 0
 6337 0000 F8B5     		push	{r3, r4, r5, r6, r7, lr}
 6338 0002 0368     		ldr	r3, [r0]
 6339 0004 0446     		mov	r4, r0
 6340 0006 5F69     		ldr	r7, [r3, #20]
 6341 0008 5E68     		ldr	r6, [r3, #4]
 6342 000a 17F48075 		ands	r5, r7, #256
 6343 000e 0AD0     		beq	.L1148
 6344 0010 16F48075 		ands	r5, r6, #256
 6345 0014 07D0     		beq	.L1148
 6346 0016 6FF48072 		mvn	r2, #256
 6347 001a 0125     		movs	r5, #1
 6348 001c 5A61     		str	r2, [r3, #20]
 6349 001e 1A68     		ldr	r2, [r3]
 6350 0020 42F40042 		orr	r2, r2, #32768
 6351 0024 1A60     		str	r2, [r3]
 6352              	.L1148:
 6353 0026 B905     		lsls	r1, r7, #22
 6354 0028 06D5     		bpl	.L1149
 6355 002a F205     		lsls	r2, r6, #23
 6356 002c 42BF     		ittt	mi
 6357 002e 6FF40072 		mvnmi	r2, #512
 6358 0032 45F00205 		orrmi	r5, r5, #2
 6359 0036 5A61     		strmi	r2, [r3, #20]
 6360              	.L1149:
 6361 0038 7805     		lsls	r0, r7, #21
 6362 003a 37D5     		bpl	.L1150
 6363 003c F105     		lsls	r1, r6, #23
 6364 003e 35D5     		bpl	.L1150
 6365 0040 94F83EE0 		ldrb	lr, [r4, #62]	@ zero_extendqisi2
 6366 0044 618D     		ldrh	r1, [r4, #42]
 6367 0046 94F83D20 		ldrb	r2, [r4, #61]	@ zero_extendqisi2
 6368 004a BEF1200F 		cmp	lr, #32
 6369 004e 89B2     		uxth	r1, r1
 6370 0050 D2B2     		uxtb	r2, r2
 6371 0052 206B     		ldr	r0, [r4, #48]
 6372 0054 5AD1     		bne	.L1151
 6373 0056 0029     		cmp	r1, #0
 6374 0058 58D1     		bne	.L1151
 6375 005a 02F0F701 		and	r1, r2, #247
 6376 005e 2129     		cmp	r1, #33
 6377 0060 03D0     		beq	.L1152
 6378 0062 282A     		cmp	r2, #40
 6379 0064 52D1     		bne	.L1151
 6380 0066 2128     		cmp	r0, #33
 6381 0068 50D1     		bne	.L1151
 6382              	.L1152:
 6383 006a 94F83D20 		ldrb	r2, [r4, #61]	@ zero_extendqisi2
 6384 006e E16A     		ldr	r1, [r4, #44]
 6385 0070 D2B2     		uxtb	r2, r2
ARM GAS  /tmp/cc5JP12Q.s 			page 111


 6386 0072 0829     		cmp	r1, #8
 6387 0074 01D0     		beq	.L1153
 6388 0076 2029     		cmp	r1, #32
 6389 0078 2AD1     		bne	.L1154
 6390              	.L1153:
 6391 007a 282A     		cmp	r2, #40
 6392 007c 28D1     		bne	.L1154
 6393 007e 2C4A     		ldr	r2, .L1185
 6394 0080 2046     		mov	r0, r4
 6395 0082 E262     		str	r2, [r4, #44]
 6396 0084 5A68     		ldr	r2, [r3, #4]
 6397 0086 22F4E062 		bic	r2, r2, #1792
 6398 008a 5A60     		str	r2, [r3, #4]
 6399 008c 6FF48062 		mvn	r2, #1024
 6400 0090 5A61     		str	r2, [r3, #20]
 6401 0092 1A68     		ldr	r2, [r3]
 6402 0094 22F48062 		bic	r2, r2, #1024
 6403 0098 1A60     		str	r2, [r3]
 6404 009a 0023     		movs	r3, #0
 6405 009c 2022     		movs	r2, #32
 6406 009e 2363     		str	r3, [r4, #48]
 6407 00a0 84F83D20 		strb	r2, [r4, #61]
 6408 00a4 84F83E30 		strb	r3, [r4, #62]
 6409 00a8 FFF7FEFF 		bl	HAL_I2C_ListenCpltCallback
 6410              	.L1150:
 6411 00ac 3A05     		lsls	r2, r7, #20
 6412 00ae 3BD5     		bpl	.L1156
 6413 00b0 F305     		lsls	r3, r6, #23
 6414 00b2 39D5     		bpl	.L1156
 6415 00b4 6FF40062 		mvn	r2, #2048
 6416 00b8 2368     		ldr	r3, [r4]
 6417 00ba 45F00805 		orr	r5, r5, #8
 6418 00be 5A61     		str	r2, [r3, #20]
 6419              	.L1157:
 6420 00c0 236C     		ldr	r3, [r4, #64]
 6421 00c2 2046     		mov	r0, r4
 6422 00c4 1D43     		orrs	r5, r5, r3
 6423 00c6 2564     		str	r5, [r4, #64]
 6424 00c8 BDE8F840 		pop	{r3, r4, r5, r6, r7, lr}
 6425 00cc FFF7FEBF 		b	I2C_ITError
 6426              	.L1154:
 6427 00d0 212A     		cmp	r2, #33
 6428 00d2 17D1     		bne	.L1155
 6429 00d4 1649     		ldr	r1, .L1185
 6430 00d6 2046     		mov	r0, r4
 6431 00d8 E162     		str	r1, [r4, #44]
 6432 00da 2263     		str	r2, [r4, #48]
 6433 00dc 2022     		movs	r2, #32
 6434 00de 84F83D20 		strb	r2, [r4, #61]
 6435 00e2 0022     		movs	r2, #0
 6436 00e4 84F83E20 		strb	r2, [r4, #62]
 6437 00e8 5A68     		ldr	r2, [r3, #4]
 6438 00ea 22F4E062 		bic	r2, r2, #1792
 6439 00ee 5A60     		str	r2, [r3, #4]
 6440 00f0 6FF48062 		mvn	r2, #1024
 6441 00f4 5A61     		str	r2, [r3, #20]
 6442 00f6 1A68     		ldr	r2, [r3]
ARM GAS  /tmp/cc5JP12Q.s 			page 112


 6443 00f8 22F48062 		bic	r2, r2, #1024
 6444 00fc 1A60     		str	r2, [r3]
 6445 00fe FFF7FEFF 		bl	HAL_I2C_SlaveTxCpltCallback
 6446 0102 D3E7     		b	.L1150
 6447              	.L1155:
 6448 0104 6FF48062 		mvn	r2, #1024
 6449 0108 5A61     		str	r2, [r3, #20]
 6450 010a CFE7     		b	.L1150
 6451              	.L1151:
 6452 010c 6FF48062 		mvn	r2, #1024
 6453 0110 5A61     		str	r2, [r3, #20]
 6454 0112 94F83E20 		ldrb	r2, [r4, #62]	@ zero_extendqisi2
 6455 0116 45F00405 		orr	r5, r5, #4
 6456 011a 102A     		cmp	r2, #16
 6457 011c 02BF     		ittt	eq
 6458 011e 1A68     		ldreq	r2, [r3]
 6459 0120 42F40072 		orreq	r2, r2, #512
 6460 0124 1A60     		streq	r2, [r3]
 6461 0126 C1E7     		b	.L1150
 6462              	.L1156:
 6463 0128 002D     		cmp	r5, #0
 6464 012a C9D1     		bne	.L1157
 6465 012c F8BD     		pop	{r3, r4, r5, r6, r7, pc}
 6466              	.L1186:
 6467 012e 00BF     		.align	2
 6468              	.L1185:
 6469 0130 0000FFFF 		.word	-65536
 6471              		.section	.text.HAL_I2C_GetState,"ax",%progbits
 6472              		.align	1
 6473              		.global	HAL_I2C_GetState
 6474              		.syntax unified
 6475              		.thumb
 6476              		.thumb_func
 6477              		.fpu softvfp
 6479              	HAL_I2C_GetState:
 6480              		@ args = 0, pretend = 0, frame = 0
 6481              		@ frame_needed = 0, uses_anonymous_args = 0
 6482              		@ link register save eliminated.
 6483 0000 90F83D00 		ldrb	r0, [r0, #61]	@ zero_extendqisi2
 6484 0004 7047     		bx	lr
 6486              		.section	.text.HAL_I2C_GetMode,"ax",%progbits
 6487              		.align	1
 6488              		.global	HAL_I2C_GetMode
 6489              		.syntax unified
 6490              		.thumb
 6491              		.thumb_func
 6492              		.fpu softvfp
 6494              	HAL_I2C_GetMode:
 6495              		@ args = 0, pretend = 0, frame = 0
 6496              		@ frame_needed = 0, uses_anonymous_args = 0
 6497              		@ link register save eliminated.
 6498 0000 90F83E00 		ldrb	r0, [r0, #62]	@ zero_extendqisi2
 6499 0004 7047     		bx	lr
 6501              		.section	.text.HAL_I2C_GetError,"ax",%progbits
 6502              		.align	1
 6503              		.global	HAL_I2C_GetError
 6504              		.syntax unified
ARM GAS  /tmp/cc5JP12Q.s 			page 113


 6505              		.thumb
 6506              		.thumb_func
 6507              		.fpu softvfp
 6509              	HAL_I2C_GetError:
 6510              		@ args = 0, pretend = 0, frame = 0
 6511              		@ frame_needed = 0, uses_anonymous_args = 0
 6512              		@ link register save eliminated.
 6513 0000 006C     		ldr	r0, [r0, #64]
 6514 0002 7047     		bx	lr
 6516              		.ident	"GCC: (15:6.3.1+svn253039-1build1) 6.3.1 20170620"
ARM GAS  /tmp/cc5JP12Q.s 			page 114

