ARM GAS  /tmp/ccwtxWOa.s 			page 1


   1              		.syntax unified
   2              		.cpu cortex-m3
   3              		.fpu softvfp
   4              		.eabi_attribute 20, 1
   5              		.eabi_attribute 21, 1
   6              		.eabi_attribute 23, 3
   7              		.eabi_attribute 24, 1
   8              		.eabi_attribute 25, 1
   9              		.eabi_attribute 26, 1
  10              		.eabi_attribute 30, 4
  11              		.eabi_attribute 34, 1
  12              		.eabi_attribute 18, 4
  13              		.thumb
  14              		.file	"stm32f1xx_hal_uart.c"
  15              		.section	.text.UART_EndRxTransfer,"ax",%progbits
  16              		.align	1
  17              		.thumb
  18              		.thumb_func
  20              	UART_EndRxTransfer:
  21              		@ args = 0, pretend = 0, frame = 0
  22              		@ frame_needed = 0, uses_anonymous_args = 0
  23              		@ link register save eliminated.
  24 0000 0368     		ldr	r3, [r0]
  25 0002 DA68     		ldr	r2, [r3, #12]
  26 0004 22F49072 		bic	r2, r2, #288
  27 0008 DA60     		str	r2, [r3, #12]
  28 000a 5A69     		ldr	r2, [r3, #20]
  29 000c 22F00102 		bic	r2, r2, #1
  30 0010 5A61     		str	r2, [r3, #20]
  31 0012 2023     		movs	r3, #32
  32 0014 80F83A30 		strb	r3, [r0, #58]
  33 0018 7047     		bx	lr
  35              		.section	.text.UART_SetConfig,"ax",%progbits
  36              		.align	1
  37              		.thumb
  38              		.thumb_func
  40              	UART_SetConfig:
  41              		@ args = 0, pretend = 0, frame = 0
  42              		@ frame_needed = 0, uses_anonymous_args = 0
  43 0000 38B5     		push	{r3, r4, r5, lr}
  44 0002 0546     		mov	r5, r0
  45 0004 0368     		ldr	r3, [r0]
  46 0006 C469     		ldr	r4, [r0, #28]
  47 0008 1A69     		ldr	r2, [r3, #16]
  48 000a B4F5004F 		cmp	r4, #32768
  49 000e 22F44051 		bic	r1, r2, #12288
  50 0012 C268     		ldr	r2, [r0, #12]
  51 0014 0069     		ldr	r0, [r0, #16]
  52 0016 42EA0102 		orr	r2, r2, r1
  53 001a 1A61     		str	r2, [r3, #16]
  54 001c AA68     		ldr	r2, [r5, #8]
  55 001e D968     		ldr	r1, [r3, #12]
  56 0020 40EA0200 		orr	r0, r0, r2
  57 0024 6A69     		ldr	r2, [r5, #20]
  58 0026 42EA0002 		orr	r2, r2, r0
  59 002a 42EA0400 		orr	r0, r2, r4
  60 002e 21F41642 		bic	r2, r1, #38400
ARM GAS  /tmp/ccwtxWOa.s 			page 2


  61 0032 22F00C02 		bic	r2, r2, #12
  62 0036 42EA0002 		orr	r2, r2, r0
  63 003a DA60     		str	r2, [r3, #12]
  64 003c 5A69     		ldr	r2, [r3, #20]
  65 003e 22F44071 		bic	r1, r2, #768
  66 0042 AA69     		ldr	r2, [r5, #24]
  67 0044 42EA0102 		orr	r2, r2, r1
  68 0048 5A61     		str	r2, [r3, #20]
  69 004a 204A     		ldr	r2, .L10
  70 004c 21D1     		bne	.L3
  71 004e 9342     		cmp	r3, r2
  72 0050 4FF01904 		mov	r4, #25
  73 0054 02D1     		bne	.L4
  74 0056 FFF7FEFF 		bl	HAL_RCC_GetPCLK2Freq
  75 005a 01E0     		b	.L7
  76              	.L4:
  77 005c FFF7FEFF 		bl	HAL_RCC_GetPCLK1Freq
  78              	.L7:
  79 0060 6043     		muls	r0, r4, r0
  80 0062 6C68     		ldr	r4, [r5, #4]
  81 0064 2968     		ldr	r1, [r5]
  82 0066 6400     		lsls	r4, r4, #1
  83 0068 B0FBF4F0 		udiv	r0, r0, r4
  84 006c 6424     		movs	r4, #100
  85 006e B0FBF4F5 		udiv	r5, r0, r4
  86 0072 04FB1500 		mls	r0, r4, r5, r0
  87 0076 C000     		lsls	r0, r0, #3
  88 0078 3230     		adds	r0, r0, #50
  89 007a B0FBF4F3 		udiv	r3, r0, r4
  90 007e 03F00702 		and	r2, r3, #7
  91 0082 02EB0512 		add	r2, r2, r5, lsl #4
  92 0086 03F0F803 		and	r3, r3, #248
  93 008a 02EB4303 		add	r3, r2, r3, lsl #1
  94 008e 8B60     		str	r3, [r1, #8]
  95 0090 38BD     		pop	{r3, r4, r5, pc}
  96              	.L3:
  97 0092 9342     		cmp	r3, r2
  98 0094 4FF01904 		mov	r4, #25
  99 0098 02D1     		bne	.L6
 100 009a FFF7FEFF 		bl	HAL_RCC_GetPCLK2Freq
 101 009e 01E0     		b	.L8
 102              	.L6:
 103 00a0 FFF7FEFF 		bl	HAL_RCC_GetPCLK1Freq
 104              	.L8:
 105 00a4 6043     		muls	r0, r4, r0
 106 00a6 6C68     		ldr	r4, [r5, #4]
 107 00a8 6423     		movs	r3, #100
 108 00aa A400     		lsls	r4, r4, #2
 109 00ac B0FBF4F0 		udiv	r0, r0, r4
 110 00b0 B0FBF3F1 		udiv	r1, r0, r3
 111 00b4 03FB1100 		mls	r0, r3, r1, r0
 112 00b8 0001     		lsls	r0, r0, #4
 113 00ba 3230     		adds	r0, r0, #50
 114 00bc B0FBF3F3 		udiv	r3, r0, r3
 115 00c0 2A68     		ldr	r2, [r5]
 116 00c2 DBB2     		uxtb	r3, r3
 117 00c4 03EB0113 		add	r3, r3, r1, lsl #4
ARM GAS  /tmp/ccwtxWOa.s 			page 3


 118 00c8 9360     		str	r3, [r2, #8]
 119 00ca 38BD     		pop	{r3, r4, r5, pc}
 120              	.L11:
 121              		.align	2
 122              	.L10:
 123 00cc 00380140 		.word	1073821696
 125              		.section	.text.UART_WaitOnFlagUntilTimeout.constprop.2,"ax",%progbits
 126              		.align	1
 127              		.thumb
 128              		.thumb_func
 130              	UART_WaitOnFlagUntilTimeout.constprop.2:
 131              		@ args = 0, pretend = 0, frame = 0
 132              		@ frame_needed = 0, uses_anonymous_args = 0
 133 0000 F8B5     		push	{r3, r4, r5, r6, r7, lr}
 134 0002 0446     		mov	r4, r0
 135 0004 0E46     		mov	r6, r1
 136 0006 1746     		mov	r7, r2
 137 0008 1D46     		mov	r5, r3
 138              	.L13:
 139 000a 2368     		ldr	r3, [r4]
 140              	.L14:
 141 000c 1868     		ldr	r0, [r3]
 142 000e 3040     		ands	r0, r0, r6
 143 0010 B042     		cmp	r0, r6
 144 0012 1BD0     		beq	.L21
 145 0014 6A1C     		adds	r2, r5, #1
 146 0016 F9D0     		beq	.L14
 147 0018 95B9     		cbnz	r5, .L15
 148              	.L17:
 149 001a 2368     		ldr	r3, [r4]
 150 001c 0320     		movs	r0, #3
 151 001e DA68     		ldr	r2, [r3, #12]
 152 0020 22F4D072 		bic	r2, r2, #416
 153 0024 DA60     		str	r2, [r3, #12]
 154 0026 5A69     		ldr	r2, [r3, #20]
 155 0028 22F00102 		bic	r2, r2, #1
 156 002c 5A61     		str	r2, [r3, #20]
 157 002e 2023     		movs	r3, #32
 158 0030 84F83930 		strb	r3, [r4, #57]
 159 0034 84F83A30 		strb	r3, [r4, #58]
 160 0038 0023     		movs	r3, #0
 161 003a 84F83830 		strb	r3, [r4, #56]
 162 003e F8BD     		pop	{r3, r4, r5, r6, r7, pc}
 163              	.L15:
 164 0040 FFF7FEFF 		bl	HAL_GetTick
 165 0044 C01B     		subs	r0, r0, r7
 166 0046 A842     		cmp	r0, r5
 167 0048 DFD9     		bls	.L13
 168 004a E6E7     		b	.L17
 169              	.L21:
 170 004c 0020     		movs	r0, #0
 171 004e F8BD     		pop	{r3, r4, r5, r6, r7, pc}
 173              		.section	.text.HAL_UART_MspInit,"ax",%progbits
 174              		.align	1
 175              		.weak	HAL_UART_MspInit
 176              		.thumb
 177              		.thumb_func
ARM GAS  /tmp/ccwtxWOa.s 			page 4


 179              	HAL_UART_MspInit:
 180              		@ args = 0, pretend = 0, frame = 0
 181              		@ frame_needed = 0, uses_anonymous_args = 0
 182              		@ link register save eliminated.
 183 0000 7047     		bx	lr
 185              		.section	.text.HAL_UART_Init,"ax",%progbits
 186              		.align	1
 187              		.global	HAL_UART_Init
 188              		.thumb
 189              		.thumb_func
 191              	HAL_UART_Init:
 192              		@ args = 0, pretend = 0, frame = 0
 193              		@ frame_needed = 0, uses_anonymous_args = 0
 194 0000 10B5     		push	{r4, lr}
 195 0002 0446     		mov	r4, r0
 196 0004 40B3     		cbz	r0, .L26
 197 0006 90F83930 		ldrb	r3, [r0, #57]	@ zero_extendqisi2
 198 000a 03F0FF02 		and	r2, r3, #255
 199 000e 1BB9     		cbnz	r3, .L25
 200 0010 80F83820 		strb	r2, [r0, #56]
 201 0014 FFF7FEFF 		bl	HAL_UART_MspInit
 202              	.L25:
 203 0018 2268     		ldr	r2, [r4]
 204 001a 2423     		movs	r3, #36
 205 001c 84F83930 		strb	r3, [r4, #57]
 206 0020 D368     		ldr	r3, [r2, #12]
 207 0022 2046     		mov	r0, r4
 208 0024 23F40053 		bic	r3, r3, #8192
 209 0028 D360     		str	r3, [r2, #12]
 210 002a FFF7FEFF 		bl	UART_SetConfig
 211 002e 2368     		ldr	r3, [r4]
 212 0030 0020     		movs	r0, #0
 213 0032 1A69     		ldr	r2, [r3, #16]
 214 0034 22F49042 		bic	r2, r2, #18432
 215 0038 1A61     		str	r2, [r3, #16]
 216 003a 5A69     		ldr	r2, [r3, #20]
 217 003c 22F02A02 		bic	r2, r2, #42
 218 0040 5A61     		str	r2, [r3, #20]
 219 0042 DA68     		ldr	r2, [r3, #12]
 220 0044 42F40052 		orr	r2, r2, #8192
 221 0048 DA60     		str	r2, [r3, #12]
 222 004a 2023     		movs	r3, #32
 223 004c E063     		str	r0, [r4, #60]
 224 004e 84F83930 		strb	r3, [r4, #57]
 225 0052 84F83A30 		strb	r3, [r4, #58]
 226 0056 10BD     		pop	{r4, pc}
 227              	.L26:
 228 0058 0120     		movs	r0, #1
 229 005a 10BD     		pop	{r4, pc}
 231              		.section	.text.HAL_HalfDuplex_Init,"ax",%progbits
 232              		.align	1
 233              		.global	HAL_HalfDuplex_Init
 234              		.thumb
 235              		.thumb_func
 237              	HAL_HalfDuplex_Init:
 238              		@ args = 0, pretend = 0, frame = 0
 239              		@ frame_needed = 0, uses_anonymous_args = 0
ARM GAS  /tmp/ccwtxWOa.s 			page 5


 240 0000 10B5     		push	{r4, lr}
 241 0002 0446     		mov	r4, r0
 242 0004 60B3     		cbz	r0, .L30
 243 0006 90F83930 		ldrb	r3, [r0, #57]	@ zero_extendqisi2
 244 000a 03F0FF02 		and	r2, r3, #255
 245 000e 1BB9     		cbnz	r3, .L29
 246 0010 80F83820 		strb	r2, [r0, #56]
 247 0014 FFF7FEFF 		bl	HAL_UART_MspInit
 248              	.L29:
 249 0018 2268     		ldr	r2, [r4]
 250 001a 2423     		movs	r3, #36
 251 001c 84F83930 		strb	r3, [r4, #57]
 252 0020 D368     		ldr	r3, [r2, #12]
 253 0022 2046     		mov	r0, r4
 254 0024 23F40053 		bic	r3, r3, #8192
 255 0028 D360     		str	r3, [r2, #12]
 256 002a FFF7FEFF 		bl	UART_SetConfig
 257 002e 2368     		ldr	r3, [r4]
 258 0030 0020     		movs	r0, #0
 259 0032 1A69     		ldr	r2, [r3, #16]
 260 0034 22F49042 		bic	r2, r2, #18432
 261 0038 1A61     		str	r2, [r3, #16]
 262 003a 5A69     		ldr	r2, [r3, #20]
 263 003c 22F02202 		bic	r2, r2, #34
 264 0040 5A61     		str	r2, [r3, #20]
 265 0042 5A69     		ldr	r2, [r3, #20]
 266 0044 42F00802 		orr	r2, r2, #8
 267 0048 5A61     		str	r2, [r3, #20]
 268 004a DA68     		ldr	r2, [r3, #12]
 269 004c 42F40052 		orr	r2, r2, #8192
 270 0050 DA60     		str	r2, [r3, #12]
 271 0052 2023     		movs	r3, #32
 272 0054 E063     		str	r0, [r4, #60]
 273 0056 84F83930 		strb	r3, [r4, #57]
 274 005a 84F83A30 		strb	r3, [r4, #58]
 275 005e 10BD     		pop	{r4, pc}
 276              	.L30:
 277 0060 0120     		movs	r0, #1
 278 0062 10BD     		pop	{r4, pc}
 280              		.section	.text.HAL_LIN_Init,"ax",%progbits
 281              		.align	1
 282              		.global	HAL_LIN_Init
 283              		.thumb
 284              		.thumb_func
 286              	HAL_LIN_Init:
 287              		@ args = 0, pretend = 0, frame = 0
 288              		@ frame_needed = 0, uses_anonymous_args = 0
 289 0000 38B5     		push	{r3, r4, r5, lr}
 290 0002 0D46     		mov	r5, r1
 291 0004 0446     		mov	r4, r0
 292 0006 0028     		cmp	r0, #0
 293 0008 33D0     		beq	.L34
 294 000a 90F83930 		ldrb	r3, [r0, #57]	@ zero_extendqisi2
 295 000e 03F0FF02 		and	r2, r3, #255
 296 0012 1BB9     		cbnz	r3, .L33
 297 0014 80F83820 		strb	r2, [r0, #56]
 298 0018 FFF7FEFF 		bl	HAL_UART_MspInit
ARM GAS  /tmp/ccwtxWOa.s 			page 6


 299              	.L33:
 300 001c 2268     		ldr	r2, [r4]
 301 001e 2423     		movs	r3, #36
 302 0020 84F83930 		strb	r3, [r4, #57]
 303 0024 D368     		ldr	r3, [r2, #12]
 304 0026 2046     		mov	r0, r4
 305 0028 23F40053 		bic	r3, r3, #8192
 306 002c D360     		str	r3, [r2, #12]
 307 002e FFF7FEFF 		bl	UART_SetConfig
 308 0032 2368     		ldr	r3, [r4]
 309 0034 0020     		movs	r0, #0
 310 0036 1A69     		ldr	r2, [r3, #16]
 311 0038 22F40062 		bic	r2, r2, #2048
 312 003c 1A61     		str	r2, [r3, #16]
 313 003e 5A69     		ldr	r2, [r3, #20]
 314 0040 22F02A02 		bic	r2, r2, #42
 315 0044 5A61     		str	r2, [r3, #20]
 316 0046 1A69     		ldr	r2, [r3, #16]
 317 0048 42F48042 		orr	r2, r2, #16384
 318 004c 1A61     		str	r2, [r3, #16]
 319 004e 1A69     		ldr	r2, [r3, #16]
 320 0050 22F02002 		bic	r2, r2, #32
 321 0054 1A61     		str	r2, [r3, #16]
 322 0056 1969     		ldr	r1, [r3, #16]
 323 0058 2943     		orrs	r1, r1, r5
 324 005a 1961     		str	r1, [r3, #16]
 325 005c DA68     		ldr	r2, [r3, #12]
 326 005e 42F40052 		orr	r2, r2, #8192
 327 0062 DA60     		str	r2, [r3, #12]
 328 0064 2023     		movs	r3, #32
 329 0066 E063     		str	r0, [r4, #60]
 330 0068 84F83930 		strb	r3, [r4, #57]
 331 006c 84F83A30 		strb	r3, [r4, #58]
 332 0070 38BD     		pop	{r3, r4, r5, pc}
 333              	.L34:
 334 0072 0120     		movs	r0, #1
 335 0074 38BD     		pop	{r3, r4, r5, pc}
 337              		.section	.text.HAL_MultiProcessor_Init,"ax",%progbits
 338              		.align	1
 339              		.global	HAL_MultiProcessor_Init
 340              		.thumb
 341              		.thumb_func
 343              	HAL_MultiProcessor_Init:
 344              		@ args = 0, pretend = 0, frame = 0
 345              		@ frame_needed = 0, uses_anonymous_args = 0
 346 0000 70B5     		push	{r4, r5, r6, lr}
 347 0002 0E46     		mov	r6, r1
 348 0004 1546     		mov	r5, r2
 349 0006 0446     		mov	r4, r0
 350 0008 0028     		cmp	r0, #0
 351 000a 36D0     		beq	.L38
 352 000c 90F83930 		ldrb	r3, [r0, #57]	@ zero_extendqisi2
 353 0010 03F0FF02 		and	r2, r3, #255
 354 0014 1BB9     		cbnz	r3, .L37
 355 0016 80F83820 		strb	r2, [r0, #56]
 356 001a FFF7FEFF 		bl	HAL_UART_MspInit
 357              	.L37:
ARM GAS  /tmp/ccwtxWOa.s 			page 7


 358 001e 2268     		ldr	r2, [r4]
 359 0020 2423     		movs	r3, #36
 360 0022 84F83930 		strb	r3, [r4, #57]
 361 0026 D368     		ldr	r3, [r2, #12]
 362 0028 2046     		mov	r0, r4
 363 002a 23F40053 		bic	r3, r3, #8192
 364 002e D360     		str	r3, [r2, #12]
 365 0030 FFF7FEFF 		bl	UART_SetConfig
 366 0034 2368     		ldr	r3, [r4]
 367 0036 0020     		movs	r0, #0
 368 0038 1A69     		ldr	r2, [r3, #16]
 369 003a 22F49042 		bic	r2, r2, #18432
 370 003e 1A61     		str	r2, [r3, #16]
 371 0040 5A69     		ldr	r2, [r3, #20]
 372 0042 22F02A02 		bic	r2, r2, #42
 373 0046 5A61     		str	r2, [r3, #20]
 374 0048 1A69     		ldr	r2, [r3, #16]
 375 004a 22F00F02 		bic	r2, r2, #15
 376 004e 1A61     		str	r2, [r3, #16]
 377 0050 1969     		ldr	r1, [r3, #16]
 378 0052 3143     		orrs	r1, r1, r6
 379 0054 1961     		str	r1, [r3, #16]
 380 0056 DA68     		ldr	r2, [r3, #12]
 381 0058 22F40062 		bic	r2, r2, #2048
 382 005c DA60     		str	r2, [r3, #12]
 383 005e DA68     		ldr	r2, [r3, #12]
 384 0060 2A43     		orrs	r2, r2, r5
 385 0062 DA60     		str	r2, [r3, #12]
 386 0064 DA68     		ldr	r2, [r3, #12]
 387 0066 42F40052 		orr	r2, r2, #8192
 388 006a DA60     		str	r2, [r3, #12]
 389 006c 2023     		movs	r3, #32
 390 006e E063     		str	r0, [r4, #60]
 391 0070 84F83930 		strb	r3, [r4, #57]
 392 0074 84F83A30 		strb	r3, [r4, #58]
 393 0078 70BD     		pop	{r4, r5, r6, pc}
 394              	.L38:
 395 007a 0120     		movs	r0, #1
 396 007c 70BD     		pop	{r4, r5, r6, pc}
 398              		.section	.text.HAL_UART_MspDeInit,"ax",%progbits
 399              		.align	1
 400              		.weak	HAL_UART_MspDeInit
 401              		.thumb
 402              		.thumb_func
 404              	HAL_UART_MspDeInit:
 405              		@ args = 0, pretend = 0, frame = 0
 406              		@ frame_needed = 0, uses_anonymous_args = 0
 407              		@ link register save eliminated.
 408 0000 7047     		bx	lr
 410              		.section	.text.HAL_UART_DeInit,"ax",%progbits
 411              		.align	1
 412              		.global	HAL_UART_DeInit
 413              		.thumb
 414              		.thumb_func
 416              	HAL_UART_DeInit:
 417              		@ args = 0, pretend = 0, frame = 0
 418              		@ frame_needed = 0, uses_anonymous_args = 0
ARM GAS  /tmp/ccwtxWOa.s 			page 8


 419 0000 10B5     		push	{r4, lr}
 420 0002 0446     		mov	r4, r0
 421 0004 90B1     		cbz	r0, .L42
 422 0006 0268     		ldr	r2, [r0]
 423 0008 2423     		movs	r3, #36
 424 000a 80F83930 		strb	r3, [r0, #57]
 425 000e D368     		ldr	r3, [r2, #12]
 426 0010 23F40053 		bic	r3, r3, #8192
 427 0014 D360     		str	r3, [r2, #12]
 428 0016 FFF7FEFF 		bl	HAL_UART_MspDeInit
 429 001a 0020     		movs	r0, #0
 430 001c E063     		str	r0, [r4, #60]
 431 001e 84F83800 		strb	r0, [r4, #56]
 432 0022 84F83900 		strb	r0, [r4, #57]
 433 0026 84F83A00 		strb	r0, [r4, #58]
 434 002a 10BD     		pop	{r4, pc}
 435              	.L42:
 436 002c 0120     		movs	r0, #1
 437 002e 10BD     		pop	{r4, pc}
 439              		.section	.text.HAL_UART_Transmit,"ax",%progbits
 440              		.align	1
 441              		.global	HAL_UART_Transmit
 442              		.thumb
 443              		.thumb_func
 445              	HAL_UART_Transmit:
 446              		@ args = 0, pretend = 0, frame = 0
 447              		@ frame_needed = 0, uses_anonymous_args = 0
 448 0000 2DE9F041 		push	{r4, r5, r6, r7, r8, lr}
 449 0004 1E46     		mov	r6, r3
 450 0006 90F83930 		ldrb	r3, [r0, #57]	@ zero_extendqisi2
 451 000a 0446     		mov	r4, r0
 452 000c 202B     		cmp	r3, #32
 453 000e 0D46     		mov	r5, r1
 454 0010 9046     		mov	r8, r2
 455 0012 4FD1     		bne	.L55
 456 0014 0029     		cmp	r1, #0
 457 0016 4AD0     		beq	.L54
 458 0018 002A     		cmp	r2, #0
 459 001a 48D0     		beq	.L54
 460 001c 90F83830 		ldrb	r3, [r0, #56]	@ zero_extendqisi2
 461 0020 012B     		cmp	r3, #1
 462 0022 47D0     		beq	.L55
 463 0024 0123     		movs	r3, #1
 464 0026 80F83830 		strb	r3, [r0, #56]
 465 002a 0023     		movs	r3, #0
 466 002c C363     		str	r3, [r0, #60]
 467 002e 2123     		movs	r3, #33
 468 0030 80F83930 		strb	r3, [r0, #57]
 469 0034 FFF7FEFF 		bl	HAL_GetTick
 470 0038 0746     		mov	r7, r0
 471 003a A4F82480 		strh	r8, [r4, #36]	@ movhi
 472 003e A4F82680 		strh	r8, [r4, #38]	@ movhi
 473              	.L45:
 474 0042 E38C     		ldrh	r3, [r4, #38]
 475 0044 9BB2     		uxth	r3, r3
 476 0046 1BB3     		cbz	r3, .L57
 477 0048 E38C     		ldrh	r3, [r4, #38]
ARM GAS  /tmp/ccwtxWOa.s 			page 9


 478 004a 2046     		mov	r0, r4
 479 004c 013B     		subs	r3, r3, #1
 480 004e 9BB2     		uxth	r3, r3
 481 0050 E384     		strh	r3, [r4, #38]	@ movhi
 482 0052 A368     		ldr	r3, [r4, #8]
 483 0054 8021     		movs	r1, #128
 484 0056 B3F5805F 		cmp	r3, #4096
 485 005a 3A46     		mov	r2, r7
 486 005c 3346     		mov	r3, r6
 487 005e 0ED1     		bne	.L46
 488 0060 FFF7FEFF 		bl	UART_WaitOnFlagUntilTimeout.constprop.2
 489 0064 10B1     		cbz	r0, .L47
 490              	.L50:
 491 0066 0320     		movs	r0, #3
 492 0068 BDE8F081 		pop	{r4, r5, r6, r7, r8, pc}
 493              	.L47:
 494 006c 2B88     		ldrh	r3, [r5]
 495 006e 2268     		ldr	r2, [r4]
 496 0070 C3F30803 		ubfx	r3, r3, #0, #9
 497 0074 5360     		str	r3, [r2, #4]
 498 0076 2369     		ldr	r3, [r4, #16]
 499 0078 43B9     		cbnz	r3, .L56
 500 007a 0235     		adds	r5, r5, #2
 501 007c E1E7     		b	.L45
 502              	.L46:
 503 007e FFF7FEFF 		bl	UART_WaitOnFlagUntilTimeout.constprop.2
 504 0082 0028     		cmp	r0, #0
 505 0084 EFD1     		bne	.L50
 506 0086 2368     		ldr	r3, [r4]
 507 0088 2A78     		ldrb	r2, [r5]	@ zero_extendqisi2
 508 008a 5A60     		str	r2, [r3, #4]
 509              	.L56:
 510 008c 0135     		adds	r5, r5, #1
 511 008e D8E7     		b	.L45
 512              	.L57:
 513 0090 2046     		mov	r0, r4
 514 0092 4021     		movs	r1, #64
 515 0094 3A46     		mov	r2, r7
 516 0096 3346     		mov	r3, r6
 517 0098 FFF7FEFF 		bl	UART_WaitOnFlagUntilTimeout.constprop.2
 518 009c 0028     		cmp	r0, #0
 519 009e E2D1     		bne	.L50
 520 00a0 2023     		movs	r3, #32
 521 00a2 84F83930 		strb	r3, [r4, #57]
 522 00a6 84F83800 		strb	r0, [r4, #56]
 523 00aa BDE8F081 		pop	{r4, r5, r6, r7, r8, pc}
 524              	.L54:
 525 00ae 0120     		movs	r0, #1
 526 00b0 BDE8F081 		pop	{r4, r5, r6, r7, r8, pc}
 527              	.L55:
 528 00b4 0220     		movs	r0, #2
 529 00b6 BDE8F081 		pop	{r4, r5, r6, r7, r8, pc}
 531              		.section	.text.HAL_UART_Receive,"ax",%progbits
 532              		.align	1
 533              		.global	HAL_UART_Receive
 534              		.thumb
 535              		.thumb_func
ARM GAS  /tmp/ccwtxWOa.s 			page 10


 537              	HAL_UART_Receive:
 538              		@ args = 0, pretend = 0, frame = 0
 539              		@ frame_needed = 0, uses_anonymous_args = 0
 540 0000 2DE9F041 		push	{r4, r5, r6, r7, r8, lr}
 541 0004 1F46     		mov	r7, r3
 542 0006 90F83A30 		ldrb	r3, [r0, #58]	@ zero_extendqisi2
 543 000a 0446     		mov	r4, r0
 544 000c 202B     		cmp	r3, #32
 545 000e 0D46     		mov	r5, r1
 546 0010 9046     		mov	r8, r2
 547 0012 50D1     		bne	.L71
 548 0014 0029     		cmp	r1, #0
 549 0016 4BD0     		beq	.L70
 550 0018 002A     		cmp	r2, #0
 551 001a 49D0     		beq	.L70
 552 001c 90F83830 		ldrb	r3, [r0, #56]	@ zero_extendqisi2
 553 0020 012B     		cmp	r3, #1
 554 0022 48D0     		beq	.L71
 555 0024 0123     		movs	r3, #1
 556 0026 80F83830 		strb	r3, [r0, #56]
 557 002a 0023     		movs	r3, #0
 558 002c C363     		str	r3, [r0, #60]
 559 002e 2223     		movs	r3, #34
 560 0030 80F83A30 		strb	r3, [r0, #58]
 561 0034 FFF7FEFF 		bl	HAL_GetTick
 562 0038 0646     		mov	r6, r0
 563 003a A4F82C80 		strh	r8, [r4, #44]	@ movhi
 564 003e A4F82E80 		strh	r8, [r4, #46]	@ movhi
 565              	.L60:
 566 0042 E08D     		ldrh	r0, [r4, #46]
 567 0044 80B2     		uxth	r0, r0
 568 0046 60B3     		cbz	r0, .L73
 569 0048 E38D     		ldrh	r3, [r4, #46]
 570 004a 2046     		mov	r0, r4
 571 004c 013B     		subs	r3, r3, #1
 572 004e 9BB2     		uxth	r3, r3
 573 0050 E385     		strh	r3, [r4, #46]	@ movhi
 574 0052 A368     		ldr	r3, [r4, #8]
 575 0054 2021     		movs	r1, #32
 576 0056 B3F5805F 		cmp	r3, #4096
 577 005a 3246     		mov	r2, r6
 578 005c 3B46     		mov	r3, r7
 579 005e 12D1     		bne	.L61
 580 0060 FFF7FEFF 		bl	UART_WaitOnFlagUntilTimeout.constprop.2
 581 0064 10B1     		cbz	r0, .L62
 582              	.L65:
 583 0066 0320     		movs	r0, #3
 584 0068 BDE8F081 		pop	{r4, r5, r6, r7, r8, pc}
 585              	.L62:
 586 006c 2368     		ldr	r3, [r4]
 587 006e 2269     		ldr	r2, [r4, #16]
 588 0070 5B68     		ldr	r3, [r3, #4]
 589 0072 22B9     		cbnz	r2, .L63
 590 0074 C3F30803 		ubfx	r3, r3, #0, #9
 591 0078 25F8023B 		strh	r3, [r5], #2	@ movhi
 592 007c E1E7     		b	.L60
 593              	.L63:
ARM GAS  /tmp/ccwtxWOa.s 			page 11


 594 007e DBB2     		uxtb	r3, r3
 595 0080 25F8013B 		strh	r3, [r5], #1	@ movhi
 596 0084 DDE7     		b	.L60
 597              	.L61:
 598 0086 FFF7FEFF 		bl	UART_WaitOnFlagUntilTimeout.constprop.2
 599 008a 0028     		cmp	r0, #0
 600 008c EBD1     		bne	.L65
 601 008e 2368     		ldr	r3, [r4]
 602 0090 2169     		ldr	r1, [r4, #16]
 603 0092 6A1C     		adds	r2, r5, #1
 604 0094 5B68     		ldr	r3, [r3, #4]
 605 0096 09B1     		cbz	r1, .L72
 606 0098 03F07F03 		and	r3, r3, #127
 607              	.L72:
 608 009c 2B70     		strb	r3, [r5]
 609 009e 1546     		mov	r5, r2
 610 00a0 CFE7     		b	.L60
 611              	.L73:
 612 00a2 2023     		movs	r3, #32
 613 00a4 84F83A30 		strb	r3, [r4, #58]
 614 00a8 84F83800 		strb	r0, [r4, #56]
 615 00ac BDE8F081 		pop	{r4, r5, r6, r7, r8, pc}
 616              	.L70:
 617 00b0 0120     		movs	r0, #1
 618 00b2 BDE8F081 		pop	{r4, r5, r6, r7, r8, pc}
 619              	.L71:
 620 00b6 0220     		movs	r0, #2
 621 00b8 BDE8F081 		pop	{r4, r5, r6, r7, r8, pc}
 623              		.section	.text.HAL_UART_Transmit_IT,"ax",%progbits
 624              		.align	1
 625              		.global	HAL_UART_Transmit_IT
 626              		.thumb
 627              		.thumb_func
 629              	HAL_UART_Transmit_IT:
 630              		@ args = 0, pretend = 0, frame = 0
 631              		@ frame_needed = 0, uses_anonymous_args = 0
 632              		@ link register save eliminated.
 633 0000 90F83930 		ldrb	r3, [r0, #57]	@ zero_extendqisi2
 634 0004 202B     		cmp	r3, #32
 635 0006 18D1     		bne	.L79
 636 0008 A9B1     		cbz	r1, .L78
 637 000a A2B1     		cbz	r2, .L78
 638 000c 90F83830 		ldrb	r3, [r0, #56]	@ zero_extendqisi2
 639 0010 012B     		cmp	r3, #1
 640 0012 12D0     		beq	.L79
 641 0014 C284     		strh	r2, [r0, #38]	@ movhi
 642 0016 0162     		str	r1, [r0, #32]
 643 0018 8284     		strh	r2, [r0, #36]	@ movhi
 644 001a 0023     		movs	r3, #0
 645 001c 0168     		ldr	r1, [r0]
 646 001e 2122     		movs	r2, #33
 647 0020 C363     		str	r3, [r0, #60]
 648 0022 80F83920 		strb	r2, [r0, #57]
 649 0026 CA68     		ldr	r2, [r1, #12]
 650 0028 80F83830 		strb	r3, [r0, #56]
 651 002c 42F08002 		orr	r2, r2, #128
 652 0030 CA60     		str	r2, [r1, #12]
ARM GAS  /tmp/ccwtxWOa.s 			page 12


 653 0032 1846     		mov	r0, r3
 654 0034 7047     		bx	lr
 655              	.L78:
 656 0036 0120     		movs	r0, #1
 657 0038 7047     		bx	lr
 658              	.L79:
 659 003a 0220     		movs	r0, #2
 660 003c 7047     		bx	lr
 662              		.section	.text.HAL_UART_Receive_IT,"ax",%progbits
 663              		.align	1
 664              		.global	HAL_UART_Receive_IT
 665              		.thumb
 666              		.thumb_func
 668              	HAL_UART_Receive_IT:
 669              		@ args = 0, pretend = 0, frame = 0
 670              		@ frame_needed = 0, uses_anonymous_args = 0
 671              		@ link register save eliminated.
 672 0000 90F83A30 		ldrb	r3, [r0, #58]	@ zero_extendqisi2
 673 0004 202B     		cmp	r3, #32
 674 0006 20D1     		bne	.L85
 675 0008 E9B1     		cbz	r1, .L84
 676 000a E2B1     		cbz	r2, .L84
 677 000c 90F83830 		ldrb	r3, [r0, #56]	@ zero_extendqisi2
 678 0010 012B     		cmp	r3, #1
 679 0012 1AD0     		beq	.L85
 680 0014 C285     		strh	r2, [r0, #46]	@ movhi
 681 0016 8285     		strh	r2, [r0, #44]	@ movhi
 682 0018 0023     		movs	r3, #0
 683 001a 2222     		movs	r2, #34
 684 001c C363     		str	r3, [r0, #60]
 685 001e 80F83A20 		strb	r2, [r0, #58]
 686 0022 0268     		ldr	r2, [r0]
 687 0024 8162     		str	r1, [r0, #40]
 688 0026 D168     		ldr	r1, [r2, #12]
 689 0028 80F83830 		strb	r3, [r0, #56]
 690 002c 41F48071 		orr	r1, r1, #256
 691 0030 D160     		str	r1, [r2, #12]
 692 0032 5169     		ldr	r1, [r2, #20]
 693 0034 1846     		mov	r0, r3
 694 0036 41F00101 		orr	r1, r1, #1
 695 003a 5161     		str	r1, [r2, #20]
 696 003c D168     		ldr	r1, [r2, #12]
 697 003e 41F02001 		orr	r1, r1, #32
 698 0042 D160     		str	r1, [r2, #12]
 699 0044 7047     		bx	lr
 700              	.L84:
 701 0046 0120     		movs	r0, #1
 702 0048 7047     		bx	lr
 703              	.L85:
 704 004a 0220     		movs	r0, #2
 705 004c 7047     		bx	lr
 707              		.section	.text.HAL_UART_Transmit_DMA,"ax",%progbits
 708              		.align	1
 709              		.global	HAL_UART_Transmit_DMA
 710              		.thumb
 711              		.thumb_func
 713              	HAL_UART_Transmit_DMA:
ARM GAS  /tmp/ccwtxWOa.s 			page 13


 714              		@ args = 0, pretend = 0, frame = 0
 715              		@ frame_needed = 0, uses_anonymous_args = 0
 716 0000 38B5     		push	{r3, r4, r5, lr}
 717 0002 0446     		mov	r4, r0
 718 0004 1346     		mov	r3, r2
 719 0006 94F83920 		ldrb	r2, [r4, #57]	@ zero_extendqisi2
 720 000a 202A     		cmp	r2, #32
 721 000c 2AD1     		bne	.L91
 722 000e 39B3     		cbz	r1, .L90
 723 0010 33B3     		cbz	r3, .L90
 724 0012 94F83820 		ldrb	r2, [r4, #56]	@ zero_extendqisi2
 725 0016 012A     		cmp	r2, #1
 726 0018 24D0     		beq	.L91
 727 001a 0122     		movs	r2, #1
 728 001c 84F83820 		strb	r2, [r4, #56]
 729 0020 0025     		movs	r5, #0
 730 0022 2122     		movs	r2, #33
 731 0024 E384     		strh	r3, [r4, #38]	@ movhi
 732 0026 206B     		ldr	r0, [r4, #48]
 733 0028 E563     		str	r5, [r4, #60]
 734 002a 84F83920 		strb	r2, [r4, #57]
 735 002e 0E4A     		ldr	r2, .L92
 736 0030 A384     		strh	r3, [r4, #36]	@ movhi
 737 0032 2162     		str	r1, [r4, #32]
 738 0034 8262     		str	r2, [r0, #40]
 739 0036 0D4A     		ldr	r2, .L92+4
 740 0038 4563     		str	r5, [r0, #52]
 741 003a C262     		str	r2, [r0, #44]
 742 003c 0C4A     		ldr	r2, .L92+8
 743 003e 0263     		str	r2, [r0, #48]
 744 0040 2268     		ldr	r2, [r4]
 745 0042 0432     		adds	r2, r2, #4
 746 0044 FFF7FEFF 		bl	HAL_DMA_Start_IT
 747 0048 2368     		ldr	r3, [r4]
 748 004a 6FF04002 		mvn	r2, #64
 749 004e 1A60     		str	r2, [r3]
 750 0050 5A69     		ldr	r2, [r3, #20]
 751 0052 84F83850 		strb	r5, [r4, #56]
 752 0056 42F08002 		orr	r2, r2, #128
 753 005a 5A61     		str	r2, [r3, #20]
 754 005c 2846     		mov	r0, r5
 755 005e 38BD     		pop	{r3, r4, r5, pc}
 756              	.L90:
 757 0060 0120     		movs	r0, #1
 758 0062 38BD     		pop	{r3, r4, r5, pc}
 759              	.L91:
 760 0064 0220     		movs	r0, #2
 761 0066 38BD     		pop	{r3, r4, r5, pc}
 762              	.L93:
 763              		.align	2
 764              	.L92:
 765 0068 00000000 		.word	UART_DMATransmitCplt
 766 006c 00000000 		.word	UART_DMATxHalfCplt
 767 0070 00000000 		.word	UART_DMAError
 769              		.section	.text.HAL_UART_Receive_DMA,"ax",%progbits
 770              		.align	1
 771              		.global	HAL_UART_Receive_DMA
ARM GAS  /tmp/ccwtxWOa.s 			page 14


 772              		.thumb
 773              		.thumb_func
 775              	HAL_UART_Receive_DMA:
 776              		@ args = 0, pretend = 0, frame = 8
 777              		@ frame_needed = 0, uses_anonymous_args = 0
 778 0000 1346     		mov	r3, r2
 779 0002 90F83A20 		ldrb	r2, [r0, #58]	@ zero_extendqisi2
 780 0006 73B5     		push	{r0, r1, r4, r5, r6, lr}
 781 0008 202A     		cmp	r2, #32
 782 000a 0546     		mov	r5, r0
 783 000c 0E46     		mov	r6, r1
 784 000e 37D1     		bne	.L99
 785 0010 0029     		cmp	r1, #0
 786 0012 33D0     		beq	.L98
 787 0014 002B     		cmp	r3, #0
 788 0016 31D0     		beq	.L98
 789 0018 90F83820 		ldrb	r2, [r0, #56]	@ zero_extendqisi2
 790 001c 012A     		cmp	r2, #1
 791 001e 2FD0     		beq	.L99
 792 0020 0122     		movs	r2, #1
 793 0022 0024     		movs	r4, #0
 794 0024 80F83820 		strb	r2, [r0, #56]
 795 0028 2222     		movs	r2, #34
 796 002a A962     		str	r1, [r5, #40]
 797 002c 8385     		strh	r3, [r0, #44]	@ movhi
 798 002e C463     		str	r4, [r0, #60]
 799 0030 80F83A20 		strb	r2, [r0, #58]
 800 0034 406B     		ldr	r0, [r0, #52]
 801 0036 144A     		ldr	r2, .L100
 802 0038 2968     		ldr	r1, [r5]
 803 003a 8262     		str	r2, [r0, #40]
 804 003c 134A     		ldr	r2, .L100+4
 805 003e 4463     		str	r4, [r0, #52]
 806 0040 C262     		str	r2, [r0, #44]
 807 0042 134A     		ldr	r2, .L100+8
 808 0044 0431     		adds	r1, r1, #4
 809 0046 0263     		str	r2, [r0, #48]
 810 0048 3246     		mov	r2, r6
 811 004a FFF7FEFF 		bl	HAL_DMA_Start_IT
 812 004e 2B68     		ldr	r3, [r5]
 813 0050 0194     		str	r4, [sp, #4]
 814 0052 1A68     		ldr	r2, [r3]
 815 0054 2046     		mov	r0, r4
 816 0056 0192     		str	r2, [sp, #4]
 817 0058 5A68     		ldr	r2, [r3, #4]
 818 005a 85F83840 		strb	r4, [r5, #56]
 819 005e 0192     		str	r2, [sp, #4]
 820 0060 019A     		ldr	r2, [sp, #4]
 821 0062 DA68     		ldr	r2, [r3, #12]
 822 0064 42F48072 		orr	r2, r2, #256
 823 0068 DA60     		str	r2, [r3, #12]
 824 006a 5A69     		ldr	r2, [r3, #20]
 825 006c 42F00102 		orr	r2, r2, #1
 826 0070 5A61     		str	r2, [r3, #20]
 827 0072 5A69     		ldr	r2, [r3, #20]
 828 0074 42F04002 		orr	r2, r2, #64
 829 0078 5A61     		str	r2, [r3, #20]
ARM GAS  /tmp/ccwtxWOa.s 			page 15


 830 007a 02E0     		b	.L95
 831              	.L98:
 832 007c 0120     		movs	r0, #1
 833 007e 00E0     		b	.L95
 834              	.L99:
 835 0080 0220     		movs	r0, #2
 836              	.L95:
 837 0082 02B0     		add	sp, sp, #8
 838              		@ sp needed
 839 0084 70BD     		pop	{r4, r5, r6, pc}
 840              	.L101:
 841 0086 00BF     		.align	2
 842              	.L100:
 843 0088 00000000 		.word	UART_DMAReceiveCplt
 844 008c 00000000 		.word	UART_DMARxHalfCplt
 845 0090 00000000 		.word	UART_DMAError
 847              		.section	.text.HAL_UART_DMAPause,"ax",%progbits
 848              		.align	1
 849              		.global	HAL_UART_DMAPause
 850              		.thumb
 851              		.thumb_func
 853              	HAL_UART_DMAPause:
 854              		@ args = 0, pretend = 0, frame = 0
 855              		@ frame_needed = 0, uses_anonymous_args = 0
 856              		@ link register save eliminated.
 857 0000 90F83830 		ldrb	r3, [r0, #56]	@ zero_extendqisi2
 858 0004 012B     		cmp	r3, #1
 859 0006 26D0     		beq	.L106
 860 0008 0123     		movs	r3, #1
 861 000a 80F83830 		strb	r3, [r0, #56]
 862 000e 0368     		ldr	r3, [r0]
 863 0010 5A69     		ldr	r2, [r3, #20]
 864 0012 90F83910 		ldrb	r1, [r0, #57]	@ zero_extendqisi2
 865 0016 2129     		cmp	r1, #33
 866 0018 05D1     		bne	.L104
 867 001a 1106     		lsls	r1, r2, #24
 868 001c 42BF     		ittt	mi
 869 001e 5A69     		ldrmi	r2, [r3, #20]
 870 0020 22F08002 		bicmi	r2, r2, #128
 871 0024 5A61     		strmi	r2, [r3, #20]
 872              	.L104:
 873 0026 5A69     		ldr	r2, [r3, #20]
 874 0028 90F83A10 		ldrb	r1, [r0, #58]	@ zero_extendqisi2
 875 002c 2229     		cmp	r1, #34
 876 002e 0DD1     		bne	.L105
 877 0030 5206     		lsls	r2, r2, #25
 878 0032 0BD5     		bpl	.L105
 879 0034 DA68     		ldr	r2, [r3, #12]
 880 0036 22F48072 		bic	r2, r2, #256
 881 003a DA60     		str	r2, [r3, #12]
 882 003c 5A69     		ldr	r2, [r3, #20]
 883 003e 22F00102 		bic	r2, r2, #1
 884 0042 5A61     		str	r2, [r3, #20]
 885 0044 5A69     		ldr	r2, [r3, #20]
 886 0046 22F04002 		bic	r2, r2, #64
 887 004a 5A61     		str	r2, [r3, #20]
 888              	.L105:
ARM GAS  /tmp/ccwtxWOa.s 			page 16


 889 004c 0023     		movs	r3, #0
 890 004e 80F83830 		strb	r3, [r0, #56]
 891 0052 1846     		mov	r0, r3
 892 0054 7047     		bx	lr
 893              	.L106:
 894 0056 0220     		movs	r0, #2
 895 0058 7047     		bx	lr
 897              		.section	.text.HAL_UART_DMAResume,"ax",%progbits
 898              		.align	1
 899              		.global	HAL_UART_DMAResume
 900              		.thumb
 901              		.thumb_func
 903              	HAL_UART_DMAResume:
 904              		@ args = 0, pretend = 0, frame = 8
 905              		@ frame_needed = 0, uses_anonymous_args = 0
 906              		@ link register save eliminated.
 907 0000 90F83830 		ldrb	r3, [r0, #56]	@ zero_extendqisi2
 908 0004 82B0     		sub	sp, sp, #8
 909 0006 012B     		cmp	r3, #1
 910 0008 28D0     		beq	.L117
 911 000a 0123     		movs	r3, #1
 912 000c 80F83830 		strb	r3, [r0, #56]
 913 0010 90F83930 		ldrb	r3, [r0, #57]	@ zero_extendqisi2
 914 0014 212B     		cmp	r3, #33
 915 0016 01BF     		itttt	eq
 916 0018 0268     		ldreq	r2, [r0]
 917 001a 5369     		ldreq	r3, [r2, #20]
 918 001c 43F08003 		orreq	r3, r3, #128
 919 0020 5361     		streq	r3, [r2, #20]
 920 0022 90F83A30 		ldrb	r3, [r0, #58]	@ zero_extendqisi2
 921 0026 222B     		cmp	r3, #34
 922 0028 13D1     		bne	.L116
 923 002a 0023     		movs	r3, #0
 924 002c 0193     		str	r3, [sp, #4]
 925 002e 0368     		ldr	r3, [r0]
 926 0030 1A68     		ldr	r2, [r3]
 927 0032 0192     		str	r2, [sp, #4]
 928 0034 5A68     		ldr	r2, [r3, #4]
 929 0036 0192     		str	r2, [sp, #4]
 930 0038 019A     		ldr	r2, [sp, #4]
 931 003a DA68     		ldr	r2, [r3, #12]
 932 003c 42F48072 		orr	r2, r2, #256
 933 0040 DA60     		str	r2, [r3, #12]
 934 0042 5A69     		ldr	r2, [r3, #20]
 935 0044 42F00102 		orr	r2, r2, #1
 936 0048 5A61     		str	r2, [r3, #20]
 937 004a 5A69     		ldr	r2, [r3, #20]
 938 004c 42F04002 		orr	r2, r2, #64
 939 0050 5A61     		str	r2, [r3, #20]
 940              	.L116:
 941 0052 0023     		movs	r3, #0
 942 0054 80F83830 		strb	r3, [r0, #56]
 943 0058 1846     		mov	r0, r3
 944 005a 00E0     		b	.L114
 945              	.L117:
 946 005c 0220     		movs	r0, #2
 947              	.L114:
ARM GAS  /tmp/ccwtxWOa.s 			page 17


 948 005e 02B0     		add	sp, sp, #8
 949              		@ sp needed
 950 0060 7047     		bx	lr
 952              		.section	.text.HAL_UART_DMAStop,"ax",%progbits
 953              		.align	1
 954              		.global	HAL_UART_DMAStop
 955              		.thumb
 956              		.thumb_func
 958              	HAL_UART_DMAStop:
 959              		@ args = 0, pretend = 0, frame = 0
 960              		@ frame_needed = 0, uses_anonymous_args = 0
 961 0000 0368     		ldr	r3, [r0]
 962 0002 10B5     		push	{r4, lr}
 963 0004 5A69     		ldr	r2, [r3, #20]
 964 0006 90F83910 		ldrb	r1, [r0, #57]	@ zero_extendqisi2
 965 000a 0446     		mov	r4, r0
 966 000c 2129     		cmp	r1, #33
 967 000e 11D1     		bne	.L119
 968 0010 1106     		lsls	r1, r2, #24
 969 0012 0FD5     		bpl	.L119
 970 0014 5A69     		ldr	r2, [r3, #20]
 971 0016 006B     		ldr	r0, [r0, #48]
 972 0018 22F08002 		bic	r2, r2, #128
 973 001c 5A61     		str	r2, [r3, #20]
 974 001e 08B1     		cbz	r0, .L120
 975 0020 FFF7FEFF 		bl	HAL_DMA_Abort
 976              	.L120:
 977 0024 2268     		ldr	r2, [r4]
 978 0026 D368     		ldr	r3, [r2, #12]
 979 0028 23F0C003 		bic	r3, r3, #192
 980 002c D360     		str	r3, [r2, #12]
 981 002e 2023     		movs	r3, #32
 982 0030 84F83930 		strb	r3, [r4, #57]
 983              	.L119:
 984 0034 2368     		ldr	r3, [r4]
 985 0036 5A69     		ldr	r2, [r3, #20]
 986 0038 94F83A10 		ldrb	r1, [r4, #58]	@ zero_extendqisi2
 987 003c 2229     		cmp	r1, #34
 988 003e 0CD1     		bne	.L121
 989 0040 5206     		lsls	r2, r2, #25
 990 0042 0AD5     		bpl	.L121
 991 0044 5A69     		ldr	r2, [r3, #20]
 992 0046 606B     		ldr	r0, [r4, #52]
 993 0048 22F04002 		bic	r2, r2, #64
 994 004c 5A61     		str	r2, [r3, #20]
 995 004e 08B1     		cbz	r0, .L122
 996 0050 FFF7FEFF 		bl	HAL_DMA_Abort
 997              	.L122:
 998 0054 2046     		mov	r0, r4
 999 0056 FFF7FEFF 		bl	UART_EndRxTransfer
 1000              	.L121:
 1001 005a 0020     		movs	r0, #0
 1002 005c 10BD     		pop	{r4, pc}
 1004              		.section	.text.HAL_UART_Abort,"ax",%progbits
 1005              		.align	1
 1006              		.global	HAL_UART_Abort
 1007              		.thumb
ARM GAS  /tmp/ccwtxWOa.s 			page 18


 1008              		.thumb_func
 1010              	HAL_UART_Abort:
 1011              		@ args = 0, pretend = 0, frame = 0
 1012              		@ frame_needed = 0, uses_anonymous_args = 0
 1013 0000 0368     		ldr	r3, [r0]
 1014 0002 10B5     		push	{r4, lr}
 1015 0004 DA68     		ldr	r2, [r3, #12]
 1016 0006 0446     		mov	r4, r0
 1017 0008 22F4F072 		bic	r2, r2, #480
 1018 000c DA60     		str	r2, [r3, #12]
 1019 000e 5A69     		ldr	r2, [r3, #20]
 1020 0010 22F00102 		bic	r2, r2, #1
 1021 0014 5A61     		str	r2, [r3, #20]
 1022 0016 5A69     		ldr	r2, [r3, #20]
 1023 0018 1106     		lsls	r1, r2, #24
 1024 001a 0FD5     		bpl	.L136
 1025 001c 5A69     		ldr	r2, [r3, #20]
 1026 001e 006B     		ldr	r0, [r0, #48]
 1027 0020 22F08002 		bic	r2, r2, #128
 1028 0024 5A61     		str	r2, [r3, #20]
 1029 0026 48B1     		cbz	r0, .L136
 1030 0028 0023     		movs	r3, #0
 1031 002a 4363     		str	r3, [r0, #52]
 1032 002c FFF7FEFF 		bl	HAL_DMA_Abort
 1033 0030 20B1     		cbz	r0, .L136
 1034 0032 206B     		ldr	r0, [r4, #48]
 1035 0034 FFF7FEFF 		bl	HAL_DMA_GetError
 1036 0038 2028     		cmp	r0, #32
 1037 003a 13D0     		beq	.L157
 1038              	.L136:
 1039 003c 2368     		ldr	r3, [r4]
 1040 003e 5A69     		ldr	r2, [r3, #20]
 1041 0040 5206     		lsls	r2, r2, #25
 1042 0042 13D5     		bpl	.L138
 1043 0044 5A69     		ldr	r2, [r3, #20]
 1044 0046 606B     		ldr	r0, [r4, #52]
 1045 0048 22F04002 		bic	r2, r2, #64
 1046 004c 5A61     		str	r2, [r3, #20]
 1047 004e 68B1     		cbz	r0, .L138
 1048 0050 0023     		movs	r3, #0
 1049 0052 4363     		str	r3, [r0, #52]
 1050 0054 FFF7FEFF 		bl	HAL_DMA_Abort
 1051 0058 40B1     		cbz	r0, .L138
 1052 005a 606B     		ldr	r0, [r4, #52]
 1053 005c FFF7FEFF 		bl	HAL_DMA_GetError
 1054 0060 2028     		cmp	r0, #32
 1055 0062 03D1     		bne	.L138
 1056              	.L157:
 1057 0064 1023     		movs	r3, #16
 1058 0066 E363     		str	r3, [r4, #60]
 1059 0068 0320     		movs	r0, #3
 1060 006a 10BD     		pop	{r4, pc}
 1061              	.L138:
 1062 006c 0020     		movs	r0, #0
 1063 006e 2023     		movs	r3, #32
 1064 0070 E084     		strh	r0, [r4, #38]	@ movhi
 1065 0072 E085     		strh	r0, [r4, #46]	@ movhi
ARM GAS  /tmp/ccwtxWOa.s 			page 19


 1066 0074 E063     		str	r0, [r4, #60]
 1067 0076 84F83A30 		strb	r3, [r4, #58]
 1068 007a 84F83930 		strb	r3, [r4, #57]
 1069 007e 10BD     		pop	{r4, pc}
 1071              		.section	.text.HAL_UART_AbortTransmit,"ax",%progbits
 1072              		.align	1
 1073              		.global	HAL_UART_AbortTransmit
 1074              		.thumb
 1075              		.thumb_func
 1077              	HAL_UART_AbortTransmit:
 1078              		@ args = 0, pretend = 0, frame = 0
 1079              		@ frame_needed = 0, uses_anonymous_args = 0
 1080 0000 0368     		ldr	r3, [r0]
 1081 0002 10B5     		push	{r4, lr}
 1082 0004 DA68     		ldr	r2, [r3, #12]
 1083 0006 0446     		mov	r4, r0
 1084 0008 22F0C002 		bic	r2, r2, #192
 1085 000c DA60     		str	r2, [r3, #12]
 1086 000e 5A69     		ldr	r2, [r3, #20]
 1087 0010 1206     		lsls	r2, r2, #24
 1088 0012 13D5     		bpl	.L159
 1089 0014 5A69     		ldr	r2, [r3, #20]
 1090 0016 006B     		ldr	r0, [r0, #48]
 1091 0018 22F08002 		bic	r2, r2, #128
 1092 001c 5A61     		str	r2, [r3, #20]
 1093 001e 68B1     		cbz	r0, .L159
 1094 0020 0023     		movs	r3, #0
 1095 0022 4363     		str	r3, [r0, #52]
 1096 0024 FFF7FEFF 		bl	HAL_DMA_Abort
 1097 0028 40B1     		cbz	r0, .L159
 1098 002a 206B     		ldr	r0, [r4, #48]
 1099 002c FFF7FEFF 		bl	HAL_DMA_GetError
 1100 0030 2028     		cmp	r0, #32
 1101 0032 03D1     		bne	.L159
 1102 0034 1023     		movs	r3, #16
 1103 0036 E363     		str	r3, [r4, #60]
 1104 0038 0320     		movs	r0, #3
 1105 003a 10BD     		pop	{r4, pc}
 1106              	.L159:
 1107 003c 0020     		movs	r0, #0
 1108 003e 2023     		movs	r3, #32
 1109 0040 E084     		strh	r0, [r4, #38]	@ movhi
 1110 0042 84F83930 		strb	r3, [r4, #57]
 1111 0046 10BD     		pop	{r4, pc}
 1113              		.section	.text.HAL_UART_AbortReceive,"ax",%progbits
 1114              		.align	1
 1115              		.global	HAL_UART_AbortReceive
 1116              		.thumb
 1117              		.thumb_func
 1119              	HAL_UART_AbortReceive:
 1120              		@ args = 0, pretend = 0, frame = 0
 1121              		@ frame_needed = 0, uses_anonymous_args = 0
 1122 0000 0368     		ldr	r3, [r0]
 1123 0002 10B5     		push	{r4, lr}
 1124 0004 DA68     		ldr	r2, [r3, #12]
 1125 0006 0446     		mov	r4, r0
 1126 0008 22F49072 		bic	r2, r2, #288
ARM GAS  /tmp/ccwtxWOa.s 			page 20


 1127 000c DA60     		str	r2, [r3, #12]
 1128 000e 5A69     		ldr	r2, [r3, #20]
 1129 0010 22F00102 		bic	r2, r2, #1
 1130 0014 5A61     		str	r2, [r3, #20]
 1131 0016 5A69     		ldr	r2, [r3, #20]
 1132 0018 5206     		lsls	r2, r2, #25
 1133 001a 13D5     		bpl	.L171
 1134 001c 5A69     		ldr	r2, [r3, #20]
 1135 001e 406B     		ldr	r0, [r0, #52]
 1136 0020 22F04002 		bic	r2, r2, #64
 1137 0024 5A61     		str	r2, [r3, #20]
 1138 0026 68B1     		cbz	r0, .L171
 1139 0028 0023     		movs	r3, #0
 1140 002a 4363     		str	r3, [r0, #52]
 1141 002c FFF7FEFF 		bl	HAL_DMA_Abort
 1142 0030 40B1     		cbz	r0, .L171
 1143 0032 606B     		ldr	r0, [r4, #52]
 1144 0034 FFF7FEFF 		bl	HAL_DMA_GetError
 1145 0038 2028     		cmp	r0, #32
 1146 003a 03D1     		bne	.L171
 1147 003c 1023     		movs	r3, #16
 1148 003e E363     		str	r3, [r4, #60]
 1149 0040 0320     		movs	r0, #3
 1150 0042 10BD     		pop	{r4, pc}
 1151              	.L171:
 1152 0044 0020     		movs	r0, #0
 1153 0046 2023     		movs	r3, #32
 1154 0048 E085     		strh	r0, [r4, #46]	@ movhi
 1155 004a 84F83A30 		strb	r3, [r4, #58]
 1156 004e 10BD     		pop	{r4, pc}
 1158              		.section	.text.HAL_UART_TxCpltCallback,"ax",%progbits
 1159              		.align	1
 1160              		.weak	HAL_UART_TxCpltCallback
 1161              		.thumb
 1162              		.thumb_func
 1164              	HAL_UART_TxCpltCallback:
 1165              		@ args = 0, pretend = 0, frame = 0
 1166              		@ frame_needed = 0, uses_anonymous_args = 0
 1167              		@ link register save eliminated.
 1168 0000 7047     		bx	lr
 1170              		.section	.text.UART_DMATransmitCplt,"ax",%progbits
 1171              		.align	1
 1172              		.thumb
 1173              		.thumb_func
 1175              	UART_DMATransmitCplt:
 1176              		@ args = 0, pretend = 0, frame = 0
 1177              		@ frame_needed = 0, uses_anonymous_args = 0
 1178 0000 08B5     		push	{r3, lr}
 1179 0002 0368     		ldr	r3, [r0]
 1180 0004 426A     		ldr	r2, [r0, #36]
 1181 0006 1B68     		ldr	r3, [r3]
 1182 0008 13F02003 		ands	r3, r3, #32
 1183 000c 0AD1     		bne	.L184
 1184 000e D384     		strh	r3, [r2, #38]	@ movhi
 1185 0010 1368     		ldr	r3, [r2]
 1186 0012 5A69     		ldr	r2, [r3, #20]
 1187 0014 22F08002 		bic	r2, r2, #128
ARM GAS  /tmp/ccwtxWOa.s 			page 21


 1188 0018 5A61     		str	r2, [r3, #20]
 1189 001a DA68     		ldr	r2, [r3, #12]
 1190 001c 42F04002 		orr	r2, r2, #64
 1191 0020 DA60     		str	r2, [r3, #12]
 1192 0022 08BD     		pop	{r3, pc}
 1193              	.L184:
 1194 0024 1046     		mov	r0, r2
 1195 0026 FFF7FEFF 		bl	HAL_UART_TxCpltCallback
 1196 002a 08BD     		pop	{r3, pc}
 1198              		.section	.text.HAL_UART_TxHalfCpltCallback,"ax",%progbits
 1199              		.align	1
 1200              		.weak	HAL_UART_TxHalfCpltCallback
 1201              		.thumb
 1202              		.thumb_func
 1204              	HAL_UART_TxHalfCpltCallback:
 1205              		@ args = 0, pretend = 0, frame = 0
 1206              		@ frame_needed = 0, uses_anonymous_args = 0
 1207              		@ link register save eliminated.
 1208 0000 7047     		bx	lr
 1210              		.section	.text.UART_DMATxHalfCplt,"ax",%progbits
 1211              		.align	1
 1212              		.thumb
 1213              		.thumb_func
 1215              	UART_DMATxHalfCplt:
 1216              		@ args = 0, pretend = 0, frame = 0
 1217              		@ frame_needed = 0, uses_anonymous_args = 0
 1218 0000 08B5     		push	{r3, lr}
 1219 0002 406A     		ldr	r0, [r0, #36]
 1220 0004 FFF7FEFF 		bl	HAL_UART_TxHalfCpltCallback
 1221 0008 08BD     		pop	{r3, pc}
 1223              		.section	.text.HAL_UART_RxCpltCallback,"ax",%progbits
 1224              		.align	1
 1225              		.weak	HAL_UART_RxCpltCallback
 1226              		.thumb
 1227              		.thumb_func
 1229              	HAL_UART_RxCpltCallback:
 1230              		@ args = 0, pretend = 0, frame = 0
 1231              		@ frame_needed = 0, uses_anonymous_args = 0
 1232              		@ link register save eliminated.
 1233 0000 7047     		bx	lr
 1235              		.section	.text.UART_DMAReceiveCplt,"ax",%progbits
 1236              		.align	1
 1237              		.thumb
 1238              		.thumb_func
 1240              	UART_DMAReceiveCplt:
 1241              		@ args = 0, pretend = 0, frame = 0
 1242              		@ frame_needed = 0, uses_anonymous_args = 0
 1243 0000 08B5     		push	{r3, lr}
 1244 0002 0368     		ldr	r3, [r0]
 1245 0004 426A     		ldr	r2, [r0, #36]
 1246 0006 1B68     		ldr	r3, [r3]
 1247 0008 13F02003 		ands	r3, r3, #32
 1248 000c 10D1     		bne	.L190
 1249 000e D385     		strh	r3, [r2, #46]	@ movhi
 1250 0010 1368     		ldr	r3, [r2]
 1251 0012 D968     		ldr	r1, [r3, #12]
 1252 0014 21F48071 		bic	r1, r1, #256
ARM GAS  /tmp/ccwtxWOa.s 			page 22


 1253 0018 D960     		str	r1, [r3, #12]
 1254 001a 5969     		ldr	r1, [r3, #20]
 1255 001c 21F00101 		bic	r1, r1, #1
 1256 0020 5961     		str	r1, [r3, #20]
 1257 0022 5969     		ldr	r1, [r3, #20]
 1258 0024 21F04001 		bic	r1, r1, #64
 1259 0028 5961     		str	r1, [r3, #20]
 1260 002a 2023     		movs	r3, #32
 1261 002c 82F83A30 		strb	r3, [r2, #58]
 1262              	.L190:
 1263 0030 1046     		mov	r0, r2
 1264 0032 FFF7FEFF 		bl	HAL_UART_RxCpltCallback
 1265 0036 08BD     		pop	{r3, pc}
 1267              		.section	.text.UART_Receive_IT,"ax",%progbits
 1268              		.align	1
 1269              		.thumb
 1270              		.thumb_func
 1272              	UART_Receive_IT:
 1273              		@ args = 0, pretend = 0, frame = 0
 1274              		@ frame_needed = 0, uses_anonymous_args = 0
 1275 0000 90F83A30 		ldrb	r3, [r0, #58]	@ zero_extendqisi2
 1276 0004 10B5     		push	{r4, lr}
 1277 0006 222B     		cmp	r3, #34
 1278 0008 35D1     		bne	.L197
 1279 000a 8368     		ldr	r3, [r0, #8]
 1280 000c 0169     		ldr	r1, [r0, #16]
 1281 000e B3F5805F 		cmp	r3, #4096
 1282 0012 0268     		ldr	r2, [r0]
 1283 0014 836A     		ldr	r3, [r0, #40]
 1284 0016 0BD1     		bne	.L193
 1285 0018 5268     		ldr	r2, [r2, #4]
 1286 001a 21B9     		cbnz	r1, .L194
 1287 001c C2F30802 		ubfx	r2, r2, #0, #9
 1288 0020 23F8022B 		strh	r2, [r3], #2	@ movhi
 1289 0024 02E0     		b	.L199
 1290              	.L194:
 1291 0026 D2B2     		uxtb	r2, r2
 1292 0028 23F8012B 		strh	r2, [r3], #1	@ movhi
 1293              	.L199:
 1294 002c 8362     		str	r3, [r0, #40]
 1295 002e 0AE0     		b	.L195
 1296              	.L193:
 1297 0030 19B9     		cbnz	r1, .L196
 1298 0032 591C     		adds	r1, r3, #1
 1299 0034 8162     		str	r1, [r0, #40]
 1300 0036 5268     		ldr	r2, [r2, #4]
 1301 0038 04E0     		b	.L200
 1302              	.L196:
 1303 003a 5268     		ldr	r2, [r2, #4]
 1304 003c 591C     		adds	r1, r3, #1
 1305 003e 8162     		str	r1, [r0, #40]
 1306 0040 02F07F02 		and	r2, r2, #127
 1307              	.L200:
 1308 0044 1A70     		strb	r2, [r3]
 1309              	.L195:
 1310 0046 C48D     		ldrh	r4, [r0, #46]
 1311 0048 013C     		subs	r4, r4, #1
ARM GAS  /tmp/ccwtxWOa.s 			page 23


 1312 004a A4B2     		uxth	r4, r4
 1313 004c C485     		strh	r4, [r0, #46]	@ movhi
 1314 004e A4B9     		cbnz	r4, .L198
 1315 0050 0368     		ldr	r3, [r0]
 1316 0052 DA68     		ldr	r2, [r3, #12]
 1317 0054 22F02002 		bic	r2, r2, #32
 1318 0058 DA60     		str	r2, [r3, #12]
 1319 005a DA68     		ldr	r2, [r3, #12]
 1320 005c 22F48072 		bic	r2, r2, #256
 1321 0060 DA60     		str	r2, [r3, #12]
 1322 0062 5A69     		ldr	r2, [r3, #20]
 1323 0064 22F00102 		bic	r2, r2, #1
 1324 0068 5A61     		str	r2, [r3, #20]
 1325 006a 2023     		movs	r3, #32
 1326 006c 80F83A30 		strb	r3, [r0, #58]
 1327 0070 FFF7FEFF 		bl	HAL_UART_RxCpltCallback
 1328 0074 01E0     		b	.L198
 1329              	.L197:
 1330 0076 0220     		movs	r0, #2
 1331 0078 10BD     		pop	{r4, pc}
 1332              	.L198:
 1333 007a 0020     		movs	r0, #0
 1334 007c 10BD     		pop	{r4, pc}
 1336              		.section	.text.HAL_UART_RxHalfCpltCallback,"ax",%progbits
 1337              		.align	1
 1338              		.weak	HAL_UART_RxHalfCpltCallback
 1339              		.thumb
 1340              		.thumb_func
 1342              	HAL_UART_RxHalfCpltCallback:
 1343              		@ args = 0, pretend = 0, frame = 0
 1344              		@ frame_needed = 0, uses_anonymous_args = 0
 1345              		@ link register save eliminated.
 1346 0000 7047     		bx	lr
 1348              		.section	.text.UART_DMARxHalfCplt,"ax",%progbits
 1349              		.align	1
 1350              		.thumb
 1351              		.thumb_func
 1353              	UART_DMARxHalfCplt:
 1354              		@ args = 0, pretend = 0, frame = 0
 1355              		@ frame_needed = 0, uses_anonymous_args = 0
 1356 0000 08B5     		push	{r3, lr}
 1357 0002 406A     		ldr	r0, [r0, #36]
 1358 0004 FFF7FEFF 		bl	HAL_UART_RxHalfCpltCallback
 1359 0008 08BD     		pop	{r3, pc}
 1361              		.section	.text.HAL_UART_ErrorCallback,"ax",%progbits
 1362              		.align	1
 1363              		.weak	HAL_UART_ErrorCallback
 1364              		.thumb
 1365              		.thumb_func
 1367              	HAL_UART_ErrorCallback:
 1368              		@ args = 0, pretend = 0, frame = 0
 1369              		@ frame_needed = 0, uses_anonymous_args = 0
 1370              		@ link register save eliminated.
 1371 0000 7047     		bx	lr
 1373              		.section	.text.UART_DMAError,"ax",%progbits
 1374              		.align	1
 1375              		.thumb
ARM GAS  /tmp/ccwtxWOa.s 			page 24


 1376              		.thumb_func
 1378              	UART_DMAError:
 1379              		@ args = 0, pretend = 0, frame = 0
 1380              		@ frame_needed = 0, uses_anonymous_args = 0
 1381 0000 10B5     		push	{r4, lr}
 1382 0002 446A     		ldr	r4, [r0, #36]
 1383 0004 2368     		ldr	r3, [r4]
 1384 0006 5A69     		ldr	r2, [r3, #20]
 1385 0008 94F83910 		ldrb	r1, [r4, #57]	@ zero_extendqisi2
 1386 000c 2129     		cmp	r1, #33
 1387 000e 0AD1     		bne	.L205
 1388 0010 1206     		lsls	r2, r2, #24
 1389 0012 08D5     		bpl	.L205
 1390 0014 0022     		movs	r2, #0
 1391 0016 E284     		strh	r2, [r4, #38]	@ movhi
 1392 0018 DA68     		ldr	r2, [r3, #12]
 1393 001a 22F0C002 		bic	r2, r2, #192
 1394 001e DA60     		str	r2, [r3, #12]
 1395 0020 2022     		movs	r2, #32
 1396 0022 84F83920 		strb	r2, [r4, #57]
 1397              	.L205:
 1398 0026 5B69     		ldr	r3, [r3, #20]
 1399 0028 94F83A20 		ldrb	r2, [r4, #58]	@ zero_extendqisi2
 1400 002c 222A     		cmp	r2, #34
 1401 002e 06D1     		bne	.L206
 1402 0030 5B06     		lsls	r3, r3, #25
 1403 0032 04D5     		bpl	.L206
 1404 0034 0023     		movs	r3, #0
 1405 0036 E385     		strh	r3, [r4, #46]	@ movhi
 1406 0038 2046     		mov	r0, r4
 1407 003a FFF7FEFF 		bl	UART_EndRxTransfer
 1408              	.L206:
 1409 003e E36B     		ldr	r3, [r4, #60]
 1410 0040 2046     		mov	r0, r4
 1411 0042 43F01003 		orr	r3, r3, #16
 1412 0046 E363     		str	r3, [r4, #60]
 1413 0048 FFF7FEFF 		bl	HAL_UART_ErrorCallback
 1414 004c 10BD     		pop	{r4, pc}
 1416              		.section	.text.HAL_UART_IRQHandler,"ax",%progbits
 1417              		.align	1
 1418              		.global	HAL_UART_IRQHandler
 1419              		.thumb
 1420              		.thumb_func
 1422              	HAL_UART_IRQHandler:
 1423              		@ args = 0, pretend = 0, frame = 0
 1424              		@ frame_needed = 0, uses_anonymous_args = 0
 1425 0000 0368     		ldr	r3, [r0]
 1426 0002 70B5     		push	{r4, r5, r6, lr}
 1427 0004 1A68     		ldr	r2, [r3]
 1428 0006 0446     		mov	r4, r0
 1429 0008 1607     		lsls	r6, r2, #28
 1430 000a D968     		ldr	r1, [r3, #12]
 1431 000c 5D69     		ldr	r5, [r3, #20]
 1432 000e 07D1     		bne	.L214
 1433 0010 9606     		lsls	r6, r2, #26
 1434 0012 5AD5     		bpl	.L215
 1435 0014 8D06     		lsls	r5, r1, #26
ARM GAS  /tmp/ccwtxWOa.s 			page 25


 1436 0016 58D5     		bpl	.L215
 1437 0018 BDE87040 		pop	{r4, r5, r6, lr}
 1438 001c FFF7FEBF 		b	UART_Receive_IT
 1439              	.L214:
 1440 0020 15F00100 		ands	r0, r5, #1
 1441 0024 02D1     		bne	.L216
 1442 0026 11F4907F 		tst	r1, #288
 1443 002a 4ED0     		beq	.L215
 1444              	.L216:
 1445 002c D307     		lsls	r3, r2, #31
 1446 002e 05D5     		bpl	.L217
 1447 0030 CE05     		lsls	r6, r1, #23
 1448 0032 42BF     		ittt	mi
 1449 0034 E36B     		ldrmi	r3, [r4, #60]
 1450 0036 43F00103 		orrmi	r3, r3, #1
 1451 003a E363     		strmi	r3, [r4, #60]
 1452              	.L217:
 1453 003c 5507     		lsls	r5, r2, #29
 1454 003e 04D5     		bpl	.L218
 1455 0040 18B1     		cbz	r0, .L218
 1456 0042 E36B     		ldr	r3, [r4, #60]
 1457 0044 43F00203 		orr	r3, r3, #2
 1458 0048 E363     		str	r3, [r4, #60]
 1459              	.L218:
 1460 004a 9307     		lsls	r3, r2, #30
 1461 004c 04D5     		bpl	.L219
 1462 004e 18B1     		cbz	r0, .L219
 1463 0050 E36B     		ldr	r3, [r4, #60]
 1464 0052 43F00403 		orr	r3, r3, #4
 1465 0056 E363     		str	r3, [r4, #60]
 1466              	.L219:
 1467 0058 1607     		lsls	r6, r2, #28
 1468 005a 04D5     		bpl	.L220
 1469 005c 18B1     		cbz	r0, .L220
 1470 005e E36B     		ldr	r3, [r4, #60]
 1471 0060 43F00803 		orr	r3, r3, #8
 1472 0064 E363     		str	r3, [r4, #60]
 1473              	.L220:
 1474 0066 E36B     		ldr	r3, [r4, #60]
 1475 0068 002B     		cmp	r3, #0
 1476 006a 66D0     		beq	.L213
 1477 006c 9506     		lsls	r5, r2, #26
 1478 006e 04D5     		bpl	.L223
 1479 0070 8806     		lsls	r0, r1, #26
 1480 0072 02D5     		bpl	.L223
 1481 0074 2046     		mov	r0, r4
 1482 0076 FFF7FEFF 		bl	UART_Receive_IT
 1483              	.L223:
 1484 007a 2368     		ldr	r3, [r4]
 1485 007c 2046     		mov	r0, r4
 1486 007e 5B69     		ldr	r3, [r3, #20]
 1487 0080 E26B     		ldr	r2, [r4, #60]
 1488 0082 1107     		lsls	r1, r2, #28
 1489 0084 02D4     		bmi	.L224
 1490 0086 13F04005 		ands	r5, r3, #64
 1491 008a 1AD0     		beq	.L225
 1492              	.L224:
ARM GAS  /tmp/ccwtxWOa.s 			page 26


 1493 008c FFF7FEFF 		bl	UART_EndRxTransfer
 1494 0090 2368     		ldr	r3, [r4]
 1495 0092 5A69     		ldr	r2, [r3, #20]
 1496 0094 5206     		lsls	r2, r2, #25
 1497 0096 10D5     		bpl	.L226
 1498 0098 5A69     		ldr	r2, [r3, #20]
 1499 009a 606B     		ldr	r0, [r4, #52]
 1500 009c 22F04002 		bic	r2, r2, #64
 1501 00a0 5A61     		str	r2, [r3, #20]
 1502 00a2 50B1     		cbz	r0, .L226
 1503 00a4 254B     		ldr	r3, .L293
 1504 00a6 4363     		str	r3, [r0, #52]
 1505 00a8 FFF7FEFF 		bl	HAL_DMA_Abort_IT
 1506 00ac 0028     		cmp	r0, #0
 1507 00ae 44D0     		beq	.L213
 1508 00b0 606B     		ldr	r0, [r4, #52]
 1509 00b2 BDE87040 		pop	{r4, r5, r6, lr}
 1510 00b6 436B     		ldr	r3, [r0, #52]
 1511 00b8 1847     		bx	r3	@ indirect register sibling call
 1512              	.L226:
 1513 00ba 2046     		mov	r0, r4
 1514 00bc FFF7FEFF 		bl	HAL_UART_ErrorCallback
 1515 00c0 70BD     		pop	{r4, r5, r6, pc}
 1516              	.L225:
 1517 00c2 FFF7FEFF 		bl	HAL_UART_ErrorCallback
 1518 00c6 E563     		str	r5, [r4, #60]
 1519 00c8 70BD     		pop	{r4, r5, r6, pc}
 1520              	.L215:
 1521 00ca 1606     		lsls	r6, r2, #24
 1522 00cc 27D5     		bpl	.L228
 1523 00ce 0D06     		lsls	r5, r1, #24
 1524 00d0 25D5     		bpl	.L228
 1525 00d2 94F83920 		ldrb	r2, [r4, #57]	@ zero_extendqisi2
 1526 00d6 212A     		cmp	r2, #33
 1527 00d8 2FD1     		bne	.L213
 1528 00da A268     		ldr	r2, [r4, #8]
 1529 00dc B2F5805F 		cmp	r2, #4096
 1530 00e0 226A     		ldr	r2, [r4, #32]
 1531 00e2 0AD1     		bne	.L229
 1532 00e4 1188     		ldrh	r1, [r2]
 1533 00e6 C1F30801 		ubfx	r1, r1, #0, #9
 1534 00ea 5960     		str	r1, [r3, #4]
 1535 00ec 2169     		ldr	r1, [r4, #16]
 1536 00ee 09B9     		cbnz	r1, .L230
 1537 00f0 0232     		adds	r2, r2, #2
 1538 00f2 00E0     		b	.L292
 1539              	.L230:
 1540 00f4 0132     		adds	r2, r2, #1
 1541              	.L292:
 1542 00f6 2262     		str	r2, [r4, #32]
 1543 00f8 03E0     		b	.L231
 1544              	.L229:
 1545 00fa 511C     		adds	r1, r2, #1
 1546 00fc 2162     		str	r1, [r4, #32]
 1547 00fe 1278     		ldrb	r2, [r2]	@ zero_extendqisi2
 1548 0100 5A60     		str	r2, [r3, #4]
 1549              	.L231:
ARM GAS  /tmp/ccwtxWOa.s 			page 27


 1550 0102 E28C     		ldrh	r2, [r4, #38]
 1551 0104 013A     		subs	r2, r2, #1
 1552 0106 92B2     		uxth	r2, r2
 1553 0108 E284     		strh	r2, [r4, #38]	@ movhi
 1554 010a B2B9     		cbnz	r2, .L213
 1555 010c DA68     		ldr	r2, [r3, #12]
 1556 010e 22F08002 		bic	r2, r2, #128
 1557 0112 DA60     		str	r2, [r3, #12]
 1558 0114 DA68     		ldr	r2, [r3, #12]
 1559 0116 42F04002 		orr	r2, r2, #64
 1560 011a DA60     		str	r2, [r3, #12]
 1561 011c 70BD     		pop	{r4, r5, r6, pc}
 1562              	.L228:
 1563 011e 5006     		lsls	r0, r2, #25
 1564 0120 0BD5     		bpl	.L213
 1565 0122 4A06     		lsls	r2, r1, #25
 1566 0124 09D5     		bpl	.L213
 1567 0126 DA68     		ldr	r2, [r3, #12]
 1568 0128 2046     		mov	r0, r4
 1569 012a 22F04002 		bic	r2, r2, #64
 1570 012e DA60     		str	r2, [r3, #12]
 1571 0130 2023     		movs	r3, #32
 1572 0132 84F83930 		strb	r3, [r4, #57]
 1573 0136 FFF7FEFF 		bl	HAL_UART_TxCpltCallback
 1574              	.L213:
 1575 013a 70BD     		pop	{r4, r5, r6, pc}
 1576              	.L294:
 1577              		.align	2
 1578              	.L293:
 1579 013c 00000000 		.word	UART_DMAAbortOnError
 1581              		.section	.text.UART_DMAAbortOnError,"ax",%progbits
 1582              		.align	1
 1583              		.thumb
 1584              		.thumb_func
 1586              	UART_DMAAbortOnError:
 1587              		@ args = 0, pretend = 0, frame = 0
 1588              		@ frame_needed = 0, uses_anonymous_args = 0
 1589 0000 08B5     		push	{r3, lr}
 1590 0002 406A     		ldr	r0, [r0, #36]
 1591 0004 0023     		movs	r3, #0
 1592 0006 C385     		strh	r3, [r0, #46]	@ movhi
 1593 0008 C384     		strh	r3, [r0, #38]	@ movhi
 1594 000a FFF7FEFF 		bl	HAL_UART_ErrorCallback
 1595 000e 08BD     		pop	{r3, pc}
 1597              		.section	.text.HAL_UART_AbortCpltCallback,"ax",%progbits
 1598              		.align	1
 1599              		.weak	HAL_UART_AbortCpltCallback
 1600              		.thumb
 1601              		.thumb_func
 1603              	HAL_UART_AbortCpltCallback:
 1604              		@ args = 0, pretend = 0, frame = 0
 1605              		@ frame_needed = 0, uses_anonymous_args = 0
 1606              		@ link register save eliminated.
 1607 0000 7047     		bx	lr
 1609              		.section	.text.HAL_UART_Abort_IT,"ax",%progbits
 1610              		.align	1
 1611              		.global	HAL_UART_Abort_IT
ARM GAS  /tmp/ccwtxWOa.s 			page 28


 1612              		.thumb
 1613              		.thumb_func
 1615              	HAL_UART_Abort_IT:
 1616              		@ args = 0, pretend = 0, frame = 0
 1617              		@ frame_needed = 0, uses_anonymous_args = 0
 1618 0000 0368     		ldr	r3, [r0]
 1619 0002 10B5     		push	{r4, lr}
 1620 0004 DA68     		ldr	r2, [r3, #12]
 1621 0006 0446     		mov	r4, r0
 1622 0008 22F4F072 		bic	r2, r2, #480
 1623 000c DA60     		str	r2, [r3, #12]
 1624 000e 5A69     		ldr	r2, [r3, #20]
 1625 0010 006B     		ldr	r0, [r0, #48]
 1626 0012 22F00102 		bic	r2, r2, #1
 1627 0016 5A61     		str	r2, [r3, #20]
 1628 0018 28B1     		cbz	r0, .L298
 1629 001a 5A69     		ldr	r2, [r3, #20]
 1630 001c 12F08002 		ands	r2, r2, #128
 1631 0020 18BF     		it	ne
 1632 0022 1E4A     		ldrne	r2, .L327
 1633 0024 4263     		str	r2, [r0, #52]
 1634              	.L298:
 1635 0026 616B     		ldr	r1, [r4, #52]
 1636 0028 29B1     		cbz	r1, .L300
 1637 002a 5A69     		ldr	r2, [r3, #20]
 1638 002c 12F04002 		ands	r2, r2, #64
 1639 0030 18BF     		it	ne
 1640 0032 1B4A     		ldrne	r2, .L327+4
 1641 0034 4A63     		str	r2, [r1, #52]
 1642              	.L300:
 1643 0036 5A69     		ldr	r2, [r3, #20]
 1644 0038 1206     		lsls	r2, r2, #24
 1645 003a 0AD5     		bpl	.L326
 1646 003c 5A69     		ldr	r2, [r3, #20]
 1647 003e 22F08002 		bic	r2, r2, #128
 1648 0042 5A61     		str	r2, [r3, #20]
 1649 0044 28B1     		cbz	r0, .L326
 1650 0046 FFF7FEFF 		bl	HAL_DMA_Abort_IT
 1651 004a 20B1     		cbz	r0, .L310
 1652 004c 236B     		ldr	r3, [r4, #48]
 1653 004e 0022     		movs	r2, #0
 1654 0050 5A63     		str	r2, [r3, #52]
 1655              	.L326:
 1656 0052 0123     		movs	r3, #1
 1657 0054 00E0     		b	.L303
 1658              	.L310:
 1659 0056 0346     		mov	r3, r0
 1660              	.L303:
 1661 0058 2268     		ldr	r2, [r4]
 1662 005a 5169     		ldr	r1, [r2, #20]
 1663 005c 4906     		lsls	r1, r1, #25
 1664 005e 0CD5     		bpl	.L305
 1665 0060 5169     		ldr	r1, [r2, #20]
 1666 0062 606B     		ldr	r0, [r4, #52]
 1667 0064 21F04001 		bic	r1, r1, #64
 1668 0068 5161     		str	r1, [r2, #20]
 1669 006a 30B1     		cbz	r0, .L305
ARM GAS  /tmp/ccwtxWOa.s 			page 29


 1670 006c FFF7FEFF 		bl	HAL_DMA_Abort_IT
 1671 0070 88B1     		cbz	r0, .L307
 1672 0072 636B     		ldr	r3, [r4, #52]
 1673 0074 0022     		movs	r2, #0
 1674 0076 5A63     		str	r2, [r3, #52]
 1675 0078 01E0     		b	.L308
 1676              	.L305:
 1677 007a 012B     		cmp	r3, #1
 1678 007c 0BD1     		bne	.L307
 1679              	.L308:
 1680 007e 0023     		movs	r3, #0
 1681 0080 E384     		strh	r3, [r4, #38]	@ movhi
 1682 0082 E385     		strh	r3, [r4, #46]	@ movhi
 1683 0084 E363     		str	r3, [r4, #60]
 1684 0086 2023     		movs	r3, #32
 1685 0088 84F83930 		strb	r3, [r4, #57]
 1686 008c 2046     		mov	r0, r4
 1687 008e 84F83A30 		strb	r3, [r4, #58]
 1688 0092 FFF7FEFF 		bl	HAL_UART_AbortCpltCallback
 1689              	.L307:
 1690 0096 0020     		movs	r0, #0
 1691 0098 10BD     		pop	{r4, pc}
 1692              	.L328:
 1693 009a 00BF     		.align	2
 1694              	.L327:
 1695 009c 00000000 		.word	UART_DMATxAbortCallback
 1696 00a0 00000000 		.word	UART_DMARxAbortCallback
 1698              		.section	.text.UART_DMARxAbortCallback,"ax",%progbits
 1699              		.align	1
 1700              		.thumb
 1701              		.thumb_func
 1703              	UART_DMARxAbortCallback:
 1704              		@ args = 0, pretend = 0, frame = 0
 1705              		@ frame_needed = 0, uses_anonymous_args = 0
 1706 0000 406A     		ldr	r0, [r0, #36]
 1707 0002 08B5     		push	{r3, lr}
 1708 0004 426B     		ldr	r2, [r0, #52]
 1709 0006 0023     		movs	r3, #0
 1710 0008 5363     		str	r3, [r2, #52]
 1711 000a 026B     		ldr	r2, [r0, #48]
 1712 000c 0AB1     		cbz	r2, .L330
 1713 000e 526B     		ldr	r2, [r2, #52]
 1714 0010 4AB9     		cbnz	r2, .L329
 1715              	.L330:
 1716 0012 C384     		strh	r3, [r0, #38]	@ movhi
 1717 0014 C385     		strh	r3, [r0, #46]	@ movhi
 1718 0016 C363     		str	r3, [r0, #60]
 1719 0018 2023     		movs	r3, #32
 1720 001a 80F83930 		strb	r3, [r0, #57]
 1721 001e 80F83A30 		strb	r3, [r0, #58]
 1722 0022 FFF7FEFF 		bl	HAL_UART_AbortCpltCallback
 1723              	.L329:
 1724 0026 08BD     		pop	{r3, pc}
 1726              		.section	.text.UART_DMATxAbortCallback,"ax",%progbits
 1727              		.align	1
 1728              		.thumb
 1729              		.thumb_func
ARM GAS  /tmp/ccwtxWOa.s 			page 30


 1731              	UART_DMATxAbortCallback:
 1732              		@ args = 0, pretend = 0, frame = 0
 1733              		@ frame_needed = 0, uses_anonymous_args = 0
 1734 0000 406A     		ldr	r0, [r0, #36]
 1735 0002 08B5     		push	{r3, lr}
 1736 0004 026B     		ldr	r2, [r0, #48]
 1737 0006 0023     		movs	r3, #0
 1738 0008 5363     		str	r3, [r2, #52]
 1739 000a 426B     		ldr	r2, [r0, #52]
 1740 000c 0AB1     		cbz	r2, .L336
 1741 000e 526B     		ldr	r2, [r2, #52]
 1742 0010 4AB9     		cbnz	r2, .L335
 1743              	.L336:
 1744 0012 C384     		strh	r3, [r0, #38]	@ movhi
 1745 0014 C385     		strh	r3, [r0, #46]	@ movhi
 1746 0016 C363     		str	r3, [r0, #60]
 1747 0018 2023     		movs	r3, #32
 1748 001a 80F83930 		strb	r3, [r0, #57]
 1749 001e 80F83A30 		strb	r3, [r0, #58]
 1750 0022 FFF7FEFF 		bl	HAL_UART_AbortCpltCallback
 1751              	.L335:
 1752 0026 08BD     		pop	{r3, pc}
 1754              		.section	.text.HAL_UART_AbortTransmitCpltCallback,"ax",%progbits
 1755              		.align	1
 1756              		.weak	HAL_UART_AbortTransmitCpltCallback
 1757              		.thumb
 1758              		.thumb_func
 1760              	HAL_UART_AbortTransmitCpltCallback:
 1761              		@ args = 0, pretend = 0, frame = 0
 1762              		@ frame_needed = 0, uses_anonymous_args = 0
 1763              		@ link register save eliminated.
 1764 0000 7047     		bx	lr
 1766              		.section	.text.HAL_UART_AbortTransmit_IT,"ax",%progbits
 1767              		.align	1
 1768              		.global	HAL_UART_AbortTransmit_IT
 1769              		.thumb
 1770              		.thumb_func
 1772              	HAL_UART_AbortTransmit_IT:
 1773              		@ args = 0, pretend = 0, frame = 0
 1774              		@ frame_needed = 0, uses_anonymous_args = 0
 1775 0000 0368     		ldr	r3, [r0]
 1776 0002 10B5     		push	{r4, lr}
 1777 0004 DA68     		ldr	r2, [r3, #12]
 1778 0006 0446     		mov	r4, r0
 1779 0008 22F0C002 		bic	r2, r2, #192
 1780 000c DA60     		str	r2, [r3, #12]
 1781 000e 5A69     		ldr	r2, [r3, #20]
 1782 0010 12F08002 		ands	r2, r2, #128
 1783 0014 11D0     		beq	.L343
 1784 0016 5A69     		ldr	r2, [r3, #20]
 1785 0018 22F08002 		bic	r2, r2, #128
 1786 001c 5A61     		str	r2, [r3, #20]
 1787 001e 036B     		ldr	r3, [r0, #48]
 1788 0020 4BB1     		cbz	r3, .L344
 1789 0022 0A4A     		ldr	r2, .L350
 1790 0024 1846     		mov	r0, r3
 1791 0026 5A63     		str	r2, [r3, #52]
ARM GAS  /tmp/ccwtxWOa.s 			page 31


 1792 0028 FFF7FEFF 		bl	HAL_DMA_Abort_IT
 1793 002c 58B1     		cbz	r0, .L345
 1794 002e 206B     		ldr	r0, [r4, #48]
 1795 0030 436B     		ldr	r3, [r0, #52]
 1796 0032 9847     		blx	r3
 1797 0034 07E0     		b	.L345
 1798              	.L344:
 1799 0036 C384     		strh	r3, [r0, #38]	@ movhi
 1800 0038 00E0     		b	.L349
 1801              	.L343:
 1802 003a C284     		strh	r2, [r0, #38]	@ movhi
 1803              	.L349:
 1804 003c 2023     		movs	r3, #32
 1805 003e 84F83930 		strb	r3, [r4, #57]
 1806 0042 FFF7FEFF 		bl	HAL_UART_AbortTransmitCpltCallback
 1807              	.L345:
 1808 0046 0020     		movs	r0, #0
 1809 0048 10BD     		pop	{r4, pc}
 1810              	.L351:
 1811 004a 00BF     		.align	2
 1812              	.L350:
 1813 004c 00000000 		.word	UART_DMATxOnlyAbortCallback
 1815              		.section	.text.UART_DMATxOnlyAbortCallback,"ax",%progbits
 1816              		.align	1
 1817              		.thumb
 1818              		.thumb_func
 1820              	UART_DMATxOnlyAbortCallback:
 1821              		@ args = 0, pretend = 0, frame = 0
 1822              		@ frame_needed = 0, uses_anonymous_args = 0
 1823 0000 08B5     		push	{r3, lr}
 1824 0002 406A     		ldr	r0, [r0, #36]
 1825 0004 0023     		movs	r3, #0
 1826 0006 C384     		strh	r3, [r0, #38]	@ movhi
 1827 0008 2023     		movs	r3, #32
 1828 000a 80F83930 		strb	r3, [r0, #57]
 1829 000e FFF7FEFF 		bl	HAL_UART_AbortTransmitCpltCallback
 1830 0012 08BD     		pop	{r3, pc}
 1832              		.section	.text.HAL_UART_AbortReceiveCpltCallback,"ax",%progbits
 1833              		.align	1
 1834              		.weak	HAL_UART_AbortReceiveCpltCallback
 1835              		.thumb
 1836              		.thumb_func
 1838              	HAL_UART_AbortReceiveCpltCallback:
 1839              		@ args = 0, pretend = 0, frame = 0
 1840              		@ frame_needed = 0, uses_anonymous_args = 0
 1841              		@ link register save eliminated.
 1842 0000 7047     		bx	lr
 1844              		.section	.text.HAL_UART_AbortReceive_IT,"ax",%progbits
 1845              		.align	1
 1846              		.global	HAL_UART_AbortReceive_IT
 1847              		.thumb
 1848              		.thumb_func
 1850              	HAL_UART_AbortReceive_IT:
 1851              		@ args = 0, pretend = 0, frame = 0
 1852              		@ frame_needed = 0, uses_anonymous_args = 0
 1853 0000 0368     		ldr	r3, [r0]
 1854 0002 10B5     		push	{r4, lr}
ARM GAS  /tmp/ccwtxWOa.s 			page 32


 1855 0004 DA68     		ldr	r2, [r3, #12]
 1856 0006 0446     		mov	r4, r0
 1857 0008 22F49072 		bic	r2, r2, #288
 1858 000c DA60     		str	r2, [r3, #12]
 1859 000e 5A69     		ldr	r2, [r3, #20]
 1860 0010 22F00102 		bic	r2, r2, #1
 1861 0014 5A61     		str	r2, [r3, #20]
 1862 0016 5A69     		ldr	r2, [r3, #20]
 1863 0018 12F04002 		ands	r2, r2, #64
 1864 001c 11D0     		beq	.L355
 1865 001e 5A69     		ldr	r2, [r3, #20]
 1866 0020 22F04002 		bic	r2, r2, #64
 1867 0024 5A61     		str	r2, [r3, #20]
 1868 0026 436B     		ldr	r3, [r0, #52]
 1869 0028 4BB1     		cbz	r3, .L356
 1870 002a 0A4A     		ldr	r2, .L362
 1871 002c 1846     		mov	r0, r3
 1872 002e 5A63     		str	r2, [r3, #52]
 1873 0030 FFF7FEFF 		bl	HAL_DMA_Abort_IT
 1874 0034 58B1     		cbz	r0, .L357
 1875 0036 606B     		ldr	r0, [r4, #52]
 1876 0038 436B     		ldr	r3, [r0, #52]
 1877 003a 9847     		blx	r3
 1878 003c 07E0     		b	.L357
 1879              	.L356:
 1880 003e C385     		strh	r3, [r0, #46]	@ movhi
 1881 0040 00E0     		b	.L361
 1882              	.L355:
 1883 0042 C285     		strh	r2, [r0, #46]	@ movhi
 1884              	.L361:
 1885 0044 2023     		movs	r3, #32
 1886 0046 84F83A30 		strb	r3, [r4, #58]
 1887 004a FFF7FEFF 		bl	HAL_UART_AbortReceiveCpltCallback
 1888              	.L357:
 1889 004e 0020     		movs	r0, #0
 1890 0050 10BD     		pop	{r4, pc}
 1891              	.L363:
 1892 0052 00BF     		.align	2
 1893              	.L362:
 1894 0054 00000000 		.word	UART_DMARxOnlyAbortCallback
 1896              		.section	.text.UART_DMARxOnlyAbortCallback,"ax",%progbits
 1897              		.align	1
 1898              		.thumb
 1899              		.thumb_func
 1901              	UART_DMARxOnlyAbortCallback:
 1902              		@ args = 0, pretend = 0, frame = 0
 1903              		@ frame_needed = 0, uses_anonymous_args = 0
 1904 0000 08B5     		push	{r3, lr}
 1905 0002 406A     		ldr	r0, [r0, #36]
 1906 0004 0023     		movs	r3, #0
 1907 0006 C385     		strh	r3, [r0, #46]	@ movhi
 1908 0008 2023     		movs	r3, #32
 1909 000a 80F83A30 		strb	r3, [r0, #58]
 1910 000e FFF7FEFF 		bl	HAL_UART_AbortReceiveCpltCallback
 1911 0012 08BD     		pop	{r3, pc}
 1913              		.section	.text.HAL_LIN_SendBreak,"ax",%progbits
 1914              		.align	1
ARM GAS  /tmp/ccwtxWOa.s 			page 33


 1915              		.global	HAL_LIN_SendBreak
 1916              		.thumb
 1917              		.thumb_func
 1919              	HAL_LIN_SendBreak:
 1920              		@ args = 0, pretend = 0, frame = 0
 1921              		@ frame_needed = 0, uses_anonymous_args = 0
 1922              		@ link register save eliminated.
 1923 0000 90F83830 		ldrb	r3, [r0, #56]	@ zero_extendqisi2
 1924 0004 012B     		cmp	r3, #1
 1925 0006 1FBF     		itttt	ne
 1926 0008 2423     		movne	r3, #36
 1927 000a 0268     		ldrne	r2, [r0]
 1928 000c 80F83930 		strbne	r3, [r0, #57]
 1929 0010 D368     		ldrne	r3, [r2, #12]
 1930 0012 1FBF     		itttt	ne
 1931 0014 43F00103 		orrne	r3, r3, #1
 1932 0018 D360     		strne	r3, [r2, #12]
 1933 001a 2023     		movne	r3, #32
 1934 001c 80F83930 		strbne	r3, [r0, #57]
 1935 0020 1DBF     		ittte	ne
 1936 0022 0023     		movne	r3, #0
 1937 0024 80F83830 		strbne	r3, [r0, #56]
 1938 0028 1846     		movne	r0, r3
 1939 002a 0220     		moveq	r0, #2
 1940 002c 7047     		bx	lr
 1942              		.section	.text.HAL_MultiProcessor_EnterMuteMode,"ax",%progbits
 1943              		.align	1
 1944              		.global	HAL_MultiProcessor_EnterMuteMode
 1945              		.thumb
 1946              		.thumb_func
 1948              	HAL_MultiProcessor_EnterMuteMode:
 1949              		@ args = 0, pretend = 0, frame = 0
 1950              		@ frame_needed = 0, uses_anonymous_args = 0
 1951              		@ link register save eliminated.
 1952 0000 90F83830 		ldrb	r3, [r0, #56]	@ zero_extendqisi2
 1953 0004 012B     		cmp	r3, #1
 1954 0006 1FBF     		itttt	ne
 1955 0008 2423     		movne	r3, #36
 1956 000a 0268     		ldrne	r2, [r0]
 1957 000c 80F83930 		strbne	r3, [r0, #57]
 1958 0010 D368     		ldrne	r3, [r2, #12]
 1959 0012 1FBF     		itttt	ne
 1960 0014 43F00203 		orrne	r3, r3, #2
 1961 0018 D360     		strne	r3, [r2, #12]
 1962 001a 2023     		movne	r3, #32
 1963 001c 80F83930 		strbne	r3, [r0, #57]
 1964 0020 1DBF     		ittte	ne
 1965 0022 0023     		movne	r3, #0
 1966 0024 80F83830 		strbne	r3, [r0, #56]
 1967 0028 1846     		movne	r0, r3
 1968 002a 0220     		moveq	r0, #2
 1969 002c 7047     		bx	lr
 1971              		.section	.text.HAL_MultiProcessor_ExitMuteMode,"ax",%progbits
 1972              		.align	1
 1973              		.global	HAL_MultiProcessor_ExitMuteMode
 1974              		.thumb
 1975              		.thumb_func
ARM GAS  /tmp/ccwtxWOa.s 			page 34


 1977              	HAL_MultiProcessor_ExitMuteMode:
 1978              		@ args = 0, pretend = 0, frame = 0
 1979              		@ frame_needed = 0, uses_anonymous_args = 0
 1980              		@ link register save eliminated.
 1981 0000 90F83830 		ldrb	r3, [r0, #56]	@ zero_extendqisi2
 1982 0004 012B     		cmp	r3, #1
 1983 0006 1FBF     		itttt	ne
 1984 0008 2423     		movne	r3, #36
 1985 000a 0268     		ldrne	r2, [r0]
 1986 000c 80F83930 		strbne	r3, [r0, #57]
 1987 0010 D368     		ldrne	r3, [r2, #12]
 1988 0012 1FBF     		itttt	ne
 1989 0014 23F00203 		bicne	r3, r3, #2
 1990 0018 D360     		strne	r3, [r2, #12]
 1991 001a 2023     		movne	r3, #32
 1992 001c 80F83930 		strbne	r3, [r0, #57]
 1993 0020 1DBF     		ittte	ne
 1994 0022 0023     		movne	r3, #0
 1995 0024 80F83830 		strbne	r3, [r0, #56]
 1996 0028 1846     		movne	r0, r3
 1997 002a 0220     		moveq	r0, #2
 1998 002c 7047     		bx	lr
 2000              		.section	.text.HAL_HalfDuplex_EnableTransmitter,"ax",%progbits
 2001              		.align	1
 2002              		.global	HAL_HalfDuplex_EnableTransmitter
 2003              		.thumb
 2004              		.thumb_func
 2006              	HAL_HalfDuplex_EnableTransmitter:
 2007              		@ args = 0, pretend = 0, frame = 0
 2008              		@ frame_needed = 0, uses_anonymous_args = 0
 2009              		@ link register save eliminated.
 2010 0000 90F83830 		ldrb	r3, [r0, #56]	@ zero_extendqisi2
 2011 0004 012B     		cmp	r3, #1
 2012 0006 11D0     		beq	.L376
 2013 0008 0268     		ldr	r2, [r0]
 2014 000a 2423     		movs	r3, #36
 2015 000c 80F83930 		strb	r3, [r0, #57]
 2016 0010 D368     		ldr	r3, [r2, #12]
 2017 0012 23F00C03 		bic	r3, r3, #12
 2018 0016 43F00803 		orr	r3, r3, #8
 2019 001a D360     		str	r3, [r2, #12]
 2020 001c 2023     		movs	r3, #32
 2021 001e 80F83930 		strb	r3, [r0, #57]
 2022 0022 0023     		movs	r3, #0
 2023 0024 80F83830 		strb	r3, [r0, #56]
 2024 0028 1846     		mov	r0, r3
 2025 002a 7047     		bx	lr
 2026              	.L376:
 2027 002c 0220     		movs	r0, #2
 2028 002e 7047     		bx	lr
 2030              		.section	.text.HAL_HalfDuplex_EnableReceiver,"ax",%progbits
 2031              		.align	1
 2032              		.global	HAL_HalfDuplex_EnableReceiver
 2033              		.thumb
 2034              		.thumb_func
 2036              	HAL_HalfDuplex_EnableReceiver:
 2037              		@ args = 0, pretend = 0, frame = 0
ARM GAS  /tmp/ccwtxWOa.s 			page 35


 2038              		@ frame_needed = 0, uses_anonymous_args = 0
 2039              		@ link register save eliminated.
 2040 0000 90F83830 		ldrb	r3, [r0, #56]	@ zero_extendqisi2
 2041 0004 012B     		cmp	r3, #1
 2042 0006 11D0     		beq	.L379
 2043 0008 0268     		ldr	r2, [r0]
 2044 000a 2423     		movs	r3, #36
 2045 000c 80F83930 		strb	r3, [r0, #57]
 2046 0010 D368     		ldr	r3, [r2, #12]
 2047 0012 23F00C03 		bic	r3, r3, #12
 2048 0016 43F00403 		orr	r3, r3, #4
 2049 001a D360     		str	r3, [r2, #12]
 2050 001c 2023     		movs	r3, #32
 2051 001e 80F83930 		strb	r3, [r0, #57]
 2052 0022 0023     		movs	r3, #0
 2053 0024 80F83830 		strb	r3, [r0, #56]
 2054 0028 1846     		mov	r0, r3
 2055 002a 7047     		bx	lr
 2056              	.L379:
 2057 002c 0220     		movs	r0, #2
 2058 002e 7047     		bx	lr
 2060              		.section	.text.HAL_UART_GetState,"ax",%progbits
 2061              		.align	1
 2062              		.global	HAL_UART_GetState
 2063              		.thumb
 2064              		.thumb_func
 2066              	HAL_UART_GetState:
 2067              		@ args = 0, pretend = 0, frame = 0
 2068              		@ frame_needed = 0, uses_anonymous_args = 0
 2069              		@ link register save eliminated.
 2070 0000 90F83930 		ldrb	r3, [r0, #57]	@ zero_extendqisi2
 2071 0004 90F83A00 		ldrb	r0, [r0, #58]	@ zero_extendqisi2
 2072 0008 1843     		orrs	r0, r0, r3
 2073 000a 7047     		bx	lr
 2075              		.section	.text.HAL_UART_GetError,"ax",%progbits
 2076              		.align	1
 2077              		.global	HAL_UART_GetError
 2078              		.thumb
 2079              		.thumb_func
 2081              	HAL_UART_GetError:
 2082              		@ args = 0, pretend = 0, frame = 0
 2083              		@ frame_needed = 0, uses_anonymous_args = 0
 2084              		@ link register save eliminated.
 2085 0000 C06B     		ldr	r0, [r0, #60]
 2086 0002 7047     		bx	lr
 2088              		.ident	"GCC: (15:4.9.3+svn231177-1) 4.9.3 20150529 (prerelease)"
ARM GAS  /tmp/ccwtxWOa.s 			page 36

