ARM GAS  /tmp/cc0QSDrr.s 			page 1


   1              		.cpu cortex-m3
   2              		.eabi_attribute 20, 1
   3              		.eabi_attribute 21, 1
   4              		.eabi_attribute 23, 3
   5              		.eabi_attribute 24, 1
   6              		.eabi_attribute 25, 1
   7              		.eabi_attribute 26, 1
   8              		.eabi_attribute 30, 4
   9              		.eabi_attribute 34, 1
  10              		.eabi_attribute 18, 4
  11              		.file	"stm32f1xx_hal_rtc.c"
  12              		.section	.text.RTC_ReadTimeCounter,"ax",%progbits
  13              		.align	1
  14              		.syntax unified
  15              		.thumb
  16              		.thumb_func
  17              		.fpu softvfp
  19              	RTC_ReadTimeCounter:
  20              		@ args = 0, pretend = 0, frame = 0
  21              		@ frame_needed = 0, uses_anonymous_args = 0
  22 0000 0368     		ldr	r3, [r0]
  23 0002 30B5     		push	{r4, r5, lr}
  24 0004 9A69     		ldr	r2, [r3, #24]
  25 0006 D869     		ldr	r0, [r3, #28]
  26 0008 9969     		ldr	r1, [r3, #24]
  27 000a 95B2     		uxth	r5, r2
  28 000c 8CB2     		uxth	r4, r1
  29 000e A542     		cmp	r5, r4
  30 0010 1DBF     		ittte	ne
  31 0012 D869     		ldrne	r0, [r3, #28]
  32 0014 80B2     		uxthne	r0, r0
  33 0016 40EA0140 		orrne	r0, r0, r1, lsl #16
  34 001a 80B2     		uxtheq	r0, r0
  35 001c 08BF     		it	eq
  36 001e 40EA0240 		orreq	r0, r0, r2, lsl #16
  37 0022 30BD     		pop	{r4, r5, pc}
  39              		.section	.text.RTC_ReadAlarmCounter,"ax",%progbits
  40              		.align	1
  41              		.syntax unified
  42              		.thumb
  43              		.thumb_func
  44              		.fpu softvfp
  46              	RTC_ReadAlarmCounter:
  47              		@ args = 0, pretend = 0, frame = 0
  48              		@ frame_needed = 0, uses_anonymous_args = 0
  49              		@ link register save eliminated.
  50 0000 0368     		ldr	r3, [r0]
  51 0002 186A     		ldr	r0, [r3, #32]
  52 0004 5B6A     		ldr	r3, [r3, #36]
  53 0006 9BB2     		uxth	r3, r3
  54 0008 43EA0040 		orr	r0, r3, r0, lsl #16
  55 000c 7047     		bx	lr
  57              		.section	.text.RTC_ByteToBcd2,"ax",%progbits
  58              		.align	1
  59              		.syntax unified
  60              		.thumb
  61              		.thumb_func
ARM GAS  /tmp/cc0QSDrr.s 			page 2


  62              		.fpu softvfp
  64              	RTC_ByteToBcd2:
  65              		@ args = 0, pretend = 0, frame = 0
  66              		@ frame_needed = 0, uses_anonymous_args = 0
  67              		@ link register save eliminated.
  68 0000 0023     		movs	r3, #0
  69              	.L6:
  70 0002 0928     		cmp	r0, #9
  71 0004 03D8     		bhi	.L7
  72 0006 40EA0310 		orr	r0, r0, r3, lsl #4
  73 000a C0B2     		uxtb	r0, r0
  74 000c 7047     		bx	lr
  75              	.L7:
  76 000e 0A38     		subs	r0, r0, #10
  77 0010 0133     		adds	r3, r3, #1
  78 0012 C0B2     		uxtb	r0, r0
  79 0014 F5E7     		b	.L6
  81              		.section	.text.RTC_Bcd2ToByte,"ax",%progbits
  82              		.align	1
  83              		.syntax unified
  84              		.thumb
  85              		.thumb_func
  86              		.fpu softvfp
  88              	RTC_Bcd2ToByte:
  89              		@ args = 0, pretend = 0, frame = 0
  90              		@ frame_needed = 0, uses_anonymous_args = 0
  91              		@ link register save eliminated.
  92 0000 0A22     		movs	r2, #10
  93 0002 0309     		lsrs	r3, r0, #4
  94 0004 00F00F00 		and	r0, r0, #15
  95 0008 02FB0300 		mla	r0, r2, r3, r0
  96 000c C0B2     		uxtb	r0, r0
  97 000e 7047     		bx	lr
  99              		.section	.text.RTC_WeekDayNum,"ax",%progbits
 100              		.align	1
 101              		.syntax unified
 102              		.thumb
 103              		.thumb_func
 104              		.fpu softvfp
 106              	RTC_WeekDayNum:
 107              		@ args = 0, pretend = 0, frame = 0
 108              		@ frame_needed = 0, uses_anonymous_args = 0
 109 0000 0229     		cmp	r1, #2
 110 0002 70B5     		push	{r4, r5, r6, lr}
 111 0004 4FF01703 		mov	r3, #23
 112 0008 00F5FA65 		add	r5, r0, #2000
 113 000c 4FF00906 		mov	r6, #9
 114 0010 1AD8     		bhi	.L10
 115 0012 4B43     		muls	r3, r1, r3
 116 0014 00F2CF74 		addw	r4, r0, #1999
 117 0018 B3FBF6F0 		udiv	r0, r3, r6
 118 001c 4FF4C873 		mov	r3, #400
 119 0020 B4FBF3F3 		udiv	r3, r4, r3
 120 0024 0432     		adds	r2, r2, #4
 121 0026 2A44     		add	r2, r2, r5
 122 0028 1044     		add	r0, r0, r2
 123 002a 00EB9400 		add	r0, r0, r4, lsr #2
ARM GAS  /tmp/cc0QSDrr.s 			page 3


 124 002e 1844     		add	r0, r0, r3
 125 0030 6423     		movs	r3, #100
 126 0032 B4FBF3F4 		udiv	r4, r4, r3
 127 0036 001B     		subs	r0, r0, r4
 128              	.L12:
 129 0038 0723     		movs	r3, #7
 130 003a B0FBF3F3 		udiv	r3, r0, r3
 131 003e C3EBC303 		rsb	r3, r3, r3, lsl #3
 132 0042 C01A     		subs	r0, r0, r3
 133 0044 C0B2     		uxtb	r0, r0
 134 0046 70BD     		pop	{r4, r5, r6, pc}
 135              	.L10:
 136 0048 03FB01F0 		mul	r0, r3, r1
 137 004c B0FBF6F0 		udiv	r0, r0, r6
 138 0050 0232     		adds	r2, r2, #2
 139 0052 2A44     		add	r2, r2, r5
 140 0054 4FF4C873 		mov	r3, #400
 141 0058 1044     		add	r0, r0, r2
 142 005a 6422     		movs	r2, #100
 143 005c B5FBF3F3 		udiv	r3, r5, r3
 144 0060 B5FBF2F2 		udiv	r2, r5, r2
 145 0064 00EB9500 		add	r0, r0, r5, lsr #2
 146 0068 1844     		add	r0, r0, r3
 147 006a 801A     		subs	r0, r0, r2
 148 006c E4E7     		b	.L12
 150              		.section	.text.RTC_EnterInitMode,"ax",%progbits
 151              		.align	1
 152              		.syntax unified
 153              		.thumb
 154              		.thumb_func
 155              		.fpu softvfp
 157              	RTC_EnterInitMode:
 158              		@ args = 0, pretend = 0, frame = 0
 159              		@ frame_needed = 0, uses_anonymous_args = 0
 160 0000 38B5     		push	{r3, r4, r5, lr}
 161 0002 0446     		mov	r4, r0
 162 0004 FFF7FEFF 		bl	HAL_GetTick
 163 0008 0546     		mov	r5, r0
 164              	.L14:
 165 000a 2368     		ldr	r3, [r4]
 166 000c 5A68     		ldr	r2, [r3, #4]
 167 000e 9206     		lsls	r2, r2, #26
 168 0010 05D5     		bpl	.L16
 169 0012 5A68     		ldr	r2, [r3, #4]
 170 0014 0020     		movs	r0, #0
 171 0016 42F01002 		orr	r2, r2, #16
 172 001a 5A60     		str	r2, [r3, #4]
 173 001c 38BD     		pop	{r3, r4, r5, pc}
 174              	.L16:
 175 001e FFF7FEFF 		bl	HAL_GetTick
 176 0022 401B     		subs	r0, r0, r5
 177 0024 B0F57A7F 		cmp	r0, #1000
 178 0028 EFD9     		bls	.L14
 179 002a 0320     		movs	r0, #3
 180 002c 38BD     		pop	{r3, r4, r5, pc}
 182              		.section	.text.RTC_ExitInitMode,"ax",%progbits
 183              		.align	1
ARM GAS  /tmp/cc0QSDrr.s 			page 4


 184              		.syntax unified
 185              		.thumb
 186              		.thumb_func
 187              		.fpu softvfp
 189              	RTC_ExitInitMode:
 190              		@ args = 0, pretend = 0, frame = 0
 191              		@ frame_needed = 0, uses_anonymous_args = 0
 192 0000 0268     		ldr	r2, [r0]
 193 0002 38B5     		push	{r3, r4, r5, lr}
 194 0004 5368     		ldr	r3, [r2, #4]
 195 0006 0446     		mov	r4, r0
 196 0008 23F01003 		bic	r3, r3, #16
 197 000c 5360     		str	r3, [r2, #4]
 198 000e FFF7FEFF 		bl	HAL_GetTick
 199 0012 0546     		mov	r5, r0
 200              	.L19:
 201 0014 2368     		ldr	r3, [r4]
 202 0016 5B68     		ldr	r3, [r3, #4]
 203 0018 9B06     		lsls	r3, r3, #26
 204 001a 01D5     		bpl	.L21
 205 001c 0020     		movs	r0, #0
 206 001e 38BD     		pop	{r3, r4, r5, pc}
 207              	.L21:
 208 0020 FFF7FEFF 		bl	HAL_GetTick
 209 0024 401B     		subs	r0, r0, r5
 210 0026 B0F57A7F 		cmp	r0, #1000
 211 002a F3D9     		bls	.L19
 212 002c 0320     		movs	r0, #3
 213 002e 38BD     		pop	{r3, r4, r5, pc}
 215              		.section	.text.RTC_WriteTimeCounter,"ax",%progbits
 216              		.align	1
 217              		.syntax unified
 218              		.thumb
 219              		.thumb_func
 220              		.fpu softvfp
 222              	RTC_WriteTimeCounter:
 223              		@ args = 0, pretend = 0, frame = 0
 224              		@ frame_needed = 0, uses_anonymous_args = 0
 225 0000 38B5     		push	{r3, r4, r5, lr}
 226 0002 0546     		mov	r5, r0
 227 0004 0C46     		mov	r4, r1
 228 0006 FFF7FEFF 		bl	RTC_EnterInitMode
 229 000a 58B9     		cbnz	r0, .L25
 230 000c 2B68     		ldr	r3, [r5]
 231 000e 220C     		lsrs	r2, r4, #16
 232 0010 A4B2     		uxth	r4, r4
 233 0012 9A61     		str	r2, [r3, #24]
 234 0014 2846     		mov	r0, r5
 235 0016 DC61     		str	r4, [r3, #28]
 236 0018 FFF7FEFF 		bl	RTC_ExitInitMode
 237 001c 0030     		adds	r0, r0, #0
 238 001e 18BF     		it	ne
 239 0020 0120     		movne	r0, #1
 240 0022 38BD     		pop	{r3, r4, r5, pc}
 241              	.L25:
 242 0024 0120     		movs	r0, #1
 243 0026 38BD     		pop	{r3, r4, r5, pc}
ARM GAS  /tmp/cc0QSDrr.s 			page 5


 245              		.section	.text.RTC_WriteAlarmCounter,"ax",%progbits
 246              		.align	1
 247              		.syntax unified
 248              		.thumb
 249              		.thumb_func
 250              		.fpu softvfp
 252              	RTC_WriteAlarmCounter:
 253              		@ args = 0, pretend = 0, frame = 0
 254              		@ frame_needed = 0, uses_anonymous_args = 0
 255 0000 38B5     		push	{r3, r4, r5, lr}
 256 0002 0546     		mov	r5, r0
 257 0004 0C46     		mov	r4, r1
 258 0006 FFF7FEFF 		bl	RTC_EnterInitMode
 259 000a 58B9     		cbnz	r0, .L28
 260 000c 2B68     		ldr	r3, [r5]
 261 000e 220C     		lsrs	r2, r4, #16
 262 0010 A4B2     		uxth	r4, r4
 263 0012 1A62     		str	r2, [r3, #32]
 264 0014 2846     		mov	r0, r5
 265 0016 5C62     		str	r4, [r3, #36]
 266 0018 FFF7FEFF 		bl	RTC_ExitInitMode
 267 001c 0030     		adds	r0, r0, #0
 268 001e 18BF     		it	ne
 269 0020 0120     		movne	r0, #1
 270 0022 38BD     		pop	{r3, r4, r5, pc}
 271              	.L28:
 272 0024 0120     		movs	r0, #1
 273 0026 38BD     		pop	{r3, r4, r5, pc}
 275              		.section	.text.HAL_RTC_MspInit,"ax",%progbits
 276              		.align	1
 277              		.weak	HAL_RTC_MspInit
 278              		.syntax unified
 279              		.thumb
 280              		.thumb_func
 281              		.fpu softvfp
 283              	HAL_RTC_MspInit:
 284              		@ args = 0, pretend = 0, frame = 0
 285              		@ frame_needed = 0, uses_anonymous_args = 0
 286              		@ link register save eliminated.
 287 0000 7047     		bx	lr
 289              		.section	.text.HAL_RTC_MspDeInit,"ax",%progbits
 290              		.align	1
 291              		.weak	HAL_RTC_MspDeInit
 292              		.syntax unified
 293              		.thumb
 294              		.thumb_func
 295              		.fpu softvfp
 297              	HAL_RTC_MspDeInit:
 298              		@ args = 0, pretend = 0, frame = 0
 299              		@ frame_needed = 0, uses_anonymous_args = 0
 300              		@ link register save eliminated.
 301 0000 7047     		bx	lr
 303              		.section	.text.HAL_RTC_SetTime,"ax",%progbits
 304              		.align	1
 305              		.global	HAL_RTC_SetTime
 306              		.syntax unified
 307              		.thumb
ARM GAS  /tmp/cc0QSDrr.s 			page 6


 308              		.thumb_func
 309              		.fpu softvfp
 311              	HAL_RTC_SetTime:
 312              		@ args = 0, pretend = 0, frame = 0
 313              		@ frame_needed = 0, uses_anonymous_args = 0
 314 0000 70B5     		push	{r4, r5, r6, lr}
 315 0002 0446     		mov	r4, r0
 316 0004 E0B1     		cbz	r0, .L38
 317 0006 D9B1     		cbz	r1, .L38
 318 0008 037C     		ldrb	r3, [r0, #16]	@ zero_extendqisi2
 319 000a 0226     		movs	r6, #2
 320 000c 012B     		cmp	r3, #1
 321 000e 46D0     		beq	.L32
 322 0010 0123     		movs	r3, #1
 323 0012 4674     		strb	r6, [r0, #17]
 324 0014 0374     		strb	r3, [r0, #16]
 325 0016 0878     		ldrb	r0, [r1]	@ zero_extendqisi2
 326 0018 4E78     		ldrb	r6, [r1, #1]	@ zero_extendqisi2
 327 001a 8978     		ldrb	r1, [r1, #2]	@ zero_extendqisi2
 328 001c 92B9     		cbnz	r2, .L33
 329 001e 3C25     		movs	r5, #60
 330 0020 4FF46163 		mov	r3, #3600
 331 0024 7543     		muls	r5, r6, r5
 332 0026 03FB0050 		mla	r0, r3, r0, r5
 333 002a 4518     		adds	r5, r0, r1
 334              	.L34:
 335 002c 2946     		mov	r1, r5
 336 002e 2046     		mov	r0, r4
 337 0030 FFF7FEFF 		bl	RTC_WriteTimeCounter
 338 0034 0646     		mov	r6, r0
 339 0036 B0B1     		cbz	r0, .L35
 340 0038 0423     		movs	r3, #4
 341 003a 6374     		strb	r3, [r4, #17]
 342 003c 0023     		movs	r3, #0
 343 003e 2374     		strb	r3, [r4, #16]
 344              	.L38:
 345 0040 0126     		movs	r6, #1
 346 0042 2CE0     		b	.L32
 347              	.L33:
 348 0044 FFF7FEFF 		bl	RTC_Bcd2ToByte
 349 0048 0546     		mov	r5, r0
 350 004a 3046     		mov	r0, r6
 351 004c FFF7FEFF 		bl	RTC_Bcd2ToByte
 352 0050 3C23     		movs	r3, #60
 353 0052 5843     		muls	r0, r3, r0
 354 0054 4FF46163 		mov	r3, #3600
 355 0058 03FB0505 		mla	r5, r3, r5, r0
 356 005c 0846     		mov	r0, r1
 357 005e FFF7FEFF 		bl	RTC_Bcd2ToByte
 358 0062 0544     		add	r5, r5, r0
 359 0064 E2E7     		b	.L34
 360              	.L35:
 361 0066 2268     		ldr	r2, [r4]
 362 0068 2046     		mov	r0, r4
 363 006a 5368     		ldr	r3, [r2, #4]
 364 006c 23F00503 		bic	r3, r3, #5
 365 0070 5360     		str	r3, [r2, #4]
ARM GAS  /tmp/cc0QSDrr.s 			page 7


 366 0072 FFF7FEFF 		bl	RTC_ReadAlarmCounter
 367 0076 431C     		adds	r3, r0, #1
 368 0078 0DD0     		beq	.L36
 369 007a 8542     		cmp	r5, r0
 370 007c 0BD9     		bls	.L36
 371 007e 00F5A831 		add	r1, r0, #86016
 372 0082 01F5C071 		add	r1, r1, #384
 373 0086 2046     		mov	r0, r4
 374 0088 FFF7FEFF 		bl	RTC_WriteAlarmCounter
 375 008c 18B1     		cbz	r0, .L36
 376 008e 0423     		movs	r3, #4
 377 0090 2674     		strb	r6, [r4, #16]
 378 0092 6374     		strb	r3, [r4, #17]
 379 0094 D4E7     		b	.L38
 380              	.L36:
 381 0096 0123     		movs	r3, #1
 382 0098 6374     		strb	r3, [r4, #17]
 383 009a 0023     		movs	r3, #0
 384 009c 2374     		strb	r3, [r4, #16]
 385              	.L32:
 386 009e 3046     		mov	r0, r6
 387 00a0 70BD     		pop	{r4, r5, r6, pc}
 389              		.section	.text.HAL_RTC_GetTime,"ax",%progbits
 390              		.align	1
 391              		.global	HAL_RTC_GetTime
 392              		.syntax unified
 393              		.thumb
 394              		.thumb_func
 395              		.fpu softvfp
 397              	HAL_RTC_GetTime:
 398              		@ args = 0, pretend = 0, frame = 0
 399              		@ frame_needed = 0, uses_anonymous_args = 0
 400 0000 2DE9F843 		push	{r3, r4, r5, r6, r7, r8, r9, lr}
 401 0004 0D46     		mov	r5, r1
 402 0006 9046     		mov	r8, r2
 403 0008 0446     		mov	r4, r0
 404 000a 10B9     		cbnz	r0, .L47
 405              	.L49:
 406 000c 0120     		movs	r0, #1
 407 000e BDE8F883 		pop	{r3, r4, r5, r6, r7, r8, r9, pc}
 408              	.L47:
 409 0012 0029     		cmp	r1, #0
 410 0014 FAD0     		beq	.L49
 411 0016 0368     		ldr	r3, [r0]
 412 0018 5B68     		ldr	r3, [r3, #4]
 413 001a 5E07     		lsls	r6, r3, #29
 414 001c F6D4     		bmi	.L49
 415 001e FFF7FEFF 		bl	RTC_ReadTimeCounter
 416 0022 4FF46162 		mov	r2, #3600
 417 0026 B0FBF2F3 		udiv	r3, r0, r2
 418 002a 0746     		mov	r7, r0
 419 002c 02FB1302 		mls	r2, r2, r3, r0
 420 0030 3C20     		movs	r0, #60
 421 0032 B2FBF0F1 		udiv	r1, r2, r0
 422 0036 00FB1122 		mls	r2, r0, r1, r2
 423 003a 172B     		cmp	r3, #23
 424 003c 6970     		strb	r1, [r5, #1]
ARM GAS  /tmp/cc0QSDrr.s 			page 8


 425 003e AA70     		strb	r2, [r5, #2]
 426 0040 40F28580 		bls	.L50
 427 0044 1821     		movs	r1, #24
 428 0046 B3FBF1F2 		udiv	r2, r3, r1
 429 004a 01FB1233 		mls	r3, r1, r2, r3
 430 004e 2046     		mov	r0, r4
 431 0050 2B70     		strb	r3, [r5]
 432 0052 FFF7FEFF 		bl	RTC_ReadAlarmCounter
 433 0056 411C     		adds	r1, r0, #1
 434 0058 0646     		mov	r6, r0
 435 005a 04D0     		beq	.L51
 436 005c 8742     		cmp	r7, r0
 437 005e 2CBF     		ite	cs
 438 0060 4FF0FF36 		movcs	r6, #-1
 439 0064 C61B     		subcc	r6, r0, r7
 440              	.L51:
 441 0066 404B     		ldr	r3, .L93
 442 0068 2046     		mov	r0, r4
 443 006a B7FBF3F9 		udiv	r9, r7, r3
 444 006e 03FB1979 		mls	r9, r3, r9, r7
 445 0072 4946     		mov	r1, r9
 446 0074 FFF7FEFF 		bl	RTC_WriteTimeCounter
 447 0078 0028     		cmp	r0, #0
 448 007a C7D1     		bne	.L49
 449 007c 721C     		adds	r2, r6, #1
 450 007e 2FD0     		beq	.L52
 451 0080 09EB0601 		add	r1, r9, r6
 452              	.L88:
 453 0084 2046     		mov	r0, r4
 454 0086 FFF7FEFF 		bl	RTC_WriteAlarmCounter
 455 008a 0028     		cmp	r0, #0
 456 008c BED1     		bne	.L49
 457 008e 364B     		ldr	r3, .L93
 458 0090 0026     		movs	r6, #0
 459 0092 B7FBF3F7 		udiv	r7, r7, r3
 460 0096 4FF0640E 		mov	lr, #100
 461 009a 4FF4C87C 		mov	ip, #400
 462 009e 40F2D529 		movw	r9, #725
 463 00a2 E07B     		ldrb	r0, [r4, #15]	@ zero_extendqisi2
 464 00a4 617B     		ldrb	r1, [r4, #13]	@ zero_extendqisi2
 465 00a6 A27B     		ldrb	r2, [r4, #14]	@ zero_extendqisi2
 466              	.L53:
 467 00a8 B742     		cmp	r7, r6
 468 00aa 1BD1     		bne	.L64
 469 00ac C9B2     		uxtb	r1, r1
 470 00ae D2B2     		uxtb	r2, r2
 471 00b0 E073     		strb	r0, [r4, #15]
 472 00b2 6173     		strb	r1, [r4, #13]
 473 00b4 A273     		strb	r2, [r4, #14]
 474 00b6 FFF7FEFF 		bl	RTC_WeekDayNum
 475 00ba 2073     		strb	r0, [r4, #12]
 476              	.L65:
 477 00bc B8F1000F 		cmp	r8, #0
 478 00c0 0BD0     		beq	.L90
 479 00c2 2878     		ldrb	r0, [r5]	@ zero_extendqisi2
 480 00c4 FFF7FEFF 		bl	RTC_ByteToBcd2
 481 00c8 2870     		strb	r0, [r5]
ARM GAS  /tmp/cc0QSDrr.s 			page 9


 482 00ca 6878     		ldrb	r0, [r5, #1]	@ zero_extendqisi2
 483 00cc FFF7FEFF 		bl	RTC_ByteToBcd2
 484 00d0 6870     		strb	r0, [r5, #1]
 485 00d2 A878     		ldrb	r0, [r5, #2]	@ zero_extendqisi2
 486 00d4 FFF7FEFF 		bl	RTC_ByteToBcd2
 487 00d8 A870     		strb	r0, [r5, #2]
 488              	.L90:
 489 00da 0020     		movs	r0, #0
 490 00dc BDE8F883 		pop	{r3, r4, r5, r6, r7, r8, r9, pc}
 491              	.L52:
 492 00e0 3146     		mov	r1, r6
 493 00e2 CFE7     		b	.L88
 494              	.L64:
 495 00e4 4B1E     		subs	r3, r1, #1
 496 00e6 092B     		cmp	r3, #9
 497 00e8 35D8     		bhi	.L55
 498 00ea 29FA03F3 		lsr	r3, r9, r3
 499 00ee DB07     		lsls	r3, r3, #31
 500 00f0 2FD4     		bmi	.L85
 501              	.L56:
 502 00f2 21F00203 		bic	r3, r1, #2
 503 00f6 042B     		cmp	r3, #4
 504 00f8 01D0     		beq	.L59
 505 00fa 092B     		cmp	r3, #9
 506 00fc 04D1     		bne	.L60
 507              	.L59:
 508 00fe 1D2A     		cmp	r2, #29
 509              	.L92:
 510 0100 06D9     		bls	.L89
 511 0102 0131     		adds	r1, r1, #1
 512 0104 0122     		movs	r2, #1
 513 0106 2DE0     		b	.L58
 514              	.L60:
 515 0108 0229     		cmp	r1, #2
 516 010a 2BD1     		bne	.L58
 517 010c 1B2A     		cmp	r2, #27
 518 010e 01D8     		bhi	.L62
 519              	.L89:
 520 0110 0132     		adds	r2, r2, #1
 521 0112 27E0     		b	.L58
 522              	.L62:
 523 0114 1C2A     		cmp	r2, #28
 524 0116 13D1     		bne	.L63
 525 0118 82B2     		uxth	r2, r0
 526 011a 9307     		lsls	r3, r2, #30
 527 011c 12D1     		bne	.L71
 528 011e B2FBFEF3 		udiv	r3, r2, lr
 529 0122 0EFB1323 		mls	r3, lr, r3, r2
 530 0126 9BB2     		uxth	r3, r3
 531 0128 7BB9     		cbnz	r3, .L72
 532 012a B2FBFCF3 		udiv	r3, r2, ip
 533 012e 0CFB1323 		mls	r3, ip, r3, r2
 534 0132 9BB2     		uxth	r3, r3
 535 0134 002B     		cmp	r3, #0
 536 0136 16BF     		itet	ne
 537 0138 0122     		movne	r2, #1
 538 013a 1D22     		moveq	r2, #29
ARM GAS  /tmp/cc0QSDrr.s 			page 10


 539 013c 0321     		movne	r1, #3
 540 013e 11E0     		b	.L58
 541              	.L63:
 542 0140 1D2A     		cmp	r2, #29
 543 0142 0FD1     		bne	.L58
 544              	.L71:
 545 0144 0122     		movs	r2, #1
 546 0146 0321     		movs	r1, #3
 547 0148 0CE0     		b	.L58
 548              	.L72:
 549 014a 1D22     		movs	r2, #29
 550 014c 0AE0     		b	.L58
 551              	.L50:
 552 014e 2B70     		strb	r3, [r5]
 553 0150 B4E7     		b	.L65
 554              	.L85:
 555 0152 1E2A     		cmp	r2, #30
 556 0154 D4E7     		b	.L92
 557              	.L55:
 558 0156 0C29     		cmp	r1, #12
 559 0158 CBD1     		bne	.L56
 560 015a 1E2A     		cmp	r2, #30
 561 015c D8D9     		bls	.L89
 562 015e 0122     		movs	r2, #1
 563 0160 1146     		mov	r1, r2
 564 0162 0130     		adds	r0, r0, #1
 565              	.L58:
 566 0164 0136     		adds	r6, r6, #1
 567 0166 9FE7     		b	.L53
 568              	.L94:
 569              		.align	2
 570              	.L93:
 571 0168 80510100 		.word	86400
 573              		.section	.text.HAL_RTC_SetDate,"ax",%progbits
 574              		.align	1
 575              		.global	HAL_RTC_SetDate
 576              		.syntax unified
 577              		.thumb
 578              		.thumb_func
 579              		.fpu softvfp
 581              	HAL_RTC_SetDate:
 582              		@ args = 0, pretend = 0, frame = 0
 583              		@ frame_needed = 0, uses_anonymous_args = 0
 584 0000 70B5     		push	{r4, r5, r6, lr}
 585 0002 0D46     		mov	r5, r1
 586 0004 0446     		mov	r4, r0
 587 0006 58B3     		cbz	r0, .L102
 588 0008 51B3     		cbz	r1, .L102
 589 000a 037C     		ldrb	r3, [r0, #16]	@ zero_extendqisi2
 590 000c 0220     		movs	r0, #2
 591 000e 012B     		cmp	r3, #1
 592 0010 27D0     		beq	.L96
 593 0012 0123     		movs	r3, #1
 594 0014 6074     		strb	r0, [r4, #17]
 595 0016 2374     		strb	r3, [r4, #16]
 596 0018 C878     		ldrb	r0, [r1, #3]	@ zero_extendqisi2
 597 001a 1ABB     		cbnz	r2, .L97
ARM GAS  /tmp/cc0QSDrr.s 			page 11


 598 001c E073     		strb	r0, [r4, #15]
 599 001e 4B78     		ldrb	r3, [r1, #1]	@ zero_extendqisi2
 600 0020 6373     		strb	r3, [r4, #13]
 601 0022 8B78     		ldrb	r3, [r1, #2]	@ zero_extendqisi2
 602 0024 A373     		strb	r3, [r4, #14]
 603              	.L98:
 604 0026 A27B     		ldrb	r2, [r4, #14]	@ zero_extendqisi2
 605 0028 617B     		ldrb	r1, [r4, #13]	@ zero_extendqisi2
 606 002a E07B     		ldrb	r0, [r4, #15]	@ zero_extendqisi2
 607 002c FFF7FEFF 		bl	RTC_WeekDayNum
 608 0030 2073     		strb	r0, [r4, #12]
 609 0032 2870     		strb	r0, [r5]
 610 0034 2046     		mov	r0, r4
 611 0036 FFF7FEFF 		bl	RTC_ReadTimeCounter
 612 003a 1C4B     		ldr	r3, .L110
 613 003c 9842     		cmp	r0, r3
 614 003e 30D9     		bls	.L99
 615 0040 A3F60F63 		subw	r3, r3, #3599
 616 0044 B0FBF3F5 		udiv	r5, r0, r3
 617 0048 03FB1505 		mls	r5, r3, r5, r0
 618 004c 2046     		mov	r0, r4
 619 004e 2946     		mov	r1, r5
 620 0050 FFF7FEFF 		bl	RTC_WriteTimeCounter
 621 0054 0646     		mov	r6, r0
 622 0056 88B1     		cbz	r0, .L100
 623 0058 0423     		movs	r3, #4
 624 005a 6374     		strb	r3, [r4, #17]
 625 005c 0023     		movs	r3, #0
 626 005e 2374     		strb	r3, [r4, #16]
 627              	.L102:
 628 0060 0120     		movs	r0, #1
 629              	.L96:
 630 0062 70BD     		pop	{r4, r5, r6, pc}
 631              	.L97:
 632 0064 FFF7FEFF 		bl	RTC_Bcd2ToByte
 633 0068 E073     		strb	r0, [r4, #15]
 634 006a 4878     		ldrb	r0, [r1, #1]	@ zero_extendqisi2
 635 006c FFF7FEFF 		bl	RTC_Bcd2ToByte
 636 0070 6073     		strb	r0, [r4, #13]
 637 0072 8878     		ldrb	r0, [r1, #2]	@ zero_extendqisi2
 638 0074 FFF7FEFF 		bl	RTC_Bcd2ToByte
 639 0078 A073     		strb	r0, [r4, #14]
 640 007a D4E7     		b	.L98
 641              	.L100:
 642 007c 2046     		mov	r0, r4
 643 007e FFF7FEFF 		bl	RTC_ReadAlarmCounter
 644 0082 431C     		adds	r3, r0, #1
 645 0084 0DD0     		beq	.L99
 646 0086 8542     		cmp	r5, r0
 647 0088 0BD9     		bls	.L99
 648 008a 00F5A831 		add	r1, r0, #86016
 649 008e 01F5C071 		add	r1, r1, #384
 650 0092 2046     		mov	r0, r4
 651 0094 FFF7FEFF 		bl	RTC_WriteAlarmCounter
 652 0098 18B1     		cbz	r0, .L99
 653 009a 0423     		movs	r3, #4
 654 009c 2674     		strb	r6, [r4, #16]
ARM GAS  /tmp/cc0QSDrr.s 			page 12


 655 009e 6374     		strb	r3, [r4, #17]
 656 00a0 DEE7     		b	.L102
 657              	.L99:
 658 00a2 0123     		movs	r3, #1
 659 00a4 0020     		movs	r0, #0
 660 00a6 6374     		strb	r3, [r4, #17]
 661 00a8 2074     		strb	r0, [r4, #16]
 662 00aa 70BD     		pop	{r4, r5, r6, pc}
 663              	.L111:
 664              		.align	2
 665              	.L110:
 666 00ac 8F5F0100 		.word	89999
 668              		.section	.text.HAL_RTC_GetDate,"ax",%progbits
 669              		.align	1
 670              		.global	HAL_RTC_GetDate
 671              		.syntax unified
 672              		.thumb
 673              		.thumb_func
 674              		.fpu softvfp
 676              	HAL_RTC_GetDate:
 677              		@ args = 0, pretend = 0, frame = 8
 678              		@ frame_needed = 0, uses_anonymous_args = 0
 679 0000 F7B5     		push	{r0, r1, r2, r4, r5, r6, r7, lr}
 680 0002 1746     		mov	r7, r2
 681 0004 0022     		movs	r2, #0
 682 0006 0C46     		mov	r4, r1
 683 0008 ADF80420 		strh	r2, [sp, #4]	@ movhi
 684 000c 8DF80620 		strb	r2, [sp, #6]
 685 0010 0546     		mov	r5, r0
 686 0012 18B9     		cbnz	r0, .L113
 687              	.L115:
 688 0014 0122     		movs	r2, #1
 689              	.L114:
 690 0016 1046     		mov	r0, r2
 691 0018 03B0     		add	sp, sp, #12
 692              		@ sp needed
 693 001a F0BD     		pop	{r4, r5, r6, r7, pc}
 694              	.L113:
 695 001c 0029     		cmp	r1, #0
 696 001e F9D0     		beq	.L115
 697 0020 01A9     		add	r1, sp, #4
 698 0022 FFF7FEFF 		bl	HAL_RTC_GetTime
 699 0026 0246     		mov	r2, r0
 700 0028 0028     		cmp	r0, #0
 701 002a F3D1     		bne	.L115
 702 002c 2B7B     		ldrb	r3, [r5, #12]	@ zero_extendqisi2
 703 002e 2370     		strb	r3, [r4]
 704 0030 E87B     		ldrb	r0, [r5, #15]	@ zero_extendqisi2
 705 0032 E070     		strb	r0, [r4, #3]
 706 0034 6E7B     		ldrb	r6, [r5, #13]	@ zero_extendqisi2
 707 0036 6670     		strb	r6, [r4, #1]
 708 0038 A97B     		ldrb	r1, [r5, #14]	@ zero_extendqisi2
 709 003a A170     		strb	r1, [r4, #2]
 710 003c 002F     		cmp	r7, #0
 711 003e EAD0     		beq	.L114
 712 0040 FFF7FEFF 		bl	RTC_ByteToBcd2
 713 0044 E070     		strb	r0, [r4, #3]
ARM GAS  /tmp/cc0QSDrr.s 			page 13


 714 0046 3046     		mov	r0, r6
 715 0048 FFF7FEFF 		bl	RTC_ByteToBcd2
 716 004c 6070     		strb	r0, [r4, #1]
 717 004e 0846     		mov	r0, r1
 718 0050 FFF7FEFF 		bl	RTC_ByteToBcd2
 719 0054 A070     		strb	r0, [r4, #2]
 720 0056 DEE7     		b	.L114
 722              		.section	.text.HAL_RTC_SetAlarm,"ax",%progbits
 723              		.align	1
 724              		.global	HAL_RTC_SetAlarm
 725              		.syntax unified
 726              		.thumb
 727              		.thumb_func
 728              		.fpu softvfp
 730              	HAL_RTC_SetAlarm:
 731              		@ args = 0, pretend = 0, frame = 8
 732              		@ frame_needed = 0, uses_anonymous_args = 0
 733 0000 2DE9F347 		push	{r0, r1, r4, r5, r6, r7, r8, r9, r10, lr}
 734 0004 9246     		mov	r10, r2
 735 0006 0022     		movs	r2, #0
 736 0008 8846     		mov	r8, r1
 737 000a ADF80420 		strh	r2, [sp, #4]	@ movhi
 738 000e 8DF80620 		strb	r2, [sp, #6]
 739 0012 0446     		mov	r4, r0
 740 0014 18B9     		cbnz	r0, .L123
 741              	.L134:
 742 0016 0120     		movs	r0, #1
 743              	.L124:
 744 0018 02B0     		add	sp, sp, #8
 745              		@ sp needed
 746 001a BDE8F087 		pop	{r4, r5, r6, r7, r8, r9, r10, pc}
 747              	.L123:
 748 001e 0029     		cmp	r1, #0
 749 0020 F9D0     		beq	.L134
 750 0022 037C     		ldrb	r3, [r0, #16]	@ zero_extendqisi2
 751 0024 012B     		cmp	r3, #1
 752 0026 4FF00203 		mov	r3, #2
 753 002a 43D0     		beq	.L130
 754 002c 0121     		movs	r1, #1
 755 002e 4374     		strb	r3, [r0, #17]
 756 0030 0174     		strb	r1, [r0, #16]
 757 0032 01A9     		add	r1, sp, #4
 758 0034 FFF7FEFF 		bl	HAL_RTC_GetTime
 759 0038 0028     		cmp	r0, #0
 760 003a ECD1     		bne	.L134
 761 003c 3C26     		movs	r6, #60
 762 003e 4FF46169 		mov	r9, #3600
 763 0042 9DF80530 		ldrb	r3, [sp, #5]	@ zero_extendqisi2
 764 0046 9DF80450 		ldrb	r5, [sp, #4]	@ zero_extendqisi2
 765 004a 7343     		muls	r3, r6, r3
 766 004c 09FB0535 		mla	r5, r9, r5, r3
 767 0050 9DF80630 		ldrb	r3, [sp, #6]	@ zero_extendqisi2
 768 0054 98F80000 		ldrb	r0, [r8]	@ zero_extendqisi2
 769 0058 98F80170 		ldrb	r7, [r8, #1]	@ zero_extendqisi2
 770 005c 1D44     		add	r5, r5, r3
 771 005e 98F80280 		ldrb	r8, [r8, #2]	@ zero_extendqisi2
 772 0062 BAF1000F 		cmp	r10, #0
ARM GAS  /tmp/cc0QSDrr.s 			page 14


 773 0066 13D1     		bne	.L126
 774 0068 7E43     		muls	r6, r7, r6
 775 006a 09FB0060 		mla	r0, r9, r0, r6
 776 006e 00EB0801 		add	r1, r0, r8
 777              	.L127:
 778 0072 A942     		cmp	r1, r5
 779 0074 3CBF     		itt	cc
 780 0076 01F5A831 		addcc	r1, r1, #86016
 781 007a 01F5C071 		addcc	r1, r1, #384
 782 007e 2046     		mov	r0, r4
 783 0080 FFF7FEFF 		bl	RTC_WriteAlarmCounter
 784 0084 90B1     		cbz	r0, .L129
 785 0086 0423     		movs	r3, #4
 786 0088 6374     		strb	r3, [r4, #17]
 787 008a 0023     		movs	r3, #0
 788 008c 2374     		strb	r3, [r4, #16]
 789 008e C2E7     		b	.L134
 790              	.L126:
 791 0090 FFF7FEFF 		bl	RTC_Bcd2ToByte
 792 0094 0146     		mov	r1, r0
 793 0096 3846     		mov	r0, r7
 794 0098 FFF7FEFF 		bl	RTC_Bcd2ToByte
 795 009c 7043     		muls	r0, r6, r0
 796 009e 09FB0101 		mla	r1, r9, r1, r0
 797 00a2 4046     		mov	r0, r8
 798 00a4 FFF7FEFF 		bl	RTC_Bcd2ToByte
 799 00a8 0144     		add	r1, r1, r0
 800 00aa E2E7     		b	.L127
 801              	.L129:
 802 00ac 0123     		movs	r3, #1
 803 00ae 2074     		strb	r0, [r4, #16]
 804 00b0 6374     		strb	r3, [r4, #17]
 805 00b2 B1E7     		b	.L124
 806              	.L130:
 807 00b4 1846     		mov	r0, r3
 808 00b6 AFE7     		b	.L124
 810              		.section	.text.HAL_RTC_SetAlarm_IT,"ax",%progbits
 811              		.align	1
 812              		.global	HAL_RTC_SetAlarm_IT
 813              		.syntax unified
 814              		.thumb
 815              		.thumb_func
 816              		.fpu softvfp
 818              	HAL_RTC_SetAlarm_IT:
 819              		@ args = 0, pretend = 0, frame = 8
 820              		@ frame_needed = 0, uses_anonymous_args = 0
 821 0000 2DE9F347 		push	{r0, r1, r4, r5, r6, r7, r8, r9, r10, lr}
 822 0004 9246     		mov	r10, r2
 823 0006 0022     		movs	r2, #0
 824 0008 8846     		mov	r8, r1
 825 000a ADF80420 		strh	r2, [sp, #4]	@ movhi
 826 000e 8DF80620 		strb	r2, [sp, #6]
 827 0012 0446     		mov	r4, r0
 828 0014 18B9     		cbnz	r0, .L136
 829              	.L147:
 830 0016 0120     		movs	r0, #1
 831              	.L137:
ARM GAS  /tmp/cc0QSDrr.s 			page 15


 832 0018 02B0     		add	sp, sp, #8
 833              		@ sp needed
 834 001a BDE8F087 		pop	{r4, r5, r6, r7, r8, r9, r10, pc}
 835              	.L136:
 836 001e 0029     		cmp	r1, #0
 837 0020 F9D0     		beq	.L147
 838 0022 037C     		ldrb	r3, [r0, #16]	@ zero_extendqisi2
 839 0024 012B     		cmp	r3, #1
 840 0026 4FF00203 		mov	r3, #2
 841 002a 54D0     		beq	.L143
 842 002c 0121     		movs	r1, #1
 843 002e 4374     		strb	r3, [r0, #17]
 844 0030 0174     		strb	r1, [r0, #16]
 845 0032 01A9     		add	r1, sp, #4
 846 0034 FFF7FEFF 		bl	HAL_RTC_GetTime
 847 0038 0028     		cmp	r0, #0
 848 003a ECD1     		bne	.L147
 849 003c 3C26     		movs	r6, #60
 850 003e 4FF46169 		mov	r9, #3600
 851 0042 9DF80530 		ldrb	r3, [sp, #5]	@ zero_extendqisi2
 852 0046 9DF80450 		ldrb	r5, [sp, #4]	@ zero_extendqisi2
 853 004a 7343     		muls	r3, r6, r3
 854 004c 09FB0535 		mla	r5, r9, r5, r3
 855 0050 9DF80630 		ldrb	r3, [sp, #6]	@ zero_extendqisi2
 856 0054 98F80000 		ldrb	r0, [r8]	@ zero_extendqisi2
 857 0058 98F80170 		ldrb	r7, [r8, #1]	@ zero_extendqisi2
 858 005c 1D44     		add	r5, r5, r3
 859 005e 98F80280 		ldrb	r8, [r8, #2]	@ zero_extendqisi2
 860 0062 BAF1000F 		cmp	r10, #0
 861 0066 13D1     		bne	.L139
 862 0068 7E43     		muls	r6, r7, r6
 863 006a 09FB0060 		mla	r0, r9, r0, r6
 864 006e 00EB0801 		add	r1, r0, r8
 865              	.L140:
 866 0072 A942     		cmp	r1, r5
 867 0074 3CBF     		itt	cc
 868 0076 01F5A831 		addcc	r1, r1, #86016
 869 007a 01F5C071 		addcc	r1, r1, #384
 870 007e 2046     		mov	r0, r4
 871 0080 FFF7FEFF 		bl	RTC_WriteAlarmCounter
 872 0084 90B1     		cbz	r0, .L142
 873 0086 0423     		movs	r3, #4
 874 0088 6374     		strb	r3, [r4, #17]
 875 008a 0023     		movs	r3, #0
 876 008c 2374     		strb	r3, [r4, #16]
 877 008e C2E7     		b	.L147
 878              	.L139:
 879 0090 FFF7FEFF 		bl	RTC_Bcd2ToByte
 880 0094 0146     		mov	r1, r0
 881 0096 3846     		mov	r0, r7
 882 0098 FFF7FEFF 		bl	RTC_Bcd2ToByte
 883 009c 7043     		muls	r0, r6, r0
 884 009e 09FB0101 		mla	r1, r9, r1, r0
 885 00a2 4046     		mov	r0, r8
 886 00a4 FFF7FEFF 		bl	RTC_Bcd2ToByte
 887 00a8 0144     		add	r1, r1, r0
 888 00aa E2E7     		b	.L140
ARM GAS  /tmp/cc0QSDrr.s 			page 16


 889              	.L142:
 890 00ac 6FF00202 		mvn	r2, #2
 891 00b0 2368     		ldr	r3, [r4]
 892 00b2 5A60     		str	r2, [r3, #4]
 893 00b4 1A68     		ldr	r2, [r3]
 894 00b6 42F00202 		orr	r2, r2, #2
 895 00ba 1A60     		str	r2, [r3]
 896 00bc 074B     		ldr	r3, .L148
 897 00be 1A68     		ldr	r2, [r3]
 898 00c0 42F40032 		orr	r2, r2, #131072
 899 00c4 1A60     		str	r2, [r3]
 900 00c6 9A68     		ldr	r2, [r3, #8]
 901 00c8 42F40032 		orr	r2, r2, #131072
 902 00cc 9A60     		str	r2, [r3, #8]
 903 00ce 0123     		movs	r3, #1
 904 00d0 2074     		strb	r0, [r4, #16]
 905 00d2 6374     		strb	r3, [r4, #17]
 906 00d4 A0E7     		b	.L137
 907              	.L143:
 908 00d6 1846     		mov	r0, r3
 909 00d8 9EE7     		b	.L137
 910              	.L149:
 911 00da 00BF     		.align	2
 912              	.L148:
 913 00dc 00040140 		.word	1073808384
 915              		.section	.text.HAL_RTC_GetAlarm,"ax",%progbits
 916              		.align	1
 917              		.global	HAL_RTC_GetAlarm
 918              		.syntax unified
 919              		.thumb
 920              		.thumb_func
 921              		.fpu softvfp
 923              	HAL_RTC_GetAlarm:
 924              		@ args = 0, pretend = 0, frame = 0
 925              		@ frame_needed = 0, uses_anonymous_args = 0
 926 0000 70B5     		push	{r4, r5, r6, lr}
 927 0002 1A46     		mov	r2, r3
 928 0004 38B3     		cbz	r0, .L153
 929 0006 31B3     		cbz	r1, .L153
 930 0008 FFF7FEFF 		bl	RTC_ReadAlarmCounter
 931 000c 4FF46165 		mov	r5, #3600
 932 0010 1826     		movs	r6, #24
 933 0012 B0FBF5F4 		udiv	r4, r0, r5
 934 0016 B4FBF6F3 		udiv	r3, r4, r6
 935 001a 06FB1343 		mls	r3, r6, r3, r4
 936 001e 3C26     		movs	r6, #60
 937 0020 05FB1400 		mls	r0, r5, r4, r0
 938 0024 B0FBF6F4 		udiv	r4, r0, r6
 939 0028 E5B2     		uxtb	r5, r4
 940 002a 06FB1404 		mls	r4, r6, r4, r0
 941 002e DBB2     		uxtb	r3, r3
 942 0030 E4B2     		uxtb	r4, r4
 943 0032 0B70     		strb	r3, [r1]
 944 0034 4D70     		strb	r5, [r1, #1]
 945 0036 8C70     		strb	r4, [r1, #2]
 946 0038 5AB1     		cbz	r2, .L155
 947 003a 1846     		mov	r0, r3
ARM GAS  /tmp/cc0QSDrr.s 			page 17


 948 003c FFF7FEFF 		bl	RTC_ByteToBcd2
 949 0040 0870     		strb	r0, [r1]
 950 0042 2846     		mov	r0, r5
 951 0044 FFF7FEFF 		bl	RTC_ByteToBcd2
 952 0048 4870     		strb	r0, [r1, #1]
 953 004a 2046     		mov	r0, r4
 954 004c FFF7FEFF 		bl	RTC_ByteToBcd2
 955 0050 8870     		strb	r0, [r1, #2]
 956              	.L155:
 957 0052 0020     		movs	r0, #0
 958 0054 70BD     		pop	{r4, r5, r6, pc}
 959              	.L153:
 960 0056 0120     		movs	r0, #1
 961 0058 70BD     		pop	{r4, r5, r6, pc}
 963              		.section	.text.HAL_RTC_DeactivateAlarm,"ax",%progbits
 964              		.align	1
 965              		.global	HAL_RTC_DeactivateAlarm
 966              		.syntax unified
 967              		.thumb
 968              		.thumb_func
 969              		.fpu softvfp
 971              	HAL_RTC_DeactivateAlarm:
 972              		@ args = 0, pretend = 0, frame = 0
 973              		@ frame_needed = 0, uses_anonymous_args = 0
 974 0000 70B5     		push	{r4, r5, r6, lr}
 975 0002 0446     		mov	r4, r0
 976 0004 A0B1     		cbz	r0, .L160
 977 0006 037C     		ldrb	r3, [r0, #16]	@ zero_extendqisi2
 978 0008 012B     		cmp	r3, #1
 979 000a 4FF00203 		mov	r3, #2
 980 000e 2CD0     		beq	.L161
 981 0010 0125     		movs	r5, #1
 982 0012 0268     		ldr	r2, [r0]
 983 0014 4374     		strb	r3, [r0, #17]
 984 0016 1368     		ldr	r3, [r2]
 985 0018 0574     		strb	r5, [r0, #16]
 986 001a 23F00203 		bic	r3, r3, #2
 987 001e 1360     		str	r3, [r2]
 988 0020 FFF7FEFF 		bl	RTC_EnterInitMode
 989 0024 0646     		mov	r6, r0
 990 0026 28B1     		cbz	r0, .L158
 991 0028 0423     		movs	r3, #4
 992 002a 6374     		strb	r3, [r4, #17]
 993 002c 0023     		movs	r3, #0
 994 002e 2374     		strb	r3, [r4, #16]
 995              	.L160:
 996 0030 0120     		movs	r0, #1
 997 0032 70BD     		pop	{r4, r5, r6, pc}
 998              	.L158:
 999 0034 6FF00202 		mvn	r2, #2
 1000 0038 2368     		ldr	r3, [r4]
 1001 003a 2046     		mov	r0, r4
 1002 003c 5A60     		str	r2, [r3, #4]
 1003 003e 4FF6FF72 		movw	r2, #65535
 1004 0042 1A62     		str	r2, [r3, #32]
 1005 0044 5A62     		str	r2, [r3, #36]
 1006 0046 02F18042 		add	r2, r2, #1073741824
ARM GAS  /tmp/cc0QSDrr.s 			page 18


 1007 004a 02F20142 		addw	r2, r2, #1025
 1008 004e 1368     		ldr	r3, [r2]
 1009 0050 23F40033 		bic	r3, r3, #131072
 1010 0054 1360     		str	r3, [r2]
 1011 0056 FFF7FEFF 		bl	RTC_ExitInitMode
 1012 005a 18B1     		cbz	r0, .L159
 1013 005c 0423     		movs	r3, #4
 1014 005e 2674     		strb	r6, [r4, #16]
 1015 0060 6374     		strb	r3, [r4, #17]
 1016 0062 E5E7     		b	.L160
 1017              	.L159:
 1018 0064 6574     		strb	r5, [r4, #17]
 1019 0066 2074     		strb	r0, [r4, #16]
 1020 0068 70BD     		pop	{r4, r5, r6, pc}
 1021              	.L161:
 1022 006a 1846     		mov	r0, r3
 1023 006c 70BD     		pop	{r4, r5, r6, pc}
 1025              		.section	.text.HAL_RTC_AlarmAEventCallback,"ax",%progbits
 1026              		.align	1
 1027              		.weak	HAL_RTC_AlarmAEventCallback
 1028              		.syntax unified
 1029              		.thumb
 1030              		.thumb_func
 1031              		.fpu softvfp
 1033              	HAL_RTC_AlarmAEventCallback:
 1034              		@ args = 0, pretend = 0, frame = 0
 1035              		@ frame_needed = 0, uses_anonymous_args = 0
 1036              		@ link register save eliminated.
 1037 0000 7047     		bx	lr
 1039              		.section	.text.HAL_RTC_AlarmIRQHandler,"ax",%progbits
 1040              		.align	1
 1041              		.global	HAL_RTC_AlarmIRQHandler
 1042              		.syntax unified
 1043              		.thumb
 1044              		.thumb_func
 1045              		.fpu softvfp
 1047              	HAL_RTC_AlarmIRQHandler:
 1048              		@ args = 0, pretend = 0, frame = 0
 1049              		@ frame_needed = 0, uses_anonymous_args = 0
 1050 0000 0368     		ldr	r3, [r0]
 1051 0002 10B5     		push	{r4, lr}
 1052 0004 1A68     		ldr	r2, [r3]
 1053 0006 0446     		mov	r4, r0
 1054 0008 9207     		lsls	r2, r2, #30
 1055 000a 08D5     		bpl	.L164
 1056 000c 5B68     		ldr	r3, [r3, #4]
 1057 000e 9B07     		lsls	r3, r3, #30
 1058 0010 05D5     		bpl	.L164
 1059 0012 FFF7FEFF 		bl	HAL_RTC_AlarmAEventCallback
 1060 0016 6FF00202 		mvn	r2, #2
 1061 001a 2368     		ldr	r3, [r4]
 1062 001c 5A60     		str	r2, [r3, #4]
 1063              	.L164:
 1064 001e 4FF40032 		mov	r2, #131072
 1065 0022 024B     		ldr	r3, .L171
 1066 0024 5A61     		str	r2, [r3, #20]
 1067 0026 0123     		movs	r3, #1
ARM GAS  /tmp/cc0QSDrr.s 			page 19


 1068 0028 6374     		strb	r3, [r4, #17]
 1069 002a 10BD     		pop	{r4, pc}
 1070              	.L172:
 1071              		.align	2
 1072              	.L171:
 1073 002c 00040140 		.word	1073808384
 1075              		.section	.text.HAL_RTC_PollForAlarmAEvent,"ax",%progbits
 1076              		.align	1
 1077              		.global	HAL_RTC_PollForAlarmAEvent
 1078              		.syntax unified
 1079              		.thumb
 1080              		.thumb_func
 1081              		.fpu softvfp
 1083              	HAL_RTC_PollForAlarmAEvent:
 1084              		@ args = 0, pretend = 0, frame = 0
 1085              		@ frame_needed = 0, uses_anonymous_args = 0
 1086 0000 70B5     		push	{r4, r5, r6, lr}
 1087 0002 0446     		mov	r4, r0
 1088 0004 0D46     		mov	r5, r1
 1089 0006 FFF7FEFF 		bl	HAL_GetTick
 1090 000a 0646     		mov	r6, r0
 1091 000c 64B9     		cbnz	r4, .L175
 1092 000e 0120     		movs	r0, #1
 1093 0010 70BD     		pop	{r4, r5, r6, pc}
 1094              	.L179:
 1095 0012 691C     		adds	r1, r5, #1
 1096 0014 09D0     		beq	.L176
 1097 0016 15B9     		cbnz	r5, .L177
 1098              	.L178:
 1099 0018 0320     		movs	r0, #3
 1100 001a 6074     		strb	r0, [r4, #17]
 1101 001c 70BD     		pop	{r4, r5, r6, pc}
 1102              	.L177:
 1103 001e FFF7FEFF 		bl	HAL_GetTick
 1104 0022 801B     		subs	r0, r0, r6
 1105 0024 8542     		cmp	r5, r0
 1106 0026 F7D3     		bcc	.L178
 1107              	.L175:
 1108 0028 2368     		ldr	r3, [r4]
 1109              	.L176:
 1110 002a 5A68     		ldr	r2, [r3, #4]
 1111 002c 9207     		lsls	r2, r2, #30
 1112 002e F0D5     		bpl	.L179
 1113 0030 6FF00202 		mvn	r2, #2
 1114 0034 5A60     		str	r2, [r3, #4]
 1115 0036 0123     		movs	r3, #1
 1116 0038 0020     		movs	r0, #0
 1117 003a 6374     		strb	r3, [r4, #17]
 1118 003c 70BD     		pop	{r4, r5, r6, pc}
 1120              		.section	.text.HAL_RTC_GetState,"ax",%progbits
 1121              		.align	1
 1122              		.global	HAL_RTC_GetState
 1123              		.syntax unified
 1124              		.thumb
 1125              		.thumb_func
 1126              		.fpu softvfp
 1128              	HAL_RTC_GetState:
ARM GAS  /tmp/cc0QSDrr.s 			page 20


 1129              		@ args = 0, pretend = 0, frame = 0
 1130              		@ frame_needed = 0, uses_anonymous_args = 0
 1131              		@ link register save eliminated.
 1132 0000 407C     		ldrb	r0, [r0, #17]	@ zero_extendqisi2
 1133 0002 7047     		bx	lr
 1135              		.section	.text.HAL_RTC_WaitForSynchro,"ax",%progbits
 1136              		.align	1
 1137              		.global	HAL_RTC_WaitForSynchro
 1138              		.syntax unified
 1139              		.thumb
 1140              		.thumb_func
 1141              		.fpu softvfp
 1143              	HAL_RTC_WaitForSynchro:
 1144              		@ args = 0, pretend = 0, frame = 0
 1145              		@ frame_needed = 0, uses_anonymous_args = 0
 1146 0000 38B5     		push	{r3, r4, r5, lr}
 1147 0002 0446     		mov	r4, r0
 1148 0004 A8B1     		cbz	r0, .L188
 1149 0006 0268     		ldr	r2, [r0]
 1150 0008 5368     		ldr	r3, [r2, #4]
 1151 000a 23F00803 		bic	r3, r3, #8
 1152 000e 5360     		str	r3, [r2, #4]
 1153 0010 FFF7FEFF 		bl	HAL_GetTick
 1154 0014 0546     		mov	r5, r0
 1155              	.L186:
 1156 0016 2368     		ldr	r3, [r4]
 1157 0018 5B68     		ldr	r3, [r3, #4]
 1158 001a 1B07     		lsls	r3, r3, #28
 1159 001c 01D5     		bpl	.L187
 1160 001e 0020     		movs	r0, #0
 1161 0020 38BD     		pop	{r3, r4, r5, pc}
 1162              	.L187:
 1163 0022 FFF7FEFF 		bl	HAL_GetTick
 1164 0026 401B     		subs	r0, r0, r5
 1165 0028 B0F57A7F 		cmp	r0, #1000
 1166 002c F3D9     		bls	.L186
 1167 002e 0320     		movs	r0, #3
 1168 0030 38BD     		pop	{r3, r4, r5, pc}
 1169              	.L188:
 1170 0032 0120     		movs	r0, #1
 1171 0034 38BD     		pop	{r3, r4, r5, pc}
 1173              		.section	.text.HAL_RTC_Init,"ax",%progbits
 1174              		.align	1
 1175              		.global	HAL_RTC_Init
 1176              		.syntax unified
 1177              		.thumb
 1178              		.thumb_func
 1179              		.fpu softvfp
 1181              	HAL_RTC_Init:
 1182              		@ args = 0, pretend = 0, frame = 0
 1183              		@ frame_needed = 0, uses_anonymous_args = 0
 1184 0000 10B5     		push	{r4, lr}
 1185 0002 0446     		mov	r4, r0
 1186 0004 70B1     		cbz	r0, .L199
 1187 0006 437C     		ldrb	r3, [r0, #17]	@ zero_extendqisi2
 1188 0008 03F0FF02 		and	r2, r3, #255
 1189 000c 13B9     		cbnz	r3, .L192
ARM GAS  /tmp/cc0QSDrr.s 			page 21


 1190 000e 0274     		strb	r2, [r0, #16]
 1191 0010 FFF7FEFF 		bl	HAL_RTC_MspInit
 1192              	.L192:
 1193 0014 0223     		movs	r3, #2
 1194 0016 2046     		mov	r0, r4
 1195 0018 6374     		strb	r3, [r4, #17]
 1196 001a FFF7FEFF 		bl	HAL_RTC_WaitForSynchro
 1197 001e 18B1     		cbz	r0, .L193
 1198              	.L203:
 1199 0020 0423     		movs	r3, #4
 1200 0022 6374     		strb	r3, [r4, #17]
 1201              	.L199:
 1202 0024 0120     		movs	r0, #1
 1203 0026 10BD     		pop	{r4, pc}
 1204              	.L193:
 1205 0028 2046     		mov	r0, r4
 1206 002a FFF7FEFF 		bl	RTC_EnterInitMode
 1207 002e 0028     		cmp	r0, #0
 1208 0030 F6D1     		bne	.L203
 1209 0032 2268     		ldr	r2, [r4]
 1210 0034 A068     		ldr	r0, [r4, #8]
 1211 0036 5368     		ldr	r3, [r2, #4]
 1212 0038 23F00703 		bic	r3, r3, #7
 1213 003c 5360     		str	r3, [r2, #4]
 1214 003e 174A     		ldr	r2, .L204
 1215 0040 18B1     		cbz	r0, .L195
 1216 0042 116B     		ldr	r1, [r2, #48]
 1217 0044 21F00101 		bic	r1, r1, #1
 1218 0048 1163     		str	r1, [r2, #48]
 1219              	.L195:
 1220 004a D36A     		ldr	r3, [r2, #44]
 1221 004c 23F46073 		bic	r3, r3, #896
 1222 0050 0343     		orrs	r3, r3, r0
 1223 0052 D362     		str	r3, [r2, #44]
 1224 0054 6068     		ldr	r0, [r4, #4]
 1225 0056 431C     		adds	r3, r0, #1
 1226 0058 05D1     		bne	.L196
 1227 005a 0120     		movs	r0, #1
 1228 005c FFF7FEFF 		bl	HAL_RCCEx_GetPeriphCLKFreq
 1229 0060 0028     		cmp	r0, #0
 1230 0062 DDD0     		beq	.L203
 1231 0064 0138     		subs	r0, r0, #1
 1232              	.L196:
 1233 0066 2268     		ldr	r2, [r4]
 1234 0068 9368     		ldr	r3, [r2, #8]
 1235 006a 23F00F03 		bic	r3, r3, #15
 1236 006e 43EA1043 		orr	r3, r3, r0, lsr #16
 1237 0072 9360     		str	r3, [r2, #8]
 1238 0074 D368     		ldr	r3, [r2, #12]
 1239 0076 80B2     		uxth	r0, r0
 1240 0078 1B0C     		lsrs	r3, r3, #16
 1241 007a 1B04     		lsls	r3, r3, #16
 1242 007c 1843     		orrs	r0, r0, r3
 1243 007e D060     		str	r0, [r2, #12]
 1244 0080 2046     		mov	r0, r4
 1245 0082 FFF7FEFF 		bl	RTC_ExitInitMode
 1246 0086 0123     		movs	r3, #1
ARM GAS  /tmp/cc0QSDrr.s 			page 22


 1247 0088 10B1     		cbz	r0, .L198
 1248 008a 0422     		movs	r2, #4
 1249 008c 6274     		strb	r2, [r4, #17]
 1250 008e C9E7     		b	.L199
 1251              	.L198:
 1252 0090 E073     		strb	r0, [r4, #15]
 1253 0092 6373     		strb	r3, [r4, #13]
 1254 0094 A373     		strb	r3, [r4, #14]
 1255 0096 6374     		strb	r3, [r4, #17]
 1256 0098 10BD     		pop	{r4, pc}
 1257              	.L205:
 1258 009a 00BF     		.align	2
 1259              	.L204:
 1260 009c 006C0040 		.word	1073769472
 1262              		.section	.text.HAL_RTC_DeInit,"ax",%progbits
 1263              		.align	1
 1264              		.global	HAL_RTC_DeInit
 1265              		.syntax unified
 1266              		.thumb
 1267              		.thumb_func
 1268              		.fpu softvfp
 1270              	HAL_RTC_DeInit:
 1271              		@ args = 0, pretend = 0, frame = 0
 1272              		@ frame_needed = 0, uses_anonymous_args = 0
 1273 0000 70B5     		push	{r4, r5, r6, lr}
 1274 0002 0446     		mov	r4, r0
 1275 0004 48B1     		cbz	r0, .L210
 1276 0006 0223     		movs	r3, #2
 1277 0008 4374     		strb	r3, [r0, #17]
 1278 000a FFF7FEFF 		bl	RTC_EnterInitMode
 1279 000e 0646     		mov	r6, r0
 1280 0010 28B1     		cbz	r0, .L208
 1281 0012 0423     		movs	r3, #4
 1282 0014 6374     		strb	r3, [r4, #17]
 1283 0016 0023     		movs	r3, #0
 1284 0018 2374     		strb	r3, [r4, #16]
 1285              	.L210:
 1286 001a 0125     		movs	r5, #1
 1287 001c 1EE0     		b	.L207
 1288              	.L208:
 1289 001e 4FF40042 		mov	r2, #32768
 1290 0022 2368     		ldr	r3, [r4]
 1291 0024 D861     		str	r0, [r3, #28]
 1292 0026 9861     		str	r0, [r3, #24]
 1293 0028 DA60     		str	r2, [r3, #12]
 1294 002a 9860     		str	r0, [r3, #8]
 1295 002c 1860     		str	r0, [r3]
 1296 002e 5860     		str	r0, [r3, #4]
 1297 0030 2046     		mov	r0, r4
 1298 0032 FFF7FEFF 		bl	RTC_ExitInitMode
 1299 0036 0546     		mov	r5, r0
 1300 0038 18B1     		cbz	r0, .L209
 1301 003a 0423     		movs	r3, #4
 1302 003c 2674     		strb	r6, [r4, #16]
 1303 003e 6374     		strb	r3, [r4, #17]
 1304 0040 EBE7     		b	.L210
 1305              	.L209:
ARM GAS  /tmp/cc0QSDrr.s 			page 23


 1306 0042 2046     		mov	r0, r4
 1307 0044 FFF7FEFF 		bl	HAL_RTC_WaitForSynchro
 1308 0048 2268     		ldr	r2, [r4]
 1309 004a 2046     		mov	r0, r4
 1310 004c 5368     		ldr	r3, [r2, #4]
 1311 004e 23F00803 		bic	r3, r3, #8
 1312 0052 5360     		str	r3, [r2, #4]
 1313 0054 FFF7FEFF 		bl	HAL_RTC_MspDeInit
 1314 0058 6574     		strb	r5, [r4, #17]
 1315 005a 2574     		strb	r5, [r4, #16]
 1316              	.L207:
 1317 005c 2846     		mov	r0, r5
 1318 005e 70BD     		pop	{r4, r5, r6, pc}
 1320              		.ident	"GCC: (15:6.3.1+svn253039-1build1) 6.3.1 20170620"
ARM GAS  /tmp/cc0QSDrr.s 			page 24

