ARM GAS  /tmp/ccYUArj0.s 			page 1


   1              		.syntax unified
   2              		.cpu cortex-m3
   3              		.fpu softvfp
   4              		.eabi_attribute 20, 1
   5              		.eabi_attribute 21, 1
   6              		.eabi_attribute 23, 3
   7              		.eabi_attribute 24, 1
   8              		.eabi_attribute 25, 1
   9              		.eabi_attribute 26, 1
  10              		.eabi_attribute 30, 4
  11              		.eabi_attribute 34, 1
  12              		.eabi_attribute 18, 4
  13              		.thumb
  14              		.file	"stm32f1xx_hal_rcc.c"
  15              		.section	.text.HAL_RCC_DeInit,"ax",%progbits
  16              		.align	1
  17              		.global	HAL_RCC_DeInit
  18              		.thumb
  19              		.thumb_func
  21              	HAL_RCC_DeInit:
  22              		@ args = 0, pretend = 0, frame = 0
  23              		@ frame_needed = 0, uses_anonymous_args = 0
  24 0000 F8B5     		push	{r3, r4, r5, r6, r7, lr}
  25 0002 FFF7FEFF 		bl	HAL_GetTick
  26 0006 0646     		mov	r6, r0
  27 0008 314C     		ldr	r4, .L19
  28 000a 2368     		ldr	r3, [r4]
  29 000c 43F00103 		orr	r3, r3, #1
  30 0010 2360     		str	r3, [r4]
  31              	.L2:
  32 0012 2368     		ldr	r3, [r4]
  33 0014 2E4D     		ldr	r5, .L19
  34 0016 9B07     		lsls	r3, r3, #30
  35 0018 06D4     		bmi	.L15
  36 001a FFF7FEFF 		bl	HAL_GetTick
  37 001e 801B     		subs	r0, r0, r6
  38 0020 0228     		cmp	r0, #2
  39 0022 F6D9     		bls	.L2
  40              	.L6:
  41 0024 0325     		movs	r5, #3
  42 0026 51E0     		b	.L3
  43              	.L15:
  44 0028 2B68     		ldr	r3, [r5]
  45 002a 23F0F803 		bic	r3, r3, #248
  46 002e 43F08003 		orr	r3, r3, #128
  47 0032 2B60     		str	r3, [r5]
  48 0034 FFF7FEFF 		bl	HAL_GetTick
  49 0038 0746     		mov	r7, r0
  50 003a 0023     		movs	r3, #0
  51 003c 6B60     		str	r3, [r5, #4]
  52              	.L5:
  53 003e 6368     		ldr	r3, [r4, #4]
  54 0040 234E     		ldr	r6, .L19
  55 0042 13F00C0F 		tst	r3, #12
  56 0046 07D0     		beq	.L16
  57 0048 FFF7FEFF 		bl	HAL_GetTick
  58 004c 41F28833 		movw	r3, #5000
ARM GAS  /tmp/ccYUArj0.s 			page 2


  59 0050 C01B     		subs	r0, r0, r7
  60 0052 9842     		cmp	r0, r3
  61 0054 F3D9     		bls	.L5
  62 0056 E5E7     		b	.L6
  63              	.L16:
  64 0058 1E4A     		ldr	r2, .L19+4
  65 005a 1F4B     		ldr	r3, .L19+8
  66 005c 1A60     		str	r2, [r3]
  67 005e 1F4B     		ldr	r3, .L19+12
  68 0060 1868     		ldr	r0, [r3]
  69 0062 FFF7FEFF 		bl	HAL_InitTick
  70 0066 0546     		mov	r5, r0
  71 0068 78BB     		cbnz	r0, .L12
  72 006a FFF7FEFF 		bl	HAL_GetTick
  73 006e 0746     		mov	r7, r0
  74 0070 3368     		ldr	r3, [r6]
  75 0072 23F08073 		bic	r3, r3, #16777216
  76 0076 3360     		str	r3, [r6]
  77              	.L8:
  78 0078 2368     		ldr	r3, [r4]
  79 007a 154E     		ldr	r6, .L19
  80 007c 13F00073 		ands	r3, r3, #33554432
  81 0080 05D0     		beq	.L17
  82 0082 FFF7FEFF 		bl	HAL_GetTick
  83 0086 C01B     		subs	r0, r0, r7
  84 0088 0228     		cmp	r0, #2
  85 008a F5D9     		bls	.L8
  86 008c CAE7     		b	.L6
  87              	.L17:
  88 008e 7360     		str	r3, [r6, #4]
  89 0090 FFF7FEFF 		bl	HAL_GetTick
  90 0094 0746     		mov	r7, r0
  91 0096 3368     		ldr	r3, [r6]
  92 0098 23F41023 		bic	r3, r3, #589824
  93 009c 3360     		str	r3, [r6]
  94              	.L10:
  95 009e 2268     		ldr	r2, [r4]
  96 00a0 0B4B     		ldr	r3, .L19
  97 00a2 12F40032 		ands	r2, r2, #131072
  98 00a6 05D0     		beq	.L18
  99 00a8 FFF7FEFF 		bl	HAL_GetTick
 100 00ac C01B     		subs	r0, r0, r7
 101 00ae 6428     		cmp	r0, #100
 102 00b0 F5D9     		bls	.L10
 103 00b2 B7E7     		b	.L6
 104              	.L18:
 105 00b4 1968     		ldr	r1, [r3]
 106 00b6 21F48021 		bic	r1, r1, #262144
 107 00ba 1960     		str	r1, [r3]
 108 00bc DA62     		str	r2, [r3, #44]
 109 00be 596A     		ldr	r1, [r3, #36]
 110 00c0 41F08071 		orr	r1, r1, #16777216
 111 00c4 5962     		str	r1, [r3, #36]
 112 00c6 9A60     		str	r2, [r3, #8]
 113 00c8 00E0     		b	.L3
 114              	.L12:
 115 00ca 0125     		movs	r5, #1
ARM GAS  /tmp/ccYUArj0.s 			page 3


 116              	.L3:
 117 00cc 2846     		mov	r0, r5
 118 00ce F8BD     		pop	{r3, r4, r5, r6, r7, pc}
 119              	.L20:
 120              		.align	2
 121              	.L19:
 122 00d0 00100240 		.word	1073876992
 123 00d4 00127A00 		.word	8000000
 124 00d8 00000000 		.word	SystemCoreClock
 125 00dc 00000000 		.word	uwTickPrio
 127              		.section	.text.HAL_RCC_OscConfig,"ax",%progbits
 128              		.align	1
 129              		.global	HAL_RCC_OscConfig
 130              		.thumb
 131              		.thumb_func
 133              	HAL_RCC_OscConfig:
 134              		@ args = 0, pretend = 0, frame = 8
 135              		@ frame_needed = 0, uses_anonymous_args = 0
 136 0000 F7B5     		push	{r0, r1, r2, r4, r5, r6, r7, lr}
 137 0002 0546     		mov	r5, r0
 138 0004 0028     		cmp	r0, #0
 139 0006 00F09581 		beq	.L89
 140 000a 0368     		ldr	r3, [r0]
 141 000c DB07     		lsls	r3, r3, #31
 142 000e 03D4     		bmi	.L24
 143              	.L29:
 144 0010 2B68     		ldr	r3, [r5]
 145 0012 9F07     		lsls	r7, r3, #30
 146 0014 4ED4     		bmi	.L25
 147 0016 90E0     		b	.L40
 148              	.L24:
 149 0018 974C     		ldr	r4, .L119
 150 001a 6368     		ldr	r3, [r4, #4]
 151 001c 03F00C03 		and	r3, r3, #12
 152 0020 042B     		cmp	r3, #4
 153 0022 07D0     		beq	.L27
 154 0024 6368     		ldr	r3, [r4, #4]
 155 0026 03F00C03 		and	r3, r3, #12
 156 002a 082B     		cmp	r3, #8
 157 002c 09D1     		bne	.L28
 158 002e 6368     		ldr	r3, [r4, #4]
 159 0030 DE03     		lsls	r6, r3, #15
 160 0032 06D5     		bpl	.L28
 161              	.L27:
 162 0034 2368     		ldr	r3, [r4]
 163 0036 9C03     		lsls	r4, r3, #14
 164 0038 EAD5     		bpl	.L29
 165 003a 6B68     		ldr	r3, [r5, #4]
 166 003c 002B     		cmp	r3, #0
 167 003e E7D1     		bne	.L29
 168 0040 78E1     		b	.L89
 169              	.L28:
 170 0042 6B68     		ldr	r3, [r5, #4]
 171 0044 B3F5803F 		cmp	r3, #65536
 172 0048 13D0     		beq	.L114
 173 004a 5BB9     		cbnz	r3, .L33
 174 004c 2368     		ldr	r3, [r4]
ARM GAS  /tmp/ccYUArj0.s 			page 4


 175 004e 23F48033 		bic	r3, r3, #65536
 176 0052 2360     		str	r3, [r4]
 177 0054 2368     		ldr	r3, [r4]
 178 0056 23F48023 		bic	r3, r3, #262144
 179 005a 2360     		str	r3, [r4]
 180 005c FFF7FEFF 		bl	HAL_GetTick
 181 0060 0646     		mov	r6, r0
 182 0062 23E0     		b	.L34
 183              	.L33:
 184 0064 B3F5A02F 		cmp	r3, #327680
 185 0068 2368     		ldr	r3, [r4]
 186 006a 06D1     		bne	.L35
 187 006c 43F48023 		orr	r3, r3, #262144
 188 0070 2360     		str	r3, [r4]
 189              	.L114:
 190 0072 2368     		ldr	r3, [r4]
 191 0074 43F48033 		orr	r3, r3, #65536
 192 0078 05E0     		b	.L112
 193              	.L35:
 194 007a 23F48033 		bic	r3, r3, #65536
 195 007e 2360     		str	r3, [r4]
 196 0080 2368     		ldr	r3, [r4]
 197 0082 23F48023 		bic	r3, r3, #262144
 198              	.L112:
 199 0086 2360     		str	r3, [r4]
 200 0088 FFF7FEFF 		bl	HAL_GetTick
 201 008c 0646     		mov	r6, r0
 202              	.L36:
 203 008e 2368     		ldr	r3, [r4]
 204 0090 9803     		lsls	r0, r3, #14
 205 0092 BDD4     		bmi	.L29
 206 0094 FFF7FEFF 		bl	HAL_GetTick
 207 0098 801B     		subs	r0, r0, r6
 208 009a 6428     		cmp	r0, #100
 209 009c F7D9     		bls	.L36
 210              	.L38:
 211 009e 0320     		movs	r0, #3
 212 00a0 49E1     		b	.L110
 213              	.L39:
 214 00a2 FFF7FEFF 		bl	HAL_GetTick
 215 00a6 801B     		subs	r0, r0, r6
 216 00a8 6428     		cmp	r0, #100
 217 00aa F8D8     		bhi	.L38
 218              	.L34:
 219 00ac 2368     		ldr	r3, [r4]
 220 00ae 9903     		lsls	r1, r3, #14
 221 00b0 F7D4     		bmi	.L39
 222 00b2 ADE7     		b	.L29
 223              	.L25:
 224 00b4 704C     		ldr	r4, .L119
 225 00b6 6368     		ldr	r3, [r4, #4]
 226 00b8 13F00C0F 		tst	r3, #12
 227 00bc 07D0     		beq	.L41
 228 00be 6368     		ldr	r3, [r4, #4]
 229 00c0 03F00C03 		and	r3, r3, #12
 230 00c4 082B     		cmp	r3, #8
 231 00c6 11D1     		bne	.L42
ARM GAS  /tmp/ccYUArj0.s 			page 5


 232 00c8 6368     		ldr	r3, [r4, #4]
 233 00ca DA03     		lsls	r2, r3, #15
 234 00cc 0ED4     		bmi	.L42
 235              	.L41:
 236 00ce 2368     		ldr	r3, [r4]
 237 00d0 9B07     		lsls	r3, r3, #30
 238 00d2 03D5     		bpl	.L43
 239 00d4 2B69     		ldr	r3, [r5, #16]
 240 00d6 012B     		cmp	r3, #1
 241 00d8 40F02C81 		bne	.L89
 242              	.L43:
 243 00dc 2368     		ldr	r3, [r4]
 244 00de 6A69     		ldr	r2, [r5, #20]
 245 00e0 23F0F803 		bic	r3, r3, #248
 246 00e4 43EAC203 		orr	r3, r3, r2, lsl #3
 247 00e8 2360     		str	r3, [r4]
 248 00ea 26E0     		b	.L40
 249              	.L42:
 250 00ec 2A69     		ldr	r2, [r5, #16]
 251 00ee 634B     		ldr	r3, .L119+4
 252 00f0 B2B1     		cbz	r2, .L44
 253 00f2 0122     		movs	r2, #1
 254 00f4 1A60     		str	r2, [r3]
 255 00f6 FFF7FEFF 		bl	HAL_GetTick
 256 00fa 0646     		mov	r6, r0
 257              	.L45:
 258 00fc 2368     		ldr	r3, [r4]
 259 00fe 5E4A     		ldr	r2, .L119
 260 0100 9F07     		lsls	r7, r3, #30
 261 0102 05D4     		bmi	.L116
 262 0104 FFF7FEFF 		bl	HAL_GetTick
 263 0108 801B     		subs	r0, r0, r6
 264 010a 0228     		cmp	r0, #2
 265 010c F6D9     		bls	.L45
 266 010e C6E7     		b	.L38
 267              	.L116:
 268 0110 1368     		ldr	r3, [r2]
 269 0112 6969     		ldr	r1, [r5, #20]
 270 0114 23F0F803 		bic	r3, r3, #248
 271 0118 43EAC103 		orr	r3, r3, r1, lsl #3
 272 011c 1360     		str	r3, [r2]
 273 011e 0CE0     		b	.L40
 274              	.L44:
 275 0120 1A60     		str	r2, [r3]
 276 0122 FFF7FEFF 		bl	HAL_GetTick
 277 0126 0646     		mov	r6, r0
 278              	.L47:
 279 0128 2368     		ldr	r3, [r4]
 280 012a 9807     		lsls	r0, r3, #30
 281 012c 05D5     		bpl	.L40
 282 012e FFF7FEFF 		bl	HAL_GetTick
 283 0132 801B     		subs	r0, r0, r6
 284 0134 0228     		cmp	r0, #2
 285 0136 F7D9     		bls	.L47
 286 0138 B1E7     		b	.L38
 287              	.L40:
 288 013a 2B68     		ldr	r3, [r5]
ARM GAS  /tmp/ccYUArj0.s 			page 6


 289 013c 1907     		lsls	r1, r3, #28
 290 013e 03D4     		bmi	.L49
 291              	.L56:
 292 0140 2B68     		ldr	r3, [r5]
 293 0142 5A07     		lsls	r2, r3, #29
 294 0144 2DD4     		bmi	.L50
 295 0146 92E0     		b	.L59
 296              	.L49:
 297 0148 AA69     		ldr	r2, [r5, #24]
 298 014a 4B4C     		ldr	r4, .L119
 299 014c 4C4B     		ldr	r3, .L119+8
 300 014e DAB1     		cbz	r2, .L52
 301 0150 0122     		movs	r2, #1
 302 0152 1A60     		str	r2, [r3]
 303 0154 FFF7FEFF 		bl	HAL_GetTick
 304 0158 0646     		mov	r6, r0
 305              	.L53:
 306 015a 636A     		ldr	r3, [r4, #36]
 307 015c 9B07     		lsls	r3, r3, #30
 308 015e 05D4     		bmi	.L117
 309 0160 FFF7FEFF 		bl	HAL_GetTick
 310 0164 801B     		subs	r0, r0, r6
 311 0166 0228     		cmp	r0, #2
 312 0168 F7D9     		bls	.L53
 313 016a 98E7     		b	.L38
 314              	.L117:
 315 016c 454B     		ldr	r3, .L119+12
 316 016e 4FF4FA52 		mov	r2, #8000
 317 0172 1B68     		ldr	r3, [r3]
 318 0174 B3FBF2F3 		udiv	r3, r3, r2
 319 0178 0193     		str	r3, [sp, #4]
 320              	.L55:
 321              	@ 1370 "src/stm32f1xx_hal_rcc.c" 1
 322 017a 00BF     		nop
 323              	@ 0 "" 2
 324              		.thumb
 325 017c 019B     		ldr	r3, [sp, #4]
 326 017e 5A1E     		subs	r2, r3, #1
 327 0180 0192     		str	r2, [sp, #4]
 328 0182 002B     		cmp	r3, #0
 329 0184 F9D1     		bne	.L55
 330 0186 DBE7     		b	.L56
 331              	.L52:
 332 0188 1A60     		str	r2, [r3]
 333 018a FFF7FEFF 		bl	HAL_GetTick
 334 018e 0646     		mov	r6, r0
 335              	.L57:
 336 0190 636A     		ldr	r3, [r4, #36]
 337 0192 9F07     		lsls	r7, r3, #30
 338 0194 D4D5     		bpl	.L56
 339 0196 FFF7FEFF 		bl	HAL_GetTick
 340 019a 801B     		subs	r0, r0, r6
 341 019c 0228     		cmp	r0, #2
 342 019e F7D9     		bls	.L57
 343 01a0 7DE7     		b	.L38
 344              	.L50:
 345 01a2 354C     		ldr	r4, .L119
ARM GAS  /tmp/ccYUArj0.s 			page 7


 346 01a4 E369     		ldr	r3, [r4, #28]
 347 01a6 D800     		lsls	r0, r3, #3
 348 01a8 5FBF     		itttt	pl
 349 01aa E369     		ldrpl	r3, [r4, #28]
 350 01ac 0126     		movpl	r6, #1
 351 01ae 43F08053 		orrpl	r3, r3, #268435456
 352 01b2 E361     		strpl	r3, [r4, #28]
 353 01b4 57BF     		itett	pl
 354 01b6 E369     		ldrpl	r3, [r4, #28]
 355 01b8 0026     		movmi	r6, #0
 356 01ba 03F08053 		andpl	r3, r3, #268435456
 357 01be 0093     		strpl	r3, [sp]
 358 01c0 58BF     		it	pl
 359 01c2 009B     		ldrpl	r3, [sp]
 360 01c4 304B     		ldr	r3, .L119+16
 361 01c6 1A68     		ldr	r2, [r3]
 362 01c8 D105     		lsls	r1, r2, #23
 363 01ca 03D5     		bpl	.L61
 364              	.L66:
 365 01cc EB68     		ldr	r3, [r5, #12]
 366 01ce 012B     		cmp	r3, #1
 367 01d0 11D1     		bne	.L111
 368 01d2 23E0     		b	.L115
 369              	.L61:
 370 01d4 1A68     		ldr	r2, [r3]
 371 01d6 42F48072 		orr	r2, r2, #256
 372 01da 1A60     		str	r2, [r3]
 373 01dc FFF7FEFF 		bl	HAL_GetTick
 374 01e0 0746     		mov	r7, r0
 375              	.L64:
 376 01e2 294B     		ldr	r3, .L119+16
 377 01e4 1B68     		ldr	r3, [r3]
 378 01e6 DA05     		lsls	r2, r3, #23
 379 01e8 F0D4     		bmi	.L66
 380 01ea FFF7FEFF 		bl	HAL_GetTick
 381 01ee C01B     		subs	r0, r0, r7
 382 01f0 6428     		cmp	r0, #100
 383 01f2 F6D9     		bls	.L64
 384 01f4 53E7     		b	.L38
 385              	.L111:
 386 01f6 5BB9     		cbnz	r3, .L68
 387 01f8 236A     		ldr	r3, [r4, #32]
 388 01fa 23F00103 		bic	r3, r3, #1
 389 01fe 2362     		str	r3, [r4, #32]
 390 0200 236A     		ldr	r3, [r4, #32]
 391 0202 23F00403 		bic	r3, r3, #4
 392 0206 2362     		str	r3, [r4, #32]
 393 0208 FFF7FEFF 		bl	HAL_GetTick
 394 020c 0746     		mov	r7, r0
 395 020e 26E0     		b	.L69
 396              	.L68:
 397 0210 052B     		cmp	r3, #5
 398 0212 236A     		ldr	r3, [r4, #32]
 399 0214 06D1     		bne	.L70
 400 0216 43F00403 		orr	r3, r3, #4
 401 021a 2362     		str	r3, [r4, #32]
 402              	.L115:
ARM GAS  /tmp/ccYUArj0.s 			page 8


 403 021c 236A     		ldr	r3, [r4, #32]
 404 021e 43F00103 		orr	r3, r3, #1
 405 0222 05E0     		b	.L113
 406              	.L70:
 407 0224 23F00103 		bic	r3, r3, #1
 408 0228 2362     		str	r3, [r4, #32]
 409 022a 236A     		ldr	r3, [r4, #32]
 410 022c 23F00403 		bic	r3, r3, #4
 411              	.L113:
 412 0230 2362     		str	r3, [r4, #32]
 413 0232 FFF7FEFF 		bl	HAL_GetTick
 414 0236 0746     		mov	r7, r0
 415              	.L86:
 416 0238 236A     		ldr	r3, [r4, #32]
 417 023a 9B07     		lsls	r3, r3, #30
 418 023c 12D4     		bmi	.L74
 419 023e FFF7FEFF 		bl	HAL_GetTick
 420 0242 41F28833 		movw	r3, #5000
 421 0246 C01B     		subs	r0, r0, r7
 422 0248 9842     		cmp	r0, r3
 423 024a F5D9     		bls	.L86
 424 024c 27E7     		b	.L38
 425              	.L73:
 426 024e FFF7FEFF 		bl	HAL_GetTick
 427 0252 41F28833 		movw	r3, #5000
 428 0256 C01B     		subs	r0, r0, r7
 429 0258 9842     		cmp	r0, r3
 430 025a 3FF620AF 		bhi	.L38
 431              	.L69:
 432 025e 236A     		ldr	r3, [r4, #32]
 433 0260 9807     		lsls	r0, r3, #30
 434 0262 F4D4     		bmi	.L73
 435              	.L74:
 436 0264 1EB1     		cbz	r6, .L59
 437 0266 E369     		ldr	r3, [r4, #28]
 438 0268 23F08053 		bic	r3, r3, #268435456
 439 026c E361     		str	r3, [r4, #28]
 440              	.L59:
 441 026e E869     		ldr	r0, [r5, #28]
 442 0270 60B9     		cbnz	r0, .L75
 443              	.L83:
 444 0272 0020     		movs	r0, #0
 445 0274 5FE0     		b	.L110
 446              	.L120:
 447 0276 00BF     		.align	2
 448              	.L119:
 449 0278 00100240 		.word	1073876992
 450 027c 00004242 		.word	1111621632
 451 0280 80044242 		.word	1111622784
 452 0284 00000000 		.word	SystemCoreClock
 453 0288 00700040 		.word	1073770496
 454              	.L75:
 455 028c 2B4B     		ldr	r3, .L121
 456 028e 5A68     		ldr	r2, [r3, #4]
 457 0290 1C46     		mov	r4, r3
 458 0292 02F00C02 		and	r2, r2, #12
 459 0296 082A     		cmp	r2, #8
ARM GAS  /tmp/ccYUArj0.s 			page 9


 460 0298 3DD0     		beq	.L76
 461 029a 294E     		ldr	r6, .L121+4
 462 029c 0023     		movs	r3, #0
 463 029e 0228     		cmp	r0, #2
 464 02a0 3360     		str	r3, [r6]
 465 02a2 2CD1     		bne	.L77
 466 02a4 FFF7FEFF 		bl	HAL_GetTick
 467 02a8 0746     		mov	r7, r0
 468              	.L78:
 469 02aa 2268     		ldr	r2, [r4]
 470 02ac 234B     		ldr	r3, .L121
 471 02ae 9101     		lsls	r1, r2, #6
 472 02b0 05D5     		bpl	.L118
 473 02b2 FFF7FEFF 		bl	HAL_GetTick
 474 02b6 C01B     		subs	r0, r0, r7
 475 02b8 0228     		cmp	r0, #2
 476 02ba F6D9     		bls	.L78
 477 02bc EFE6     		b	.L38
 478              	.L118:
 479 02be 2F6A     		ldr	r7, [r5, #32]
 480 02c0 B7F5803F 		cmp	r7, #65536
 481 02c4 01BF     		itttt	eq
 482 02c6 D96A     		ldreq	r1, [r3, #44]
 483 02c8 21F00F00 		biceq	r0, r1, #15
 484 02cc A968     		ldreq	r1, [r5, #8]
 485 02ce 0143     		orreq	r1, r1, r0
 486 02d0 08BF     		it	eq
 487 02d2 D962     		streq	r1, [r3, #44]
 488 02d4 6A6A     		ldr	r2, [r5, #36]
 489 02d6 6368     		ldr	r3, [r4, #4]
 490 02d8 3A43     		orrs	r2, r2, r7
 491 02da 23F47413 		bic	r3, r3, #3997696
 492 02de 1343     		orrs	r3, r3, r2
 493 02e0 6360     		str	r3, [r4, #4]
 494 02e2 0123     		movs	r3, #1
 495 02e4 3360     		str	r3, [r6]
 496 02e6 FFF7FEFF 		bl	HAL_GetTick
 497 02ea 0546     		mov	r5, r0
 498              	.L81:
 499 02ec 2368     		ldr	r3, [r4]
 500 02ee 9A01     		lsls	r2, r3, #6
 501 02f0 BFD4     		bmi	.L83
 502 02f2 FFF7FEFF 		bl	HAL_GetTick
 503 02f6 401B     		subs	r0, r0, r5
 504 02f8 0228     		cmp	r0, #2
 505 02fa F7D9     		bls	.L81
 506 02fc CFE6     		b	.L38
 507              	.L77:
 508 02fe FFF7FEFF 		bl	HAL_GetTick
 509 0302 0546     		mov	r5, r0
 510              	.L84:
 511 0304 2368     		ldr	r3, [r4]
 512 0306 9B01     		lsls	r3, r3, #6
 513 0308 B3D5     		bpl	.L83
 514 030a FFF7FEFF 		bl	HAL_GetTick
 515 030e 401B     		subs	r0, r0, r5
 516 0310 0228     		cmp	r0, #2
ARM GAS  /tmp/ccYUArj0.s 			page 10


 517 0312 F7D9     		bls	.L84
 518 0314 C3E6     		b	.L38
 519              	.L76:
 520 0316 0128     		cmp	r0, #1
 521 0318 0DD0     		beq	.L110
 522 031a 5868     		ldr	r0, [r3, #4]
 523 031c 2B6A     		ldr	r3, [r5, #32]
 524 031e 00F48032 		and	r2, r0, #65536
 525 0322 9A42     		cmp	r2, r3
 526 0324 06D1     		bne	.L89
 527 0326 6B6A     		ldr	r3, [r5, #36]
 528 0328 00F47010 		and	r0, r0, #3932160
 529 032c C01A     		subs	r0, r0, r3
 530 032e 18BF     		it	ne
 531 0330 0120     		movne	r0, #1
 532 0332 00E0     		b	.L110
 533              	.L89:
 534 0334 0120     		movs	r0, #1
 535              	.L110:
 536 0336 03B0     		add	sp, sp, #12
 537              		@ sp needed
 538 0338 F0BD     		pop	{r4, r5, r6, r7, pc}
 539              	.L122:
 540 033a 00BF     		.align	2
 541              	.L121:
 542 033c 00100240 		.word	1073876992
 543 0340 60004242 		.word	1111621728
 545              		.section	.text.HAL_RCC_MCOConfig,"ax",%progbits
 546              		.align	1
 547              		.global	HAL_RCC_MCOConfig
 548              		.thumb
 549              		.thumb_func
 551              	HAL_RCC_MCOConfig:
 552              		@ args = 0, pretend = 0, frame = 24
 553              		@ frame_needed = 0, uses_anonymous_args = 0
 554 0000 30B5     		push	{r4, r5, lr}
 555 0002 87B0     		sub	sp, sp, #28
 556 0004 0D46     		mov	r5, r1
 557 0006 1022     		movs	r2, #16
 558 0008 02A8     		add	r0, sp, #8
 559 000a 0021     		movs	r1, #0
 560 000c FFF7FEFF 		bl	memset
 561 0010 0223     		movs	r3, #2
 562 0012 0393     		str	r3, [sp, #12]
 563 0014 0323     		movs	r3, #3
 564 0016 0593     		str	r3, [sp, #20]
 565 0018 0B4C     		ldr	r4, .L124
 566 001a 4FF48073 		mov	r3, #256
 567 001e 0293     		str	r3, [sp, #8]
 568 0020 A369     		ldr	r3, [r4, #24]
 569 0022 02A9     		add	r1, sp, #8
 570 0024 43F00403 		orr	r3, r3, #4
 571 0028 A361     		str	r3, [r4, #24]
 572 002a A369     		ldr	r3, [r4, #24]
 573 002c 0748     		ldr	r0, .L124+4
 574 002e 03F00403 		and	r3, r3, #4
 575 0032 0193     		str	r3, [sp, #4]
ARM GAS  /tmp/ccYUArj0.s 			page 11


 576 0034 019B     		ldr	r3, [sp, #4]
 577 0036 FFF7FEFF 		bl	HAL_GPIO_Init
 578 003a 6168     		ldr	r1, [r4, #4]
 579 003c 21F0E061 		bic	r1, r1, #117440512
 580 0040 2943     		orrs	r1, r1, r5
 581 0042 6160     		str	r1, [r4, #4]
 582 0044 07B0     		add	sp, sp, #28
 583              		@ sp needed
 584 0046 30BD     		pop	{r4, r5, pc}
 585              	.L125:
 586              		.align	2
 587              	.L124:
 588 0048 00100240 		.word	1073876992
 589 004c 00080140 		.word	1073809408
 591              		.section	.text.HAL_RCC_EnableCSS,"ax",%progbits
 592              		.align	1
 593              		.global	HAL_RCC_EnableCSS
 594              		.thumb
 595              		.thumb_func
 597              	HAL_RCC_EnableCSS:
 598              		@ args = 0, pretend = 0, frame = 0
 599              		@ frame_needed = 0, uses_anonymous_args = 0
 600              		@ link register save eliminated.
 601 0000 014B     		ldr	r3, .L127
 602 0002 0122     		movs	r2, #1
 603 0004 1A60     		str	r2, [r3]
 604 0006 7047     		bx	lr
 605              	.L128:
 606              		.align	2
 607              	.L127:
 608 0008 4C004242 		.word	1111621708
 610              		.section	.text.HAL_RCC_DisableCSS,"ax",%progbits
 611              		.align	1
 612              		.global	HAL_RCC_DisableCSS
 613              		.thumb
 614              		.thumb_func
 616              	HAL_RCC_DisableCSS:
 617              		@ args = 0, pretend = 0, frame = 0
 618              		@ frame_needed = 0, uses_anonymous_args = 0
 619              		@ link register save eliminated.
 620 0000 014B     		ldr	r3, .L130
 621 0002 0022     		movs	r2, #0
 622 0004 1A60     		str	r2, [r3]
 623 0006 7047     		bx	lr
 624              	.L131:
 625              		.align	2
 626              	.L130:
 627 0008 4C004242 		.word	1111621708
 629              		.section	.text.HAL_RCC_GetSysClockFreq,"ax",%progbits
 630              		.align	1
 631              		.global	HAL_RCC_GetSysClockFreq
 632              		.thumb
 633              		.thumb_func
 635              	HAL_RCC_GetSysClockFreq:
 636              		@ args = 0, pretend = 0, frame = 32
 637              		@ frame_needed = 0, uses_anonymous_args = 0
 638 0000 30B5     		push	{r4, r5, lr}
ARM GAS  /tmp/ccYUArj0.s 			page 12


 639 0002 89B0     		sub	sp, sp, #36
 640 0004 6C46     		mov	r4, sp
 641 0006 1E4B     		ldr	r3, .L142
 642 0008 03F11005 		add	r5, r3, #16
 643              	.L133:
 644 000c 2246     		mov	r2, r4
 645 000e 1868     		ldr	r0, [r3]	@ unaligned
 646 0010 5968     		ldr	r1, [r3, #4]	@ unaligned
 647 0012 0833     		adds	r3, r3, #8
 648 0014 03C2     		stmia	r2!, {r0, r1}
 649 0016 AB42     		cmp	r3, r5
 650 0018 1446     		mov	r4, r2
 651 001a F7D1     		bne	.L133
 652 001c 194B     		ldr	r3, .L142+4
 653 001e 04AC     		add	r4, sp, #16
 654 0020 03F11005 		add	r5, r3, #16
 655              	.L134:
 656 0024 2246     		mov	r2, r4
 657 0026 1868     		ldr	r0, [r3]	@ unaligned
 658 0028 5968     		ldr	r1, [r3, #4]	@ unaligned
 659 002a 0833     		adds	r3, r3, #8
 660 002c 03C2     		stmia	r2!, {r0, r1}
 661 002e AB42     		cmp	r3, r5
 662 0030 1446     		mov	r4, r2
 663 0032 F7D1     		bne	.L134
 664 0034 1449     		ldr	r1, .L142+8
 665 0036 4B68     		ldr	r3, [r1, #4]
 666 0038 03F00C02 		and	r2, r3, #12
 667 003c 042A     		cmp	r2, #4
 668 003e 1BD0     		beq	.L139
 669 0040 082A     		cmp	r2, #8
 670 0042 01D0     		beq	.L137
 671 0044 1148     		ldr	r0, .L142+12
 672 0046 18E0     		b	.L136
 673              	.L137:
 674 0048 C3F38342 		ubfx	r2, r3, #18, #4
 675 004c 08A8     		add	r0, sp, #32
 676 004e DB03     		lsls	r3, r3, #15
 677 0050 0244     		add	r2, r2, r0
 678 0052 12F8200C 		ldrb	r0, [r2, #-32]	@ zero_extendqisi2
 679 0056 41BF     		itttt	mi
 680 0058 0D4B     		ldrmi	r3, .L142+16
 681 005a CA6A     		ldrmi	r2, [r1, #44]
 682 005c 5843     		mulmi	r0, r3, r0
 683 005e 02F00F03 		andmi	r3, r2, #15
 684 0062 43BF     		ittte	mi
 685 0064 08AA     		addmi	r2, sp, #32
 686 0066 9B18     		addmi	r3, r3, r2
 687 0068 13F8103C 		ldrbmi	r3, [r3, #-16]	@ zero_extendqisi2
 688 006c 094B     		ldrpl	r3, .L142+20
 689 006e 4CBF     		ite	mi
 690 0070 B0FBF3F0 		udivmi	r0, r0, r3
 691 0074 5843     		mulpl	r0, r3, r0
 692 0076 00E0     		b	.L136
 693              	.L139:
 694 0078 0548     		ldr	r0, .L142+16
 695              	.L136:
ARM GAS  /tmp/ccYUArj0.s 			page 13


 696 007a 09B0     		add	sp, sp, #36
 697              		@ sp needed
 698 007c 30BD     		pop	{r4, r5, pc}
 699              	.L143:
 700 007e 00BF     		.align	2
 701              	.L142:
 702 0080 00000000 		.word	.LANCHOR0
 703 0084 10000000 		.word	.LANCHOR0+16
 704 0088 00100240 		.word	1073876992
 705 008c 00127A00 		.word	8000000
 706 0090 0024F400 		.word	16000000
 707 0094 00093D00 		.word	4000000
 709              		.section	.text.HAL_RCC_ClockConfig,"ax",%progbits
 710              		.align	1
 711              		.global	HAL_RCC_ClockConfig
 712              		.thumb
 713              		.thumb_func
 715              	HAL_RCC_ClockConfig:
 716              		@ args = 0, pretend = 0, frame = 0
 717              		@ frame_needed = 0, uses_anonymous_args = 0
 718 0000 70B5     		push	{r4, r5, r6, lr}
 719 0002 0546     		mov	r5, r0
 720 0004 08B9     		cbnz	r0, .L145
 721              	.L154:
 722 0006 0120     		movs	r0, #1
 723 0008 70BD     		pop	{r4, r5, r6, pc}
 724              	.L145:
 725 000a 0368     		ldr	r3, [r0]
 726 000c 314C     		ldr	r4, .L186
 727 000e 13F0020F 		tst	r3, #2
 728 0012 11D0     		beq	.L147
 729 0014 5E07     		lsls	r6, r3, #29
 730 0016 42BF     		ittt	mi
 731 0018 6268     		ldrmi	r2, [r4, #4]
 732 001a 42F4E062 		orrmi	r2, r2, #1792
 733 001e 6260     		strmi	r2, [r4, #4]
 734 0020 1807     		lsls	r0, r3, #28
 735 0022 42BF     		ittt	mi
 736 0024 6268     		ldrmi	r2, [r4, #4]
 737 0026 42F46052 		orrmi	r2, r2, #14336
 738 002a 6260     		strmi	r2, [r4, #4]
 739 002c 6268     		ldr	r2, [r4, #4]
 740 002e 22F0F001 		bic	r1, r2, #240
 741 0032 AA68     		ldr	r2, [r5, #8]
 742 0034 0A43     		orrs	r2, r2, r1
 743 0036 6260     		str	r2, [r4, #4]
 744              	.L147:
 745 0038 D907     		lsls	r1, r3, #31
 746 003a 09D4     		bmi	.L150
 747              	.L159:
 748 003c 2968     		ldr	r1, [r5]
 749 003e 4A07     		lsls	r2, r1, #29
 750 0040 2DD5     		bpl	.L152
 751 0042 6368     		ldr	r3, [r4, #4]
 752 0044 23F4E062 		bic	r2, r3, #1792
 753 0048 EB68     		ldr	r3, [r5, #12]
 754 004a 1343     		orrs	r3, r3, r2
ARM GAS  /tmp/ccYUArj0.s 			page 14


 755 004c 6360     		str	r3, [r4, #4]
 756 004e 26E0     		b	.L152
 757              	.L150:
 758 0050 6B68     		ldr	r3, [r5, #4]
 759 0052 2268     		ldr	r2, [r4]
 760 0054 012B     		cmp	r3, #1
 761 0056 02D1     		bne	.L153
 762 0058 12F4003F 		tst	r2, #131072
 763 005c 06E0     		b	.L184
 764              	.L153:
 765 005e 022B     		cmp	r3, #2
 766 0060 02D1     		bne	.L156
 767 0062 12F0007F 		tst	r2, #33554432
 768 0066 01E0     		b	.L184
 769              	.L156:
 770 0068 12F0020F 		tst	r2, #2
 771              	.L184:
 772 006c CBD0     		beq	.L154
 773 006e 6268     		ldr	r2, [r4, #4]
 774 0070 22F00302 		bic	r2, r2, #3
 775 0074 1343     		orrs	r3, r3, r2
 776 0076 6360     		str	r3, [r4, #4]
 777 0078 FFF7FEFF 		bl	HAL_GetTick
 778 007c 0646     		mov	r6, r0
 779              	.L157:
 780 007e 6368     		ldr	r3, [r4, #4]
 781 0080 6A68     		ldr	r2, [r5, #4]
 782 0082 03F00C03 		and	r3, r3, #12
 783 0086 B3EB820F 		cmp	r3, r2, lsl #2
 784 008a D7D0     		beq	.L159
 785 008c FFF7FEFF 		bl	HAL_GetTick
 786 0090 41F28833 		movw	r3, #5000
 787 0094 801B     		subs	r0, r0, r6
 788 0096 9842     		cmp	r0, r3
 789 0098 F1D9     		bls	.L157
 790 009a 0320     		movs	r0, #3
 791 009c 70BD     		pop	{r4, r5, r6, pc}
 792              	.L152:
 793 009e 0B07     		lsls	r3, r1, #28
 794 00a0 41BF     		itttt	mi
 795 00a2 6368     		ldrmi	r3, [r4, #4]
 796 00a4 2A69     		ldrmi	r2, [r5, #16]
 797 00a6 23F46053 		bicmi	r3, r3, #14336
 798 00aa 43EAC203 		orrmi	r3, r3, r2, lsl #3
 799 00ae 48BF     		it	mi
 800 00b0 6360     		strmi	r3, [r4, #4]
 801 00b2 FFF7FEFF 		bl	HAL_RCC_GetSysClockFreq
 802 00b6 6368     		ldr	r3, [r4, #4]
 803 00b8 074A     		ldr	r2, .L186+4
 804 00ba C3F30313 		ubfx	r3, r3, #4, #4
 805 00be D35C     		ldrb	r3, [r2, r3]	@ zero_extendqisi2
 806 00c0 D840     		lsrs	r0, r0, r3
 807 00c2 064B     		ldr	r3, .L186+8
 808 00c4 1860     		str	r0, [r3]
 809 00c6 064B     		ldr	r3, .L186+12
 810 00c8 1868     		ldr	r0, [r3]
 811 00ca FFF7FEFF 		bl	HAL_InitTick
ARM GAS  /tmp/ccYUArj0.s 			page 15


 812 00ce 0020     		movs	r0, #0
 813 00d0 70BD     		pop	{r4, r5, r6, pc}
 814              	.L187:
 815 00d2 00BF     		.align	2
 816              	.L186:
 817 00d4 00100240 		.word	1073876992
 818 00d8 00000000 		.word	AHBPrescTable
 819 00dc 00000000 		.word	SystemCoreClock
 820 00e0 00000000 		.word	uwTickPrio
 822              		.section	.text.HAL_RCC_GetHCLKFreq,"ax",%progbits
 823              		.align	1
 824              		.global	HAL_RCC_GetHCLKFreq
 825              		.thumb
 826              		.thumb_func
 828              	HAL_RCC_GetHCLKFreq:
 829              		@ args = 0, pretend = 0, frame = 0
 830              		@ frame_needed = 0, uses_anonymous_args = 0
 831              		@ link register save eliminated.
 832 0000 014B     		ldr	r3, .L189
 833 0002 1868     		ldr	r0, [r3]
 834 0004 7047     		bx	lr
 835              	.L190:
 836 0006 00BF     		.align	2
 837              	.L189:
 838 0008 00000000 		.word	SystemCoreClock
 840              		.section	.text.HAL_RCC_GetPCLK1Freq,"ax",%progbits
 841              		.align	1
 842              		.global	HAL_RCC_GetPCLK1Freq
 843              		.thumb
 844              		.thumb_func
 846              	HAL_RCC_GetPCLK1Freq:
 847              		@ args = 0, pretend = 0, frame = 0
 848              		@ frame_needed = 0, uses_anonymous_args = 0
 849              		@ link register save eliminated.
 850 0000 044B     		ldr	r3, .L192
 851 0002 054A     		ldr	r2, .L192+4
 852 0004 5B68     		ldr	r3, [r3, #4]
 853 0006 C3F30223 		ubfx	r3, r3, #8, #3
 854 000a D35C     		ldrb	r3, [r2, r3]	@ zero_extendqisi2
 855 000c 034A     		ldr	r2, .L192+8
 856 000e 1068     		ldr	r0, [r2]
 857 0010 D840     		lsrs	r0, r0, r3
 858 0012 7047     		bx	lr
 859              	.L193:
 860              		.align	2
 861              	.L192:
 862 0014 00100240 		.word	1073876992
 863 0018 00000000 		.word	APBPrescTable
 864 001c 00000000 		.word	SystemCoreClock
 866              		.section	.text.HAL_RCC_GetPCLK2Freq,"ax",%progbits
 867              		.align	1
 868              		.global	HAL_RCC_GetPCLK2Freq
 869              		.thumb
 870              		.thumb_func
 872              	HAL_RCC_GetPCLK2Freq:
 873              		@ args = 0, pretend = 0, frame = 0
 874              		@ frame_needed = 0, uses_anonymous_args = 0
ARM GAS  /tmp/ccYUArj0.s 			page 16


 875              		@ link register save eliminated.
 876 0000 044B     		ldr	r3, .L195
 877 0002 054A     		ldr	r2, .L195+4
 878 0004 5B68     		ldr	r3, [r3, #4]
 879 0006 C3F3C223 		ubfx	r3, r3, #11, #3
 880 000a D35C     		ldrb	r3, [r2, r3]	@ zero_extendqisi2
 881 000c 034A     		ldr	r2, .L195+8
 882 000e 1068     		ldr	r0, [r2]
 883 0010 D840     		lsrs	r0, r0, r3
 884 0012 7047     		bx	lr
 885              	.L196:
 886              		.align	2
 887              	.L195:
 888 0014 00100240 		.word	1073876992
 889 0018 00000000 		.word	APBPrescTable
 890 001c 00000000 		.word	SystemCoreClock
 892              		.section	.text.HAL_RCC_GetOscConfig,"ax",%progbits
 893              		.align	1
 894              		.global	HAL_RCC_GetOscConfig
 895              		.thumb
 896              		.thumb_func
 898              	HAL_RCC_GetOscConfig:
 899              		@ args = 0, pretend = 0, frame = 0
 900              		@ frame_needed = 0, uses_anonymous_args = 0
 901              		@ link register save eliminated.
 902 0000 0F23     		movs	r3, #15
 903 0002 0360     		str	r3, [r0]
 904 0004 1E4B     		ldr	r3, .L211
 905 0006 1A68     		ldr	r2, [r3]
 906 0008 5203     		lsls	r2, r2, #13
 907 000a 02D5     		bpl	.L198
 908 000c 4FF4A022 		mov	r2, #327680
 909 0010 05E0     		b	.L200
 910              	.L198:
 911 0012 1A68     		ldr	r2, [r3]
 912 0014 12F48032 		ands	r2, r2, #65536
 913 0018 18BF     		it	ne
 914 001a 4FF48032 		movne	r2, #65536
 915              	.L200:
 916 001e 4260     		str	r2, [r0, #4]
 917 0020 DA6A     		ldr	r2, [r3, #44]
 918 0022 02F00F02 		and	r2, r2, #15
 919 0026 8260     		str	r2, [r0, #8]
 920 0028 1A68     		ldr	r2, [r3]
 921 002a 12F00102 		ands	r2, r2, #1
 922 002e 18BF     		it	ne
 923 0030 0122     		movne	r2, #1
 924 0032 0261     		str	r2, [r0, #16]
 925 0034 1A68     		ldr	r2, [r3]
 926 0036 C2F3C402 		ubfx	r2, r2, #3, #5
 927 003a 4261     		str	r2, [r0, #20]
 928 003c 1A6A     		ldr	r2, [r3, #32]
 929 003e 5107     		lsls	r1, r2, #29
 930 0040 01D5     		bpl	.L203
 931 0042 0522     		movs	r2, #5
 932 0044 05E0     		b	.L205
 933              	.L203:
ARM GAS  /tmp/ccYUArj0.s 			page 17


 934 0046 0E4A     		ldr	r2, .L211
 935 0048 126A     		ldr	r2, [r2, #32]
 936 004a 12F00102 		ands	r2, r2, #1
 937 004e 18BF     		it	ne
 938 0050 0122     		movne	r2, #1
 939              	.L205:
 940 0052 C260     		str	r2, [r0, #12]
 941 0054 5A6A     		ldr	r2, [r3, #36]
 942 0056 12F00102 		ands	r2, r2, #1
 943 005a 18BF     		it	ne
 944 005c 0122     		movne	r2, #1
 945 005e 8261     		str	r2, [r0, #24]
 946 0060 1A68     		ldr	r2, [r3]
 947 0062 D201     		lsls	r2, r2, #7
 948 0064 4CBF     		ite	mi
 949 0066 0222     		movmi	r2, #2
 950 0068 0122     		movpl	r2, #1
 951 006a C261     		str	r2, [r0, #28]
 952 006c 5A68     		ldr	r2, [r3, #4]
 953 006e 02F48032 		and	r2, r2, #65536
 954 0072 0262     		str	r2, [r0, #32]
 955 0074 5B68     		ldr	r3, [r3, #4]
 956 0076 03F47013 		and	r3, r3, #3932160
 957 007a 4362     		str	r3, [r0, #36]
 958 007c 7047     		bx	lr
 959              	.L212:
 960 007e 00BF     		.align	2
 961              	.L211:
 962 0080 00100240 		.word	1073876992
 964              		.section	.text.HAL_RCC_GetClockConfig,"ax",%progbits
 965              		.align	1
 966              		.global	HAL_RCC_GetClockConfig
 967              		.thumb
 968              		.thumb_func
 970              	HAL_RCC_GetClockConfig:
 971              		@ args = 0, pretend = 0, frame = 0
 972              		@ frame_needed = 0, uses_anonymous_args = 0
 973              		@ link register save eliminated.
 974 0000 0F23     		movs	r3, #15
 975 0002 0360     		str	r3, [r0]
 976 0004 0A4B     		ldr	r3, .L214
 977 0006 5A68     		ldr	r2, [r3, #4]
 978 0008 02F00302 		and	r2, r2, #3
 979 000c 4260     		str	r2, [r0, #4]
 980 000e 5A68     		ldr	r2, [r3, #4]
 981 0010 02F0F002 		and	r2, r2, #240
 982 0014 8260     		str	r2, [r0, #8]
 983 0016 5A68     		ldr	r2, [r3, #4]
 984 0018 02F4E062 		and	r2, r2, #1792
 985 001c C260     		str	r2, [r0, #12]
 986 001e 5B68     		ldr	r3, [r3, #4]
 987 0020 03F46053 		and	r3, r3, #14336
 988 0024 DB08     		lsrs	r3, r3, #3
 989 0026 0361     		str	r3, [r0, #16]
 990 0028 0023     		movs	r3, #0
 991 002a 0B60     		str	r3, [r1]
 992 002c 7047     		bx	lr
ARM GAS  /tmp/ccYUArj0.s 			page 18


 993              	.L215:
 994 002e 00BF     		.align	2
 995              	.L214:
 996 0030 00100240 		.word	1073876992
 998              		.section	.text.HAL_RCC_CSSCallback,"ax",%progbits
 999              		.align	1
 1000              		.weak	HAL_RCC_CSSCallback
 1001              		.thumb
 1002              		.thumb_func
 1004              	HAL_RCC_CSSCallback:
 1005              		@ args = 0, pretend = 0, frame = 0
 1006              		@ frame_needed = 0, uses_anonymous_args = 0
 1007              		@ link register save eliminated.
 1008 0000 7047     		bx	lr
 1010              		.section	.text.HAL_RCC_NMI_IRQHandler,"ax",%progbits
 1011              		.align	1
 1012              		.global	HAL_RCC_NMI_IRQHandler
 1013              		.thumb
 1014              		.thumb_func
 1016              	HAL_RCC_NMI_IRQHandler:
 1017              		@ args = 0, pretend = 0, frame = 0
 1018              		@ frame_needed = 0, uses_anonymous_args = 0
 1019 0000 08B5     		push	{r3, lr}
 1020 0002 054B     		ldr	r3, .L222
 1021 0004 9B68     		ldr	r3, [r3, #8]
 1022 0006 1B06     		lsls	r3, r3, #24
 1023 0008 04D5     		bpl	.L217
 1024 000a FFF7FEFF 		bl	HAL_RCC_CSSCallback
 1025 000e 034B     		ldr	r3, .L222+4
 1026 0010 8022     		movs	r2, #128
 1027 0012 1A70     		strb	r2, [r3]
 1028              	.L217:
 1029 0014 08BD     		pop	{r3, pc}
 1030              	.L223:
 1031 0016 00BF     		.align	2
 1032              	.L222:
 1033 0018 00100240 		.word	1073876992
 1034 001c 0A100240 		.word	1073877002
 1036              		.section	.rodata
 1037              		.set	.LANCHOR0,. + 0
 1038              	.LC0:
 1039 0000 02       		.byte	2
 1040 0001 03       		.byte	3
 1041 0002 04       		.byte	4
 1042 0003 05       		.byte	5
 1043 0004 06       		.byte	6
 1044 0005 07       		.byte	7
 1045 0006 08       		.byte	8
 1046 0007 09       		.byte	9
 1047 0008 0A       		.byte	10
 1048 0009 0B       		.byte	11
 1049 000a 0C       		.byte	12
 1050 000b 0D       		.byte	13
 1051 000c 0E       		.byte	14
 1052 000d 0F       		.byte	15
 1053 000e 10       		.byte	16
 1054 000f 10       		.byte	16
ARM GAS  /tmp/ccYUArj0.s 			page 19


 1055              	.LC1:
 1056 0010 01       		.byte	1
 1057 0011 02       		.byte	2
 1058 0012 03       		.byte	3
 1059 0013 04       		.byte	4
 1060 0014 05       		.byte	5
 1061 0015 06       		.byte	6
 1062 0016 07       		.byte	7
 1063 0017 08       		.byte	8
 1064 0018 09       		.byte	9
 1065 0019 0A       		.byte	10
 1066 001a 0B       		.byte	11
 1067 001b 0C       		.byte	12
 1068 001c 0D       		.byte	13
 1069 001d 0E       		.byte	14
 1070 001e 0F       		.byte	15
 1071 001f 10       		.byte	16
 1072              		.ident	"GCC: (15:4.9.3+svn231177-1) 4.9.3 20150529 (prerelease)"
ARM GAS  /tmp/ccYUArj0.s 			page 20

