ARM GAS  /tmp/ccOz2YRp.s 			page 1


   1              		.syntax unified
   2              		.cpu cortex-m3
   3              		.fpu softvfp
   4              		.eabi_attribute 20, 1
   5              		.eabi_attribute 21, 1
   6              		.eabi_attribute 23, 3
   7              		.eabi_attribute 24, 1
   8              		.eabi_attribute 25, 1
   9              		.eabi_attribute 26, 1
  10              		.eabi_attribute 30, 4
  11              		.eabi_attribute 34, 1
  12              		.eabi_attribute 18, 4
  13              		.thumb
  14              		.file	"stm32f1xx_hal_tim.c"
  15              		.section	.text.TIM_OC1_SetConfig,"ax",%progbits
  16              		.align	1
  17              		.thumb
  18              		.thumb_func
  20              	TIM_OC1_SetConfig:
  21              		@ args = 0, pretend = 0, frame = 0
  22              		@ frame_needed = 0, uses_anonymous_args = 0
  23 0000 036A     		ldr	r3, [r0, #32]
  24 0002 70B5     		push	{r4, r5, r6, lr}
  25 0004 23F00103 		bic	r3, r3, #1
  26 0008 0362     		str	r3, [r0, #32]
  27 000a 036A     		ldr	r3, [r0, #32]
  28 000c 4268     		ldr	r2, [r0, #4]
  29 000e 8469     		ldr	r4, [r0, #24]
  30 0010 0D68     		ldr	r5, [r1]
  31 0012 24F07304 		bic	r4, r4, #115
  32 0016 2543     		orrs	r5, r5, r4
  33 0018 8C68     		ldr	r4, [r1, #8]
  34 001a 23F00203 		bic	r3, r3, #2
  35 001e 2343     		orrs	r3, r3, r4
  36 0020 174C     		ldr	r4, .L6
  37 0022 A042     		cmp	r0, r4
  38 0024 0BD0     		beq	.L2
  39 0026 04F5A054 		add	r4, r4, #5120
  40 002a A042     		cmp	r0, r4
  41 002c 07D0     		beq	.L2
  42 002e 04F58064 		add	r4, r4, #1024
  43 0032 A042     		cmp	r0, r4
  44 0034 03D0     		beq	.L2
  45 0036 04F58064 		add	r4, r4, #1024
  46 003a A042     		cmp	r0, r4
  47 003c 1AD1     		bne	.L3
  48              	.L2:
  49 003e CC68     		ldr	r4, [r1, #12]
  50 0040 23F00803 		bic	r3, r3, #8
  51 0044 2343     		orrs	r3, r3, r4
  52 0046 0E4C     		ldr	r4, .L6
  53 0048 23F00403 		bic	r3, r3, #4
  54 004c A042     		cmp	r0, r4
  55 004e 0BD0     		beq	.L4
  56 0050 04F5A054 		add	r4, r4, #5120
  57 0054 A042     		cmp	r0, r4
  58 0056 07D0     		beq	.L4
ARM GAS  /tmp/ccOz2YRp.s 			page 2


  59 0058 04F58064 		add	r4, r4, #1024
  60 005c A042     		cmp	r0, r4
  61 005e 03D0     		beq	.L4
  62 0060 04F58064 		add	r4, r4, #1024
  63 0064 A042     		cmp	r0, r4
  64 0066 05D1     		bne	.L3
  65              	.L4:
  66 0068 8E69     		ldr	r6, [r1, #24]
  67 006a 4C69     		ldr	r4, [r1, #20]
  68 006c 22F44072 		bic	r2, r2, #768
  69 0070 3443     		orrs	r4, r4, r6
  70 0072 2243     		orrs	r2, r2, r4
  71              	.L3:
  72 0074 4260     		str	r2, [r0, #4]
  73 0076 4A68     		ldr	r2, [r1, #4]
  74 0078 8561     		str	r5, [r0, #24]
  75 007a 4263     		str	r2, [r0, #52]
  76 007c 0362     		str	r3, [r0, #32]
  77 007e 70BD     		pop	{r4, r5, r6, pc}
  78              	.L7:
  79              		.align	2
  80              	.L6:
  81 0080 002C0140 		.word	1073818624
  83              		.section	.text.TIM_OC3_SetConfig,"ax",%progbits
  84              		.align	1
  85              		.thumb
  86              		.thumb_func
  88              	TIM_OC3_SetConfig:
  89              		@ args = 0, pretend = 0, frame = 0
  90              		@ frame_needed = 0, uses_anonymous_args = 0
  91 0000 036A     		ldr	r3, [r0, #32]
  92 0002 30B5     		push	{r4, r5, lr}
  93 0004 23F48073 		bic	r3, r3, #256
  94 0008 0362     		str	r3, [r0, #32]
  95 000a 036A     		ldr	r3, [r0, #32]
  96 000c 4268     		ldr	r2, [r0, #4]
  97 000e C469     		ldr	r4, [r0, #28]
  98 0010 0D68     		ldr	r5, [r1]
  99 0012 24F07304 		bic	r4, r4, #115
 100 0016 2C43     		orrs	r4, r4, r5
 101 0018 8D68     		ldr	r5, [r1, #8]
 102 001a 23F40073 		bic	r3, r3, #512
 103 001e 43EA0523 		orr	r3, r3, r5, lsl #8
 104 0022 124D     		ldr	r5, .L16
 105 0024 A842     		cmp	r0, r5
 106 0026 07D1     		bne	.L9
 107 0028 CD68     		ldr	r5, [r1, #12]
 108 002a 23F40063 		bic	r3, r3, #2048
 109 002e 43EA0523 		orr	r3, r3, r5, lsl #8
 110 0032 23F48063 		bic	r3, r3, #1024
 111 0036 05E0     		b	.L10
 112              	.L9:
 113 0038 0D4D     		ldr	r5, .L16+4
 114 003a A842     		cmp	r0, r5
 115 003c 02D0     		beq	.L10
 116 003e 0D4D     		ldr	r5, .L16+8
 117 0040 A842     		cmp	r0, r5
ARM GAS  /tmp/ccOz2YRp.s 			page 3


 118 0042 0DD1     		bne	.L15
 119              	.L10:
 120 0044 4D69     		ldr	r5, [r1, #20]
 121 0046 22F44052 		bic	r2, r2, #12288
 122 004a 42EA0512 		orr	r2, r2, r5, lsl #4
 123 004e 8D69     		ldr	r5, [r1, #24]
 124 0050 42EA0512 		orr	r2, r2, r5, lsl #4
 125              	.L11:
 126 0054 4260     		str	r2, [r0, #4]
 127 0056 4A68     		ldr	r2, [r1, #4]
 128 0058 C461     		str	r4, [r0, #28]
 129 005a C263     		str	r2, [r0, #60]
 130 005c 0362     		str	r3, [r0, #32]
 131 005e 30BD     		pop	{r4, r5, pc}
 132              	.L15:
 133 0060 05F58065 		add	r5, r5, #1024
 134 0064 A842     		cmp	r0, r5
 135 0066 F5D1     		bne	.L11
 136 0068 ECE7     		b	.L10
 137              	.L17:
 138 006a 00BF     		.align	2
 139              	.L16:
 140 006c 002C0140 		.word	1073818624
 141 0070 00400140 		.word	1073823744
 142 0074 00440140 		.word	1073824768
 144              		.section	.text.TIM_OC4_SetConfig,"ax",%progbits
 145              		.align	1
 146              		.thumb
 147              		.thumb_func
 149              	TIM_OC4_SetConfig:
 150              		@ args = 0, pretend = 0, frame = 0
 151              		@ frame_needed = 0, uses_anonymous_args = 0
 152 0000 036A     		ldr	r3, [r0, #32]
 153 0002 30B5     		push	{r4, r5, lr}
 154 0004 23F48053 		bic	r3, r3, #4096
 155 0008 0362     		str	r3, [r0, #32]
 156 000a 036A     		ldr	r3, [r0, #32]
 157 000c 4468     		ldr	r4, [r0, #4]
 158 000e C269     		ldr	r2, [r0, #28]
 159 0010 0D68     		ldr	r5, [r1]
 160 0012 22F4E642 		bic	r2, r2, #29440
 161 0016 42EA0522 		orr	r2, r2, r5, lsl #8
 162 001a 8D68     		ldr	r5, [r1, #8]
 163 001c 23F40053 		bic	r3, r3, #8192
 164 0020 43EA0533 		orr	r3, r3, r5, lsl #12
 165 0024 0C4D     		ldr	r5, .L21
 166 0026 A842     		cmp	r0, r5
 167 0028 0BD0     		beq	.L19
 168 002a 05F5A055 		add	r5, r5, #5120
 169 002e A842     		cmp	r0, r5
 170 0030 07D0     		beq	.L19
 171 0032 05F58065 		add	r5, r5, #1024
 172 0036 A842     		cmp	r0, r5
 173 0038 03D0     		beq	.L19
 174 003a 05F58065 		add	r5, r5, #1024
 175 003e A842     		cmp	r0, r5
 176 0040 04D1     		bne	.L20
ARM GAS  /tmp/ccOz2YRp.s 			page 4


 177              	.L19:
 178 0042 4D69     		ldr	r5, [r1, #20]
 179 0044 24F48044 		bic	r4, r4, #16384
 180 0048 44EA8514 		orr	r4, r4, r5, lsl #6
 181              	.L20:
 182 004c 4460     		str	r4, [r0, #4]
 183 004e C261     		str	r2, [r0, #28]
 184 0050 4A68     		ldr	r2, [r1, #4]
 185 0052 0264     		str	r2, [r0, #64]
 186 0054 0362     		str	r3, [r0, #32]
 187 0056 30BD     		pop	{r4, r5, pc}
 188              	.L22:
 189              		.align	2
 190              	.L21:
 191 0058 002C0140 		.word	1073818624
 193              		.section	.text.HAL_TIM_Base_MspInit,"ax",%progbits
 194              		.align	1
 195              		.weak	HAL_TIM_Base_MspInit
 196              		.thumb
 197              		.thumb_func
 199              	HAL_TIM_Base_MspInit:
 200              		@ args = 0, pretend = 0, frame = 0
 201              		@ frame_needed = 0, uses_anonymous_args = 0
 202              		@ link register save eliminated.
 203 0000 7047     		bx	lr
 205              		.section	.text.HAL_TIM_Base_MspDeInit,"ax",%progbits
 206              		.align	1
 207              		.weak	HAL_TIM_Base_MspDeInit
 208              		.thumb
 209              		.thumb_func
 211              	HAL_TIM_Base_MspDeInit:
 212              		@ args = 0, pretend = 0, frame = 0
 213              		@ frame_needed = 0, uses_anonymous_args = 0
 214              		@ link register save eliminated.
 215 0000 7047     		bx	lr
 217              		.section	.text.HAL_TIM_Base_DeInit,"ax",%progbits
 218              		.align	1
 219              		.global	HAL_TIM_Base_DeInit
 220              		.thumb
 221              		.thumb_func
 223              	HAL_TIM_Base_DeInit:
 224              		@ args = 0, pretend = 0, frame = 0
 225              		@ frame_needed = 0, uses_anonymous_args = 0
 226 0000 41F21112 		movw	r2, #4369
 227 0004 0223     		movs	r3, #2
 228 0006 10B5     		push	{r4, lr}
 229 0008 80F83D30 		strb	r3, [r0, #61]
 230 000c 0368     		ldr	r3, [r0]
 231 000e 0446     		mov	r4, r0
 232 0010 196A     		ldr	r1, [r3, #32]
 233 0012 0A40     		ands	r2, r2, r1
 234 0014 42B9     		cbnz	r2, .L26
 235 0016 40F24442 		movw	r2, #1092
 236 001a 196A     		ldr	r1, [r3, #32]
 237 001c 0A40     		ands	r2, r2, r1
 238 001e 1AB9     		cbnz	r2, .L26
 239 0020 1A68     		ldr	r2, [r3]
ARM GAS  /tmp/ccOz2YRp.s 			page 5


 240 0022 22F00102 		bic	r2, r2, #1
 241 0026 1A60     		str	r2, [r3]
 242              	.L26:
 243 0028 2046     		mov	r0, r4
 244 002a FFF7FEFF 		bl	HAL_TIM_Base_MspDeInit
 245 002e 0020     		movs	r0, #0
 246 0030 84F83D00 		strb	r0, [r4, #61]
 247 0034 84F83C00 		strb	r0, [r4, #60]
 248 0038 10BD     		pop	{r4, pc}
 250              		.section	.text.HAL_TIM_Base_Start,"ax",%progbits
 251              		.align	1
 252              		.global	HAL_TIM_Base_Start
 253              		.thumb
 254              		.thumb_func
 256              	HAL_TIM_Base_Start:
 257              		@ args = 0, pretend = 0, frame = 0
 258              		@ frame_needed = 0, uses_anonymous_args = 0
 259              		@ link register save eliminated.
 260 0000 0223     		movs	r3, #2
 261 0002 80F83D30 		strb	r3, [r0, #61]
 262 0006 0368     		ldr	r3, [r0]
 263 0008 9A68     		ldr	r2, [r3, #8]
 264 000a 02F00702 		and	r2, r2, #7
 265 000e 062A     		cmp	r2, #6
 266 0010 1EBF     		ittt	ne
 267 0012 1A68     		ldrne	r2, [r3]
 268 0014 42F00102 		orrne	r2, r2, #1
 269 0018 1A60     		strne	r2, [r3]
 270 001a 0123     		movs	r3, #1
 271 001c 80F83D30 		strb	r3, [r0, #61]
 272 0020 0020     		movs	r0, #0
 273 0022 7047     		bx	lr
 275              		.section	.text.HAL_TIM_Base_Stop,"ax",%progbits
 276              		.align	1
 277              		.global	HAL_TIM_Base_Stop
 278              		.thumb
 279              		.thumb_func
 281              	HAL_TIM_Base_Stop:
 282              		@ args = 0, pretend = 0, frame = 0
 283              		@ frame_needed = 0, uses_anonymous_args = 0
 284              		@ link register save eliminated.
 285 0000 41F21112 		movw	r2, #4369
 286 0004 0223     		movs	r3, #2
 287 0006 80F83D30 		strb	r3, [r0, #61]
 288 000a 0368     		ldr	r3, [r0]
 289 000c 196A     		ldr	r1, [r3, #32]
 290 000e 0A40     		ands	r2, r2, r1
 291 0010 42B9     		cbnz	r2, .L33
 292 0012 40F24442 		movw	r2, #1092
 293 0016 196A     		ldr	r1, [r3, #32]
 294 0018 0A40     		ands	r2, r2, r1
 295 001a 1AB9     		cbnz	r2, .L33
 296 001c 1A68     		ldr	r2, [r3]
 297 001e 22F00102 		bic	r2, r2, #1
 298 0022 1A60     		str	r2, [r3]
 299              	.L33:
 300 0024 0123     		movs	r3, #1
ARM GAS  /tmp/ccOz2YRp.s 			page 6


 301 0026 80F83D30 		strb	r3, [r0, #61]
 302 002a 0020     		movs	r0, #0
 303 002c 7047     		bx	lr
 305              		.section	.text.HAL_TIM_Base_Start_IT,"ax",%progbits
 306              		.align	1
 307              		.global	HAL_TIM_Base_Start_IT
 308              		.thumb
 309              		.thumb_func
 311              	HAL_TIM_Base_Start_IT:
 312              		@ args = 0, pretend = 0, frame = 0
 313              		@ frame_needed = 0, uses_anonymous_args = 0
 314              		@ link register save eliminated.
 315 0000 0368     		ldr	r3, [r0]
 316 0002 0020     		movs	r0, #0
 317 0004 DA68     		ldr	r2, [r3, #12]
 318 0006 42F00102 		orr	r2, r2, #1
 319 000a DA60     		str	r2, [r3, #12]
 320 000c 9A68     		ldr	r2, [r3, #8]
 321 000e 02F00702 		and	r2, r2, #7
 322 0012 062A     		cmp	r2, #6
 323 0014 1EBF     		ittt	ne
 324 0016 1A68     		ldrne	r2, [r3]
 325 0018 42F00102 		orrne	r2, r2, #1
 326 001c 1A60     		strne	r2, [r3]
 327 001e 7047     		bx	lr
 329              		.section	.text.HAL_TIM_Base_Stop_IT,"ax",%progbits
 330              		.align	1
 331              		.global	HAL_TIM_Base_Stop_IT
 332              		.thumb
 333              		.thumb_func
 335              	HAL_TIM_Base_Stop_IT:
 336              		@ args = 0, pretend = 0, frame = 0
 337              		@ frame_needed = 0, uses_anonymous_args = 0
 338              		@ link register save eliminated.
 339 0000 0368     		ldr	r3, [r0]
 340 0002 DA68     		ldr	r2, [r3, #12]
 341 0004 22F00102 		bic	r2, r2, #1
 342 0008 DA60     		str	r2, [r3, #12]
 343 000a 41F21112 		movw	r2, #4369
 344 000e 196A     		ldr	r1, [r3, #32]
 345 0010 0A40     		ands	r2, r2, r1
 346 0012 42B9     		cbnz	r2, .L40
 347 0014 40F24442 		movw	r2, #1092
 348 0018 196A     		ldr	r1, [r3, #32]
 349 001a 0A40     		ands	r2, r2, r1
 350 001c 1AB9     		cbnz	r2, .L40
 351 001e 1A68     		ldr	r2, [r3]
 352 0020 22F00102 		bic	r2, r2, #1
 353 0024 1A60     		str	r2, [r3]
 354              	.L40:
 355 0026 0020     		movs	r0, #0
 356 0028 7047     		bx	lr
 358              		.section	.text.HAL_TIM_Base_Start_DMA,"ax",%progbits
 359              		.align	1
 360              		.global	HAL_TIM_Base_Start_DMA
 361              		.thumb
 362              		.thumb_func
ARM GAS  /tmp/ccOz2YRp.s 			page 7


 364              	HAL_TIM_Base_Start_DMA:
 365              		@ args = 0, pretend = 0, frame = 0
 366              		@ frame_needed = 0, uses_anonymous_args = 0
 367 0000 10B5     		push	{r4, lr}
 368 0002 0446     		mov	r4, r0
 369 0004 90F83D00 		ldrb	r0, [r0, #61]	@ zero_extendqisi2
 370 0008 1346     		mov	r3, r2
 371 000a C0B2     		uxtb	r0, r0
 372 000c 0228     		cmp	r0, #2
 373 000e 25D0     		beq	.L42
 374 0010 94F83D20 		ldrb	r2, [r4, #61]	@ zero_extendqisi2
 375 0014 012A     		cmp	r2, #1
 376 0016 06D1     		bne	.L43
 377 0018 11B9     		cbnz	r1, .L44
 378 001a 0BB1     		cbz	r3, .L44
 379              	.L45:
 380 001c 0120     		movs	r0, #1
 381 001e 10BD     		pop	{r4, pc}
 382              	.L44:
 383 0020 0222     		movs	r2, #2
 384 0022 84F83D20 		strb	r2, [r4, #61]
 385              	.L43:
 386 0026 206A     		ldr	r0, [r4, #32]
 387 0028 0D4A     		ldr	r2, .L53
 388 002a 8262     		str	r2, [r0, #40]
 389 002c 0D4A     		ldr	r2, .L53+4
 390 002e C262     		str	r2, [r0, #44]
 391 0030 0D4A     		ldr	r2, .L53+8
 392 0032 0263     		str	r2, [r0, #48]
 393 0034 2268     		ldr	r2, [r4]
 394 0036 2C32     		adds	r2, r2, #44
 395 0038 FFF7FEFF 		bl	HAL_DMA_Start_IT
 396 003c 0028     		cmp	r0, #0
 397 003e EDD1     		bne	.L45
 398 0040 2368     		ldr	r3, [r4]
 399 0042 DA68     		ldr	r2, [r3, #12]
 400 0044 42F48072 		orr	r2, r2, #256
 401 0048 DA60     		str	r2, [r3, #12]
 402 004a 9A68     		ldr	r2, [r3, #8]
 403 004c 02F00702 		and	r2, r2, #7
 404 0050 062A     		cmp	r2, #6
 405 0052 1EBF     		ittt	ne
 406 0054 1A68     		ldrne	r2, [r3]
 407 0056 42F00102 		orrne	r2, r2, #1
 408 005a 1A60     		strne	r2, [r3]
 409              	.L42:
 410 005c 10BD     		pop	{r4, pc}
 411              	.L54:
 412 005e 00BF     		.align	2
 413              	.L53:
 414 0060 00000000 		.word	TIM_DMAPeriodElapsedCplt
 415 0064 00000000 		.word	TIM_DMAPeriodElapsedHalfCplt
 416 0068 00000000 		.word	TIM_DMAError
 418              		.section	.text.HAL_TIM_Base_Stop_DMA,"ax",%progbits
 419              		.align	1
 420              		.global	HAL_TIM_Base_Stop_DMA
 421              		.thumb
ARM GAS  /tmp/ccOz2YRp.s 			page 8


 422              		.thumb_func
 424              	HAL_TIM_Base_Stop_DMA:
 425              		@ args = 0, pretend = 0, frame = 0
 426              		@ frame_needed = 0, uses_anonymous_args = 0
 427 0000 0268     		ldr	r2, [r0]
 428 0002 10B5     		push	{r4, lr}
 429 0004 D368     		ldr	r3, [r2, #12]
 430 0006 0446     		mov	r4, r0
 431 0008 23F48073 		bic	r3, r3, #256
 432 000c D360     		str	r3, [r2, #12]
 433 000e 006A     		ldr	r0, [r0, #32]
 434 0010 FFF7FEFF 		bl	HAL_DMA_Abort_IT
 435 0014 41F21112 		movw	r2, #4369
 436 0018 2368     		ldr	r3, [r4]
 437 001a 196A     		ldr	r1, [r3, #32]
 438 001c 0A40     		ands	r2, r2, r1
 439 001e 42B9     		cbnz	r2, .L56
 440 0020 40F24442 		movw	r2, #1092
 441 0024 196A     		ldr	r1, [r3, #32]
 442 0026 0A40     		ands	r2, r2, r1
 443 0028 1AB9     		cbnz	r2, .L56
 444 002a 1A68     		ldr	r2, [r3]
 445 002c 22F00102 		bic	r2, r2, #1
 446 0030 1A60     		str	r2, [r3]
 447              	.L56:
 448 0032 0123     		movs	r3, #1
 449 0034 84F83D30 		strb	r3, [r4, #61]
 450 0038 0020     		movs	r0, #0
 451 003a 10BD     		pop	{r4, pc}
 453              		.section	.text.HAL_TIM_OC_MspInit,"ax",%progbits
 454              		.align	1
 455              		.weak	HAL_TIM_OC_MspInit
 456              		.thumb
 457              		.thumb_func
 459              	HAL_TIM_OC_MspInit:
 460              		@ args = 0, pretend = 0, frame = 0
 461              		@ frame_needed = 0, uses_anonymous_args = 0
 462              		@ link register save eliminated.
 463 0000 7047     		bx	lr
 465              		.section	.text.HAL_TIM_OC_MspDeInit,"ax",%progbits
 466              		.align	1
 467              		.weak	HAL_TIM_OC_MspDeInit
 468              		.thumb
 469              		.thumb_func
 471              	HAL_TIM_OC_MspDeInit:
 472              		@ args = 0, pretend = 0, frame = 0
 473              		@ frame_needed = 0, uses_anonymous_args = 0
 474              		@ link register save eliminated.
 475 0000 7047     		bx	lr
 477              		.section	.text.HAL_TIM_OC_DeInit,"ax",%progbits
 478              		.align	1
 479              		.global	HAL_TIM_OC_DeInit
 480              		.thumb
 481              		.thumb_func
 483              	HAL_TIM_OC_DeInit:
 484              		@ args = 0, pretend = 0, frame = 0
 485              		@ frame_needed = 0, uses_anonymous_args = 0
ARM GAS  /tmp/ccOz2YRp.s 			page 9


 486 0000 41F21112 		movw	r2, #4369
 487 0004 0223     		movs	r3, #2
 488 0006 10B5     		push	{r4, lr}
 489 0008 80F83D30 		strb	r3, [r0, #61]
 490 000c 0368     		ldr	r3, [r0]
 491 000e 0446     		mov	r4, r0
 492 0010 196A     		ldr	r1, [r3, #32]
 493 0012 0A40     		ands	r2, r2, r1
 494 0014 42B9     		cbnz	r2, .L60
 495 0016 40F24442 		movw	r2, #1092
 496 001a 196A     		ldr	r1, [r3, #32]
 497 001c 0A40     		ands	r2, r2, r1
 498 001e 1AB9     		cbnz	r2, .L60
 499 0020 1A68     		ldr	r2, [r3]
 500 0022 22F00102 		bic	r2, r2, #1
 501 0026 1A60     		str	r2, [r3]
 502              	.L60:
 503 0028 2046     		mov	r0, r4
 504 002a FFF7FEFF 		bl	HAL_TIM_OC_MspDeInit
 505 002e 0020     		movs	r0, #0
 506 0030 84F83D00 		strb	r0, [r4, #61]
 507 0034 84F83C00 		strb	r0, [r4, #60]
 508 0038 10BD     		pop	{r4, pc}
 510              		.section	.text.HAL_TIM_PWM_MspInit,"ax",%progbits
 511              		.align	1
 512              		.weak	HAL_TIM_PWM_MspInit
 513              		.thumb
 514              		.thumb_func
 516              	HAL_TIM_PWM_MspInit:
 517              		@ args = 0, pretend = 0, frame = 0
 518              		@ frame_needed = 0, uses_anonymous_args = 0
 519              		@ link register save eliminated.
 520 0000 7047     		bx	lr
 522              		.section	.text.HAL_TIM_PWM_MspDeInit,"ax",%progbits
 523              		.align	1
 524              		.weak	HAL_TIM_PWM_MspDeInit
 525              		.thumb
 526              		.thumb_func
 528              	HAL_TIM_PWM_MspDeInit:
 529              		@ args = 0, pretend = 0, frame = 0
 530              		@ frame_needed = 0, uses_anonymous_args = 0
 531              		@ link register save eliminated.
 532 0000 7047     		bx	lr
 534              		.section	.text.HAL_TIM_PWM_DeInit,"ax",%progbits
 535              		.align	1
 536              		.global	HAL_TIM_PWM_DeInit
 537              		.thumb
 538              		.thumb_func
 540              	HAL_TIM_PWM_DeInit:
 541              		@ args = 0, pretend = 0, frame = 0
 542              		@ frame_needed = 0, uses_anonymous_args = 0
 543 0000 41F21112 		movw	r2, #4369
 544 0004 0223     		movs	r3, #2
 545 0006 10B5     		push	{r4, lr}
 546 0008 80F83D30 		strb	r3, [r0, #61]
 547 000c 0368     		ldr	r3, [r0]
 548 000e 0446     		mov	r4, r0
ARM GAS  /tmp/ccOz2YRp.s 			page 10


 549 0010 196A     		ldr	r1, [r3, #32]
 550 0012 0A40     		ands	r2, r2, r1
 551 0014 42B9     		cbnz	r2, .L64
 552 0016 40F24442 		movw	r2, #1092
 553 001a 196A     		ldr	r1, [r3, #32]
 554 001c 0A40     		ands	r2, r2, r1
 555 001e 1AB9     		cbnz	r2, .L64
 556 0020 1A68     		ldr	r2, [r3]
 557 0022 22F00102 		bic	r2, r2, #1
 558 0026 1A60     		str	r2, [r3]
 559              	.L64:
 560 0028 2046     		mov	r0, r4
 561 002a FFF7FEFF 		bl	HAL_TIM_PWM_MspDeInit
 562 002e 0020     		movs	r0, #0
 563 0030 84F83D00 		strb	r0, [r4, #61]
 564 0034 84F83C00 		strb	r0, [r4, #60]
 565 0038 10BD     		pop	{r4, pc}
 567              		.section	.text.HAL_TIM_IC_MspInit,"ax",%progbits
 568              		.align	1
 569              		.weak	HAL_TIM_IC_MspInit
 570              		.thumb
 571              		.thumb_func
 573              	HAL_TIM_IC_MspInit:
 574              		@ args = 0, pretend = 0, frame = 0
 575              		@ frame_needed = 0, uses_anonymous_args = 0
 576              		@ link register save eliminated.
 577 0000 7047     		bx	lr
 579              		.section	.text.HAL_TIM_IC_MspDeInit,"ax",%progbits
 580              		.align	1
 581              		.weak	HAL_TIM_IC_MspDeInit
 582              		.thumb
 583              		.thumb_func
 585              	HAL_TIM_IC_MspDeInit:
 586              		@ args = 0, pretend = 0, frame = 0
 587              		@ frame_needed = 0, uses_anonymous_args = 0
 588              		@ link register save eliminated.
 589 0000 7047     		bx	lr
 591              		.section	.text.HAL_TIM_IC_DeInit,"ax",%progbits
 592              		.align	1
 593              		.global	HAL_TIM_IC_DeInit
 594              		.thumb
 595              		.thumb_func
 597              	HAL_TIM_IC_DeInit:
 598              		@ args = 0, pretend = 0, frame = 0
 599              		@ frame_needed = 0, uses_anonymous_args = 0
 600 0000 41F21112 		movw	r2, #4369
 601 0004 0223     		movs	r3, #2
 602 0006 10B5     		push	{r4, lr}
 603 0008 80F83D30 		strb	r3, [r0, #61]
 604 000c 0368     		ldr	r3, [r0]
 605 000e 0446     		mov	r4, r0
 606 0010 196A     		ldr	r1, [r3, #32]
 607 0012 0A40     		ands	r2, r2, r1
 608 0014 42B9     		cbnz	r2, .L68
 609 0016 40F24442 		movw	r2, #1092
 610 001a 196A     		ldr	r1, [r3, #32]
 611 001c 0A40     		ands	r2, r2, r1
ARM GAS  /tmp/ccOz2YRp.s 			page 11


 612 001e 1AB9     		cbnz	r2, .L68
 613 0020 1A68     		ldr	r2, [r3]
 614 0022 22F00102 		bic	r2, r2, #1
 615 0026 1A60     		str	r2, [r3]
 616              	.L68:
 617 0028 2046     		mov	r0, r4
 618 002a FFF7FEFF 		bl	HAL_TIM_IC_MspDeInit
 619 002e 0020     		movs	r0, #0
 620 0030 84F83D00 		strb	r0, [r4, #61]
 621 0034 84F83C00 		strb	r0, [r4, #60]
 622 0038 10BD     		pop	{r4, pc}
 624              		.section	.text.HAL_TIM_OnePulse_MspInit,"ax",%progbits
 625              		.align	1
 626              		.weak	HAL_TIM_OnePulse_MspInit
 627              		.thumb
 628              		.thumb_func
 630              	HAL_TIM_OnePulse_MspInit:
 631              		@ args = 0, pretend = 0, frame = 0
 632              		@ frame_needed = 0, uses_anonymous_args = 0
 633              		@ link register save eliminated.
 634 0000 7047     		bx	lr
 636              		.section	.text.HAL_TIM_OnePulse_MspDeInit,"ax",%progbits
 637              		.align	1
 638              		.weak	HAL_TIM_OnePulse_MspDeInit
 639              		.thumb
 640              		.thumb_func
 642              	HAL_TIM_OnePulse_MspDeInit:
 643              		@ args = 0, pretend = 0, frame = 0
 644              		@ frame_needed = 0, uses_anonymous_args = 0
 645              		@ link register save eliminated.
 646 0000 7047     		bx	lr
 648              		.section	.text.HAL_TIM_OnePulse_DeInit,"ax",%progbits
 649              		.align	1
 650              		.global	HAL_TIM_OnePulse_DeInit
 651              		.thumb
 652              		.thumb_func
 654              	HAL_TIM_OnePulse_DeInit:
 655              		@ args = 0, pretend = 0, frame = 0
 656              		@ frame_needed = 0, uses_anonymous_args = 0
 657 0000 41F21112 		movw	r2, #4369
 658 0004 0223     		movs	r3, #2
 659 0006 10B5     		push	{r4, lr}
 660 0008 80F83D30 		strb	r3, [r0, #61]
 661 000c 0368     		ldr	r3, [r0]
 662 000e 0446     		mov	r4, r0
 663 0010 196A     		ldr	r1, [r3, #32]
 664 0012 0A40     		ands	r2, r2, r1
 665 0014 42B9     		cbnz	r2, .L72
 666 0016 40F24442 		movw	r2, #1092
 667 001a 196A     		ldr	r1, [r3, #32]
 668 001c 0A40     		ands	r2, r2, r1
 669 001e 1AB9     		cbnz	r2, .L72
 670 0020 1A68     		ldr	r2, [r3]
 671 0022 22F00102 		bic	r2, r2, #1
 672 0026 1A60     		str	r2, [r3]
 673              	.L72:
 674 0028 2046     		mov	r0, r4
ARM GAS  /tmp/ccOz2YRp.s 			page 12


 675 002a FFF7FEFF 		bl	HAL_TIM_OnePulse_MspDeInit
 676 002e 0020     		movs	r0, #0
 677 0030 84F83D00 		strb	r0, [r4, #61]
 678 0034 84F83C00 		strb	r0, [r4, #60]
 679 0038 10BD     		pop	{r4, pc}
 681              		.section	.text.HAL_TIM_OnePulse_Start,"ax",%progbits
 682              		.align	1
 683              		.global	HAL_TIM_OnePulse_Start
 684              		.thumb
 685              		.thumb_func
 687              	HAL_TIM_OnePulse_Start:
 688              		@ args = 0, pretend = 0, frame = 0
 689              		@ frame_needed = 0, uses_anonymous_args = 0
 690              		@ link register save eliminated.
 691 0000 0368     		ldr	r3, [r0]
 692 0002 1A6A     		ldr	r2, [r3, #32]
 693 0004 22F00102 		bic	r2, r2, #1
 694 0008 1A62     		str	r2, [r3, #32]
 695 000a 1A6A     		ldr	r2, [r3, #32]
 696 000c 42F00102 		orr	r2, r2, #1
 697 0010 1A62     		str	r2, [r3, #32]
 698 0012 1A6A     		ldr	r2, [r3, #32]
 699 0014 22F01002 		bic	r2, r2, #16
 700 0018 1A62     		str	r2, [r3, #32]
 701 001a 1A6A     		ldr	r2, [r3, #32]
 702 001c 42F01002 		orr	r2, r2, #16
 703 0020 1A62     		str	r2, [r3, #32]
 704 0022 0A4A     		ldr	r2, .L77
 705 0024 9342     		cmp	r3, r2
 706 0026 0BD0     		beq	.L74
 707 0028 02F5A052 		add	r2, r2, #5120
 708 002c 9342     		cmp	r3, r2
 709 002e 07D0     		beq	.L74
 710 0030 02F58062 		add	r2, r2, #1024
 711 0034 9342     		cmp	r3, r2
 712 0036 03D0     		beq	.L74
 713 0038 02F58062 		add	r2, r2, #1024
 714 003c 9342     		cmp	r3, r2
 715 003e 03D1     		bne	.L76
 716              	.L74:
 717 0040 5A6C     		ldr	r2, [r3, #68]
 718 0042 42F40042 		orr	r2, r2, #32768
 719 0046 5A64     		str	r2, [r3, #68]
 720              	.L76:
 721 0048 0020     		movs	r0, #0
 722 004a 7047     		bx	lr
 723              	.L78:
 724              		.align	2
 725              	.L77:
 726 004c 002C0140 		.word	1073818624
 728              		.section	.text.HAL_TIM_OnePulse_Stop,"ax",%progbits
 729              		.align	1
 730              		.global	HAL_TIM_OnePulse_Stop
 731              		.thumb
 732              		.thumb_func
 734              	HAL_TIM_OnePulse_Stop:
 735              		@ args = 0, pretend = 0, frame = 0
ARM GAS  /tmp/ccOz2YRp.s 			page 13


 736              		@ frame_needed = 0, uses_anonymous_args = 0
 737              		@ link register save eliminated.
 738 0000 0368     		ldr	r3, [r0]
 739 0002 1A6A     		ldr	r2, [r3, #32]
 740 0004 22F00102 		bic	r2, r2, #1
 741 0008 1A62     		str	r2, [r3, #32]
 742 000a 1A6A     		ldr	r2, [r3, #32]
 743 000c 1A62     		str	r2, [r3, #32]
 744 000e 1A6A     		ldr	r2, [r3, #32]
 745 0010 22F01002 		bic	r2, r2, #16
 746 0014 1A62     		str	r2, [r3, #32]
 747 0016 1A6A     		ldr	r2, [r3, #32]
 748 0018 1A62     		str	r2, [r3, #32]
 749 001a 164A     		ldr	r2, .L85
 750 001c 9342     		cmp	r3, r2
 751 001e 0BD0     		beq	.L80
 752 0020 02F5A052 		add	r2, r2, #5120
 753 0024 9342     		cmp	r3, r2
 754 0026 07D0     		beq	.L80
 755 0028 02F58062 		add	r2, r2, #1024
 756 002c 9342     		cmp	r3, r2
 757 002e 03D0     		beq	.L80
 758 0030 02F58062 		add	r2, r2, #1024
 759 0034 9342     		cmp	r3, r2
 760 0036 0DD1     		bne	.L81
 761              	.L80:
 762 0038 41F21112 		movw	r2, #4369
 763 003c 196A     		ldr	r1, [r3, #32]
 764 003e 0A40     		ands	r2, r2, r1
 765 0040 42B9     		cbnz	r2, .L81
 766 0042 40F24442 		movw	r2, #1092
 767 0046 196A     		ldr	r1, [r3, #32]
 768 0048 0A40     		ands	r2, r2, r1
 769 004a 1AB9     		cbnz	r2, .L81
 770 004c 5A6C     		ldr	r2, [r3, #68]
 771 004e 22F40042 		bic	r2, r2, #32768
 772 0052 5A64     		str	r2, [r3, #68]
 773              	.L81:
 774 0054 41F21112 		movw	r2, #4369
 775 0058 196A     		ldr	r1, [r3, #32]
 776 005a 0A40     		ands	r2, r2, r1
 777 005c 42B9     		cbnz	r2, .L84
 778 005e 40F24442 		movw	r2, #1092
 779 0062 196A     		ldr	r1, [r3, #32]
 780 0064 0A40     		ands	r2, r2, r1
 781 0066 1AB9     		cbnz	r2, .L84
 782 0068 1A68     		ldr	r2, [r3]
 783 006a 22F00102 		bic	r2, r2, #1
 784 006e 1A60     		str	r2, [r3]
 785              	.L84:
 786 0070 0020     		movs	r0, #0
 787 0072 7047     		bx	lr
 788              	.L86:
 789              		.align	2
 790              	.L85:
 791 0074 002C0140 		.word	1073818624
 793              		.section	.text.HAL_TIM_OnePulse_Start_IT,"ax",%progbits
ARM GAS  /tmp/ccOz2YRp.s 			page 14


 794              		.align	1
 795              		.global	HAL_TIM_OnePulse_Start_IT
 796              		.thumb
 797              		.thumb_func
 799              	HAL_TIM_OnePulse_Start_IT:
 800              		@ args = 0, pretend = 0, frame = 0
 801              		@ frame_needed = 0, uses_anonymous_args = 0
 802              		@ link register save eliminated.
 803 0000 0368     		ldr	r3, [r0]
 804 0002 DA68     		ldr	r2, [r3, #12]
 805 0004 42F00202 		orr	r2, r2, #2
 806 0008 DA60     		str	r2, [r3, #12]
 807 000a DA68     		ldr	r2, [r3, #12]
 808 000c 42F00402 		orr	r2, r2, #4
 809 0010 DA60     		str	r2, [r3, #12]
 810 0012 1A6A     		ldr	r2, [r3, #32]
 811 0014 22F00102 		bic	r2, r2, #1
 812 0018 1A62     		str	r2, [r3, #32]
 813 001a 1A6A     		ldr	r2, [r3, #32]
 814 001c 42F00102 		orr	r2, r2, #1
 815 0020 1A62     		str	r2, [r3, #32]
 816 0022 1A6A     		ldr	r2, [r3, #32]
 817 0024 22F01002 		bic	r2, r2, #16
 818 0028 1A62     		str	r2, [r3, #32]
 819 002a 1A6A     		ldr	r2, [r3, #32]
 820 002c 42F01002 		orr	r2, r2, #16
 821 0030 1A62     		str	r2, [r3, #32]
 822 0032 0A4A     		ldr	r2, .L91
 823 0034 9342     		cmp	r3, r2
 824 0036 0BD0     		beq	.L88
 825 0038 02F5A052 		add	r2, r2, #5120
 826 003c 9342     		cmp	r3, r2
 827 003e 07D0     		beq	.L88
 828 0040 02F58062 		add	r2, r2, #1024
 829 0044 9342     		cmp	r3, r2
 830 0046 03D0     		beq	.L88
 831 0048 02F58062 		add	r2, r2, #1024
 832 004c 9342     		cmp	r3, r2
 833 004e 03D1     		bne	.L90
 834              	.L88:
 835 0050 5A6C     		ldr	r2, [r3, #68]
 836 0052 42F40042 		orr	r2, r2, #32768
 837 0056 5A64     		str	r2, [r3, #68]
 838              	.L90:
 839 0058 0020     		movs	r0, #0
 840 005a 7047     		bx	lr
 841              	.L92:
 842              		.align	2
 843              	.L91:
 844 005c 002C0140 		.word	1073818624
 846              		.section	.text.HAL_TIM_OnePulse_Stop_IT,"ax",%progbits
 847              		.align	1
 848              		.global	HAL_TIM_OnePulse_Stop_IT
 849              		.thumb
 850              		.thumb_func
 852              	HAL_TIM_OnePulse_Stop_IT:
 853              		@ args = 0, pretend = 0, frame = 0
ARM GAS  /tmp/ccOz2YRp.s 			page 15


 854              		@ frame_needed = 0, uses_anonymous_args = 0
 855              		@ link register save eliminated.
 856 0000 0368     		ldr	r3, [r0]
 857 0002 DA68     		ldr	r2, [r3, #12]
 858 0004 22F00202 		bic	r2, r2, #2
 859 0008 DA60     		str	r2, [r3, #12]
 860 000a DA68     		ldr	r2, [r3, #12]
 861 000c 22F00402 		bic	r2, r2, #4
 862 0010 DA60     		str	r2, [r3, #12]
 863 0012 1A6A     		ldr	r2, [r3, #32]
 864 0014 22F00102 		bic	r2, r2, #1
 865 0018 1A62     		str	r2, [r3, #32]
 866 001a 1A6A     		ldr	r2, [r3, #32]
 867 001c 1A62     		str	r2, [r3, #32]
 868 001e 1A6A     		ldr	r2, [r3, #32]
 869 0020 22F01002 		bic	r2, r2, #16
 870 0024 1A62     		str	r2, [r3, #32]
 871 0026 1A6A     		ldr	r2, [r3, #32]
 872 0028 1A62     		str	r2, [r3, #32]
 873 002a 164A     		ldr	r2, .L99
 874 002c 9342     		cmp	r3, r2
 875 002e 0BD0     		beq	.L94
 876 0030 02F5A052 		add	r2, r2, #5120
 877 0034 9342     		cmp	r3, r2
 878 0036 07D0     		beq	.L94
 879 0038 02F58062 		add	r2, r2, #1024
 880 003c 9342     		cmp	r3, r2
 881 003e 03D0     		beq	.L94
 882 0040 02F58062 		add	r2, r2, #1024
 883 0044 9342     		cmp	r3, r2
 884 0046 0DD1     		bne	.L95
 885              	.L94:
 886 0048 41F21112 		movw	r2, #4369
 887 004c 196A     		ldr	r1, [r3, #32]
 888 004e 0A40     		ands	r2, r2, r1
 889 0050 42B9     		cbnz	r2, .L95
 890 0052 40F24442 		movw	r2, #1092
 891 0056 196A     		ldr	r1, [r3, #32]
 892 0058 0A40     		ands	r2, r2, r1
 893 005a 1AB9     		cbnz	r2, .L95
 894 005c 5A6C     		ldr	r2, [r3, #68]
 895 005e 22F40042 		bic	r2, r2, #32768
 896 0062 5A64     		str	r2, [r3, #68]
 897              	.L95:
 898 0064 41F21112 		movw	r2, #4369
 899 0068 196A     		ldr	r1, [r3, #32]
 900 006a 0A40     		ands	r2, r2, r1
 901 006c 42B9     		cbnz	r2, .L98
 902 006e 40F24442 		movw	r2, #1092
 903 0072 196A     		ldr	r1, [r3, #32]
 904 0074 0A40     		ands	r2, r2, r1
 905 0076 1AB9     		cbnz	r2, .L98
 906 0078 1A68     		ldr	r2, [r3]
 907 007a 22F00102 		bic	r2, r2, #1
 908 007e 1A60     		str	r2, [r3]
 909              	.L98:
 910 0080 0020     		movs	r0, #0
ARM GAS  /tmp/ccOz2YRp.s 			page 16


 911 0082 7047     		bx	lr
 912              	.L100:
 913              		.align	2
 914              	.L99:
 915 0084 002C0140 		.word	1073818624
 917              		.section	.text.HAL_TIM_Encoder_MspInit,"ax",%progbits
 918              		.align	1
 919              		.weak	HAL_TIM_Encoder_MspInit
 920              		.thumb
 921              		.thumb_func
 923              	HAL_TIM_Encoder_MspInit:
 924              		@ args = 0, pretend = 0, frame = 0
 925              		@ frame_needed = 0, uses_anonymous_args = 0
 926              		@ link register save eliminated.
 927 0000 7047     		bx	lr
 929              		.section	.text.HAL_TIM_Encoder_MspDeInit,"ax",%progbits
 930              		.align	1
 931              		.weak	HAL_TIM_Encoder_MspDeInit
 932              		.thumb
 933              		.thumb_func
 935              	HAL_TIM_Encoder_MspDeInit:
 936              		@ args = 0, pretend = 0, frame = 0
 937              		@ frame_needed = 0, uses_anonymous_args = 0
 938              		@ link register save eliminated.
 939 0000 7047     		bx	lr
 941              		.section	.text.HAL_TIM_Encoder_DeInit,"ax",%progbits
 942              		.align	1
 943              		.global	HAL_TIM_Encoder_DeInit
 944              		.thumb
 945              		.thumb_func
 947              	HAL_TIM_Encoder_DeInit:
 948              		@ args = 0, pretend = 0, frame = 0
 949              		@ frame_needed = 0, uses_anonymous_args = 0
 950 0000 41F21112 		movw	r2, #4369
 951 0004 0223     		movs	r3, #2
 952 0006 10B5     		push	{r4, lr}
 953 0008 80F83D30 		strb	r3, [r0, #61]
 954 000c 0368     		ldr	r3, [r0]
 955 000e 0446     		mov	r4, r0
 956 0010 196A     		ldr	r1, [r3, #32]
 957 0012 0A40     		ands	r2, r2, r1
 958 0014 42B9     		cbnz	r2, .L104
 959 0016 40F24442 		movw	r2, #1092
 960 001a 196A     		ldr	r1, [r3, #32]
 961 001c 0A40     		ands	r2, r2, r1
 962 001e 1AB9     		cbnz	r2, .L104
 963 0020 1A68     		ldr	r2, [r3]
 964 0022 22F00102 		bic	r2, r2, #1
 965 0026 1A60     		str	r2, [r3]
 966              	.L104:
 967 0028 2046     		mov	r0, r4
 968 002a FFF7FEFF 		bl	HAL_TIM_Encoder_MspDeInit
 969 002e 0020     		movs	r0, #0
 970 0030 84F83D00 		strb	r0, [r4, #61]
 971 0034 84F83C00 		strb	r0, [r4, #60]
 972 0038 10BD     		pop	{r4, pc}
 974              		.section	.text.HAL_TIM_Encoder_Start,"ax",%progbits
ARM GAS  /tmp/ccOz2YRp.s 			page 17


 975              		.align	1
 976              		.global	HAL_TIM_Encoder_Start
 977              		.thumb
 978              		.thumb_func
 980              	HAL_TIM_Encoder_Start:
 981              		@ args = 0, pretend = 0, frame = 0
 982              		@ frame_needed = 0, uses_anonymous_args = 0
 983              		@ link register save eliminated.
 984 0000 0368     		ldr	r3, [r0]
 985 0002 51B1     		cbz	r1, .L107
 986 0004 0429     		cmp	r1, #4
 987 0006 10D0     		beq	.L112
 988 0008 1A6A     		ldr	r2, [r3, #32]
 989 000a 22F00102 		bic	r2, r2, #1
 990 000e 1A62     		str	r2, [r3, #32]
 991 0010 1A6A     		ldr	r2, [r3, #32]
 992 0012 42F00102 		orr	r2, r2, #1
 993 0016 1A62     		str	r2, [r3, #32]
 994 0018 07E0     		b	.L112
 995              	.L107:
 996 001a 1A6A     		ldr	r2, [r3, #32]
 997 001c 22F00102 		bic	r2, r2, #1
 998 0020 1A62     		str	r2, [r3, #32]
 999 0022 1A6A     		ldr	r2, [r3, #32]
 1000 0024 42F00102 		orr	r2, r2, #1
 1001 0028 06E0     		b	.L111
 1002              	.L112:
 1003 002a 1A6A     		ldr	r2, [r3, #32]
 1004 002c 22F01002 		bic	r2, r2, #16
 1005 0030 1A62     		str	r2, [r3, #32]
 1006 0032 1A6A     		ldr	r2, [r3, #32]
 1007 0034 42F01002 		orr	r2, r2, #16
 1008              	.L111:
 1009 0038 1A62     		str	r2, [r3, #32]
 1010 003a 1A68     		ldr	r2, [r3]
 1011 003c 0020     		movs	r0, #0
 1012 003e 42F00102 		orr	r2, r2, #1
 1013 0042 1A60     		str	r2, [r3]
 1014 0044 7047     		bx	lr
 1016              		.section	.text.HAL_TIM_Encoder_Stop,"ax",%progbits
 1017              		.align	1
 1018              		.global	HAL_TIM_Encoder_Stop
 1019              		.thumb
 1020              		.thumb_func
 1022              	HAL_TIM_Encoder_Stop:
 1023              		@ args = 0, pretend = 0, frame = 0
 1024              		@ frame_needed = 0, uses_anonymous_args = 0
 1025              		@ link register save eliminated.
 1026 0000 0368     		ldr	r3, [r0]
 1027 0002 41B1     		cbz	r1, .L115
 1028 0004 0429     		cmp	r1, #4
 1029 0006 0AD0     		beq	.L121
 1030 0008 1A6A     		ldr	r2, [r3, #32]
 1031 000a 22F00102 		bic	r2, r2, #1
 1032 000e 1A62     		str	r2, [r3, #32]
 1033 0010 1A6A     		ldr	r2, [r3, #32]
 1034 0012 1A62     		str	r2, [r3, #32]
ARM GAS  /tmp/ccOz2YRp.s 			page 18


 1035 0014 03E0     		b	.L121
 1036              	.L115:
 1037 0016 1A6A     		ldr	r2, [r3, #32]
 1038 0018 22F00102 		bic	r2, r2, #1
 1039 001c 02E0     		b	.L120
 1040              	.L121:
 1041 001e 1A6A     		ldr	r2, [r3, #32]
 1042 0020 22F01002 		bic	r2, r2, #16
 1043              	.L120:
 1044 0024 1A62     		str	r2, [r3, #32]
 1045 0026 1A6A     		ldr	r2, [r3, #32]
 1046 0028 1A62     		str	r2, [r3, #32]
 1047 002a 41F21112 		movw	r2, #4369
 1048 002e 196A     		ldr	r1, [r3, #32]
 1049 0030 0A40     		ands	r2, r2, r1
 1050 0032 42B9     		cbnz	r2, .L118
 1051 0034 40F24442 		movw	r2, #1092
 1052 0038 196A     		ldr	r1, [r3, #32]
 1053 003a 0A40     		ands	r2, r2, r1
 1054 003c 1AB9     		cbnz	r2, .L118
 1055 003e 1A68     		ldr	r2, [r3]
 1056 0040 22F00102 		bic	r2, r2, #1
 1057 0044 1A60     		str	r2, [r3]
 1058              	.L118:
 1059 0046 0020     		movs	r0, #0
 1060 0048 7047     		bx	lr
 1062              		.section	.text.HAL_TIM_Encoder_Start_IT,"ax",%progbits
 1063              		.align	1
 1064              		.global	HAL_TIM_Encoder_Start_IT
 1065              		.thumb
 1066              		.thumb_func
 1068              	HAL_TIM_Encoder_Start_IT:
 1069              		@ args = 0, pretend = 0, frame = 0
 1070              		@ frame_needed = 0, uses_anonymous_args = 0
 1071              		@ link register save eliminated.
 1072 0000 0368     		ldr	r3, [r0]
 1073 0002 51B1     		cbz	r1, .L124
 1074 0004 0429     		cmp	r1, #4
 1075 0006 14D1     		bne	.L130
 1076 0008 1A6A     		ldr	r2, [r3, #32]
 1077 000a 22F01002 		bic	r2, r2, #16
 1078 000e 1A62     		str	r2, [r3, #32]
 1079 0010 1A6A     		ldr	r2, [r3, #32]
 1080 0012 42F01002 		orr	r2, r2, #16
 1081 0016 1A62     		str	r2, [r3, #32]
 1082 0018 1FE0     		b	.L129
 1083              	.L124:
 1084 001a 1A6A     		ldr	r2, [r3, #32]
 1085 001c 22F00102 		bic	r2, r2, #1
 1086 0020 1A62     		str	r2, [r3, #32]
 1087 0022 1A6A     		ldr	r2, [r3, #32]
 1088 0024 42F00102 		orr	r2, r2, #1
 1089 0028 1A62     		str	r2, [r3, #32]
 1090 002a DA68     		ldr	r2, [r3, #12]
 1091 002c 42F00202 		orr	r2, r2, #2
 1092 0030 16E0     		b	.L128
 1093              	.L130:
ARM GAS  /tmp/ccOz2YRp.s 			page 19


 1094 0032 1A6A     		ldr	r2, [r3, #32]
 1095 0034 22F00102 		bic	r2, r2, #1
 1096 0038 1A62     		str	r2, [r3, #32]
 1097 003a 1A6A     		ldr	r2, [r3, #32]
 1098 003c 42F00102 		orr	r2, r2, #1
 1099 0040 1A62     		str	r2, [r3, #32]
 1100 0042 1A6A     		ldr	r2, [r3, #32]
 1101 0044 22F01002 		bic	r2, r2, #16
 1102 0048 1A62     		str	r2, [r3, #32]
 1103 004a 1A6A     		ldr	r2, [r3, #32]
 1104 004c 42F01002 		orr	r2, r2, #16
 1105 0050 1A62     		str	r2, [r3, #32]
 1106 0052 DA68     		ldr	r2, [r3, #12]
 1107 0054 42F00202 		orr	r2, r2, #2
 1108 0058 DA60     		str	r2, [r3, #12]
 1109              	.L129:
 1110 005a DA68     		ldr	r2, [r3, #12]
 1111 005c 42F00402 		orr	r2, r2, #4
 1112              	.L128:
 1113 0060 DA60     		str	r2, [r3, #12]
 1114 0062 1A68     		ldr	r2, [r3]
 1115 0064 0020     		movs	r0, #0
 1116 0066 42F00102 		orr	r2, r2, #1
 1117 006a 1A60     		str	r2, [r3]
 1118 006c 7047     		bx	lr
 1120              		.section	.text.HAL_TIM_Encoder_Stop_IT,"ax",%progbits
 1121              		.align	1
 1122              		.global	HAL_TIM_Encoder_Stop_IT
 1123              		.thumb
 1124              		.thumb_func
 1126              	HAL_TIM_Encoder_Stop_IT:
 1127              		@ args = 0, pretend = 0, frame = 0
 1128              		@ frame_needed = 0, uses_anonymous_args = 0
 1129              		@ link register save eliminated.
 1130 0000 0368     		ldr	r3, [r0]
 1131 0002 1A6A     		ldr	r2, [r3, #32]
 1132 0004 41B9     		cbnz	r1, .L132
 1133 0006 22F00102 		bic	r2, r2, #1
 1134 000a 1A62     		str	r2, [r3, #32]
 1135 000c 1A6A     		ldr	r2, [r3, #32]
 1136 000e 1A62     		str	r2, [r3, #32]
 1137 0010 DA68     		ldr	r2, [r3, #12]
 1138 0012 22F00202 		bic	r2, r2, #2
 1139 0016 19E0     		b	.L136
 1140              	.L132:
 1141 0018 0429     		cmp	r1, #4
 1142 001a 05D1     		bne	.L134
 1143 001c 22F01002 		bic	r2, r2, #16
 1144 0020 1A62     		str	r2, [r3, #32]
 1145 0022 1A6A     		ldr	r2, [r3, #32]
 1146 0024 1A62     		str	r2, [r3, #32]
 1147 0026 0EE0     		b	.L137
 1148              	.L134:
 1149 0028 22F00102 		bic	r2, r2, #1
 1150 002c 1A62     		str	r2, [r3, #32]
 1151 002e 1A6A     		ldr	r2, [r3, #32]
 1152 0030 1A62     		str	r2, [r3, #32]
ARM GAS  /tmp/ccOz2YRp.s 			page 20


 1153 0032 1A6A     		ldr	r2, [r3, #32]
 1154 0034 22F01002 		bic	r2, r2, #16
 1155 0038 1A62     		str	r2, [r3, #32]
 1156 003a 1A6A     		ldr	r2, [r3, #32]
 1157 003c 1A62     		str	r2, [r3, #32]
 1158 003e DA68     		ldr	r2, [r3, #12]
 1159 0040 22F00202 		bic	r2, r2, #2
 1160 0044 DA60     		str	r2, [r3, #12]
 1161              	.L137:
 1162 0046 DA68     		ldr	r2, [r3, #12]
 1163 0048 22F00402 		bic	r2, r2, #4
 1164              	.L136:
 1165 004c DA60     		str	r2, [r3, #12]
 1166 004e 41F21112 		movw	r2, #4369
 1167 0052 196A     		ldr	r1, [r3, #32]
 1168 0054 0A40     		ands	r2, r2, r1
 1169 0056 42B9     		cbnz	r2, .L135
 1170 0058 40F24442 		movw	r2, #1092
 1171 005c 196A     		ldr	r1, [r3, #32]
 1172 005e 0A40     		ands	r2, r2, r1
 1173 0060 1AB9     		cbnz	r2, .L135
 1174 0062 1A68     		ldr	r2, [r3]
 1175 0064 22F00102 		bic	r2, r2, #1
 1176 0068 1A60     		str	r2, [r3]
 1177              	.L135:
 1178 006a 0123     		movs	r3, #1
 1179 006c 80F83D30 		strb	r3, [r0, #61]
 1180 0070 0020     		movs	r0, #0
 1181 0072 7047     		bx	lr
 1183              		.section	.text.HAL_TIM_Encoder_Start_DMA,"ax",%progbits
 1184              		.align	1
 1185              		.global	HAL_TIM_Encoder_Start_DMA
 1186              		.thumb
 1187              		.thumb_func
 1189              	HAL_TIM_Encoder_Start_DMA:
 1190              		@ args = 4, pretend = 0, frame = 0
 1191              		@ frame_needed = 0, uses_anonymous_args = 0
 1192 0000 2DE9F843 		push	{r3, r4, r5, r6, r7, r8, r9, lr}
 1193 0004 0446     		mov	r4, r0
 1194 0006 90F83D00 		ldrb	r0, [r0, #61]	@ zero_extendqisi2
 1195 000a 1E46     		mov	r6, r3
 1196 000c C0B2     		uxtb	r0, r0
 1197 000e 0228     		cmp	r0, #2
 1198 0010 BDF82050 		ldrh	r5, [sp, #32]
 1199 0014 00F09480 		beq	.L139
 1200 0018 94F83D30 		ldrb	r3, [r4, #61]	@ zero_extendqisi2
 1201 001c 012B     		cmp	r3, #1
 1202 001e 08D1     		bne	.L140
 1203 0020 02B1     		cbz	r2, .L141
 1204 0022 1EB9     		cbnz	r6, .L142
 1205              	.L141:
 1206 0024 15B1     		cbz	r5, .L142
 1207              	.L146:
 1208 0026 0120     		movs	r0, #1
 1209 0028 BDE8F883 		pop	{r3, r4, r5, r6, r7, r8, r9, pc}
 1210              	.L142:
 1211 002c 0223     		movs	r3, #2
ARM GAS  /tmp/ccOz2YRp.s 			page 21


 1212 002e 84F83D30 		strb	r3, [r4, #61]
 1213              	.L140:
 1214 0032 0429     		cmp	r1, #4
 1215 0034 22D0     		beq	.L143
 1216 0036 3C29     		cmp	r1, #60
 1217 0038 42D0     		beq	.L144
 1218 003a 0029     		cmp	r1, #0
 1219 003c 7FD1     		bne	.L155
 1220 003e 606A     		ldr	r0, [r4, #36]
 1221 0040 404B     		ldr	r3, .L157
 1222 0042 2168     		ldr	r1, [r4]
 1223 0044 8362     		str	r3, [r0, #40]
 1224 0046 404B     		ldr	r3, .L157+4
 1225 0048 3431     		adds	r1, r1, #52
 1226 004a C362     		str	r3, [r0, #44]
 1227 004c 3F4B     		ldr	r3, .L157+8
 1228 004e 0363     		str	r3, [r0, #48]
 1229 0050 2B46     		mov	r3, r5
 1230 0052 FFF7FEFF 		bl	HAL_DMA_Start_IT
 1231 0056 0028     		cmp	r0, #0
 1232 0058 E5D1     		bne	.L146
 1233 005a 2368     		ldr	r3, [r4]
 1234 005c DA68     		ldr	r2, [r3, #12]
 1235 005e 42F40072 		orr	r2, r2, #512
 1236 0062 DA60     		str	r2, [r3, #12]
 1237 0064 1A68     		ldr	r2, [r3]
 1238 0066 42F00102 		orr	r2, r2, #1
 1239 006a 1A60     		str	r2, [r3]
 1240 006c 1A6A     		ldr	r2, [r3, #32]
 1241 006e 22F00102 		bic	r2, r2, #1
 1242 0072 1A62     		str	r2, [r3, #32]
 1243 0074 1A6A     		ldr	r2, [r3, #32]
 1244 0076 42F00102 		orr	r2, r2, #1
 1245 007a 1EE0     		b	.L156
 1246              	.L143:
 1247 007c A06A     		ldr	r0, [r4, #40]
 1248 007e 314B     		ldr	r3, .L157
 1249 0080 2168     		ldr	r1, [r4]
 1250 0082 8362     		str	r3, [r0, #40]
 1251 0084 304B     		ldr	r3, .L157+4
 1252 0086 3831     		adds	r1, r1, #56
 1253 0088 C362     		str	r3, [r0, #44]
 1254 008a 304B     		ldr	r3, .L157+8
 1255 008c 3246     		mov	r2, r6
 1256 008e 0363     		str	r3, [r0, #48]
 1257 0090 2B46     		mov	r3, r5
 1258 0092 FFF7FEFF 		bl	HAL_DMA_Start_IT
 1259 0096 0028     		cmp	r0, #0
 1260 0098 C5D1     		bne	.L146
 1261 009a 2368     		ldr	r3, [r4]
 1262 009c DA68     		ldr	r2, [r3, #12]
 1263 009e 42F48062 		orr	r2, r2, #1024
 1264 00a2 DA60     		str	r2, [r3, #12]
 1265 00a4 1A68     		ldr	r2, [r3]
 1266 00a6 42F00102 		orr	r2, r2, #1
 1267 00aa 1A60     		str	r2, [r3]
 1268 00ac 1A6A     		ldr	r2, [r3, #32]
ARM GAS  /tmp/ccOz2YRp.s 			page 22


 1269 00ae 22F01002 		bic	r2, r2, #16
 1270 00b2 1A62     		str	r2, [r3, #32]
 1271 00b4 1A6A     		ldr	r2, [r3, #32]
 1272 00b6 42F01002 		orr	r2, r2, #16
 1273              	.L156:
 1274 00ba 1A62     		str	r2, [r3, #32]
 1275 00bc BDE8F883 		pop	{r3, r4, r5, r6, r7, r8, r9, pc}
 1276              	.L144:
 1277 00c0 606A     		ldr	r0, [r4, #36]
 1278 00c2 DFF88090 		ldr	r9, .L157
 1279 00c6 DFF88080 		ldr	r8, .L157+4
 1280 00ca 204F     		ldr	r7, .L157+8
 1281 00cc 2168     		ldr	r1, [r4]
 1282 00ce C0F82890 		str	r9, [r0, #40]
 1283 00d2 C0F82C80 		str	r8, [r0, #44]
 1284 00d6 0763     		str	r7, [r0, #48]
 1285 00d8 3431     		adds	r1, r1, #52
 1286 00da 2B46     		mov	r3, r5
 1287 00dc FFF7FEFF 		bl	HAL_DMA_Start_IT
 1288 00e0 0028     		cmp	r0, #0
 1289 00e2 A0D1     		bne	.L146
 1290 00e4 A06A     		ldr	r0, [r4, #40]
 1291 00e6 2168     		ldr	r1, [r4]
 1292 00e8 C0F82890 		str	r9, [r0, #40]
 1293 00ec C0F82C80 		str	r8, [r0, #44]
 1294 00f0 0763     		str	r7, [r0, #48]
 1295 00f2 3831     		adds	r1, r1, #56
 1296 00f4 3246     		mov	r2, r6
 1297 00f6 2B46     		mov	r3, r5
 1298 00f8 FFF7FEFF 		bl	HAL_DMA_Start_IT
 1299 00fc 0028     		cmp	r0, #0
 1300 00fe 92D1     		bne	.L146
 1301 0100 2368     		ldr	r3, [r4]
 1302 0102 1A68     		ldr	r2, [r3]
 1303 0104 42F00102 		orr	r2, r2, #1
 1304 0108 1A60     		str	r2, [r3]
 1305 010a 1A6A     		ldr	r2, [r3, #32]
 1306 010c 22F00102 		bic	r2, r2, #1
 1307 0110 1A62     		str	r2, [r3, #32]
 1308 0112 1A6A     		ldr	r2, [r3, #32]
 1309 0114 42F00102 		orr	r2, r2, #1
 1310 0118 1A62     		str	r2, [r3, #32]
 1311 011a 1A6A     		ldr	r2, [r3, #32]
 1312 011c 22F01002 		bic	r2, r2, #16
 1313 0120 1A62     		str	r2, [r3, #32]
 1314 0122 1A6A     		ldr	r2, [r3, #32]
 1315 0124 42F01002 		orr	r2, r2, #16
 1316 0128 1A62     		str	r2, [r3, #32]
 1317 012a DA68     		ldr	r2, [r3, #12]
 1318 012c 42F40072 		orr	r2, r2, #512
 1319 0130 DA60     		str	r2, [r3, #12]
 1320 0132 DA68     		ldr	r2, [r3, #12]
 1321 0134 42F48062 		orr	r2, r2, #1024
 1322 0138 DA60     		str	r2, [r3, #12]
 1323 013a BDE8F883 		pop	{r3, r4, r5, r6, r7, r8, r9, pc}
 1324              	.L155:
 1325 013e 0020     		movs	r0, #0
ARM GAS  /tmp/ccOz2YRp.s 			page 23


 1326              	.L139:
 1327 0140 BDE8F883 		pop	{r3, r4, r5, r6, r7, r8, r9, pc}
 1328              	.L158:
 1329              		.align	2
 1330              	.L157:
 1331 0144 00000000 		.word	TIM_DMACaptureCplt
 1332 0148 00000000 		.word	TIM_DMACaptureHalfCplt
 1333 014c 00000000 		.word	TIM_DMAError
 1335              		.section	.text.HAL_TIM_Encoder_Stop_DMA,"ax",%progbits
 1336              		.align	1
 1337              		.global	HAL_TIM_Encoder_Stop_DMA
 1338              		.thumb
 1339              		.thumb_func
 1341              	HAL_TIM_Encoder_Stop_DMA:
 1342              		@ args = 0, pretend = 0, frame = 0
 1343              		@ frame_needed = 0, uses_anonymous_args = 0
 1344 0000 0368     		ldr	r3, [r0]
 1345 0002 10B5     		push	{r4, lr}
 1346 0004 1A6A     		ldr	r2, [r3, #32]
 1347 0006 0446     		mov	r4, r0
 1348 0008 51B9     		cbnz	r1, .L160
 1349 000a 22F00102 		bic	r2, r2, #1
 1350 000e 1A62     		str	r2, [r3, #32]
 1351 0010 1A6A     		ldr	r2, [r3, #32]
 1352 0012 406A     		ldr	r0, [r0, #36]
 1353 0014 1A62     		str	r2, [r3, #32]
 1354 0016 DA68     		ldr	r2, [r3, #12]
 1355 0018 22F40072 		bic	r2, r2, #512
 1356 001c DA60     		str	r2, [r3, #12]
 1357 001e 22E0     		b	.L164
 1358              	.L160:
 1359 0020 0429     		cmp	r1, #4
 1360 0022 09D1     		bne	.L162
 1361 0024 22F01002 		bic	r2, r2, #16
 1362 0028 1A62     		str	r2, [r3, #32]
 1363 002a 1A6A     		ldr	r2, [r3, #32]
 1364 002c 1A62     		str	r2, [r3, #32]
 1365 002e DA68     		ldr	r2, [r3, #12]
 1366 0030 22F48062 		bic	r2, r2, #1024
 1367 0034 DA60     		str	r2, [r3, #12]
 1368 0036 15E0     		b	.L165
 1369              	.L162:
 1370 0038 22F00102 		bic	r2, r2, #1
 1371 003c 1A62     		str	r2, [r3, #32]
 1372 003e 1A6A     		ldr	r2, [r3, #32]
 1373 0040 406A     		ldr	r0, [r0, #36]
 1374 0042 1A62     		str	r2, [r3, #32]
 1375 0044 1A6A     		ldr	r2, [r3, #32]
 1376 0046 22F01002 		bic	r2, r2, #16
 1377 004a 1A62     		str	r2, [r3, #32]
 1378 004c 1A6A     		ldr	r2, [r3, #32]
 1379 004e 1A62     		str	r2, [r3, #32]
 1380 0050 DA68     		ldr	r2, [r3, #12]
 1381 0052 22F40072 		bic	r2, r2, #512
 1382 0056 DA60     		str	r2, [r3, #12]
 1383 0058 DA68     		ldr	r2, [r3, #12]
 1384 005a 22F48062 		bic	r2, r2, #1024
ARM GAS  /tmp/ccOz2YRp.s 			page 24


 1385 005e DA60     		str	r2, [r3, #12]
 1386 0060 FFF7FEFF 		bl	HAL_DMA_Abort_IT
 1387              	.L165:
 1388 0064 A06A     		ldr	r0, [r4, #40]
 1389              	.L164:
 1390 0066 FFF7FEFF 		bl	HAL_DMA_Abort_IT
 1391 006a 41F21112 		movw	r2, #4369
 1392 006e 2368     		ldr	r3, [r4]
 1393 0070 196A     		ldr	r1, [r3, #32]
 1394 0072 0A40     		ands	r2, r2, r1
 1395 0074 42B9     		cbnz	r2, .L163
 1396 0076 40F24442 		movw	r2, #1092
 1397 007a 196A     		ldr	r1, [r3, #32]
 1398 007c 0A40     		ands	r2, r2, r1
 1399 007e 1AB9     		cbnz	r2, .L163
 1400 0080 1A68     		ldr	r2, [r3]
 1401 0082 22F00102 		bic	r2, r2, #1
 1402 0086 1A60     		str	r2, [r3]
 1403              	.L163:
 1404 0088 0123     		movs	r3, #1
 1405 008a 84F83D30 		strb	r3, [r4, #61]
 1406 008e 0020     		movs	r0, #0
 1407 0090 10BD     		pop	{r4, pc}
 1409              		.section	.text.HAL_TIM_DMABurst_WriteStart,"ax",%progbits
 1410              		.align	1
 1411              		.global	HAL_TIM_DMABurst_WriteStart
 1412              		.thumb
 1413              		.thumb_func
 1415              	HAL_TIM_DMABurst_WriteStart:
 1416              		@ args = 4, pretend = 0, frame = 0
 1417              		@ frame_needed = 0, uses_anonymous_args = 0
 1418 0000 F8B5     		push	{r3, r4, r5, r6, r7, lr}
 1419 0002 0446     		mov	r4, r0
 1420 0004 90F83D00 		ldrb	r0, [r0, #61]	@ zero_extendqisi2
 1421 0008 0F46     		mov	r7, r1
 1422 000a C0B2     		uxtb	r0, r0
 1423 000c 0228     		cmp	r0, #2
 1424 000e 1646     		mov	r6, r2
 1425 0010 1946     		mov	r1, r3
 1426 0012 069D     		ldr	r5, [sp, #24]
 1427 0014 4ED0     		beq	.L167
 1428 0016 94F83D30 		ldrb	r3, [r4, #61]	@ zero_extendqisi2
 1429 001a 012B     		cmp	r3, #1
 1430 001c 06D1     		bne	.L168
 1431 001e 11B9     		cbnz	r1, .L169
 1432 0020 0DB1     		cbz	r5, .L169
 1433              	.L179:
 1434 0022 0120     		movs	r0, #1
 1435 0024 F8BD     		pop	{r3, r4, r5, r6, r7, pc}
 1436              	.L169:
 1437 0026 0223     		movs	r3, #2
 1438 0028 84F83D30 		strb	r3, [r4, #61]
 1439              	.L168:
 1440 002c B6F5006F 		cmp	r6, #2048
 1441 0030 2268     		ldr	r2, [r4]
 1442 0032 20D0     		beq	.L171
 1443 0034 0DD8     		bhi	.L172
ARM GAS  /tmp/ccOz2YRp.s 			page 25


 1444 0036 B6F5007F 		cmp	r6, #512
 1445 003a 15D0     		beq	.L173
 1446 003c B6F5806F 		cmp	r6, #1024
 1447 0040 14D0     		beq	.L174
 1448 0042 B6F5807F 		cmp	r6, #256
 1449 0046 2BD1     		bne	.L170
 1450 0048 1B4B     		ldr	r3, .L193
 1451 004a 206A     		ldr	r0, [r4, #32]
 1452 004c 8362     		str	r3, [r0, #40]
 1453 004e 1B4B     		ldr	r3, .L193+4
 1454 0050 1CE0     		b	.L186
 1455              	.L172:
 1456 0052 B6F5005F 		cmp	r6, #8192
 1457 0056 10D0     		beq	.L176
 1458 0058 B6F5804F 		cmp	r6, #16384
 1459 005c 12D0     		beq	.L177
 1460 005e B6F5805F 		cmp	r6, #4096
 1461 0062 1DD1     		bne	.L170
 1462 0064 206B     		ldr	r0, [r4, #48]
 1463 0066 02E0     		b	.L192
 1464              	.L173:
 1465 0068 606A     		ldr	r0, [r4, #36]
 1466 006a 00E0     		b	.L192
 1467              	.L174:
 1468 006c A06A     		ldr	r0, [r4, #40]
 1469              	.L192:
 1470 006e 144B     		ldr	r3, .L193+8
 1471 0070 8362     		str	r3, [r0, #40]
 1472 0072 144B     		ldr	r3, .L193+12
 1473 0074 0AE0     		b	.L186
 1474              	.L171:
 1475 0076 E06A     		ldr	r0, [r4, #44]
 1476 0078 F9E7     		b	.L192
 1477              	.L176:
 1478 007a 134B     		ldr	r3, .L193+16
 1479 007c 606B     		ldr	r0, [r4, #52]
 1480 007e 8362     		str	r3, [r0, #40]
 1481 0080 124B     		ldr	r3, .L193+20
 1482 0082 03E0     		b	.L186
 1483              	.L177:
 1484 0084 124B     		ldr	r3, .L193+24
 1485 0086 A06B     		ldr	r0, [r4, #56]
 1486 0088 8362     		str	r3, [r0, #40]
 1487 008a 124B     		ldr	r3, .L193+28
 1488              	.L186:
 1489 008c C362     		str	r3, [r0, #44]
 1490 008e 124B     		ldr	r3, .L193+32
 1491 0090 4C32     		adds	r2, r2, #76
 1492 0092 0363     		str	r3, [r0, #48]
 1493 0094 2B0A     		lsrs	r3, r5, #8
 1494 0096 0133     		adds	r3, r3, #1
 1495 0098 FFF7FEFF 		bl	HAL_DMA_Start_IT
 1496 009c 0028     		cmp	r0, #0
 1497 009e C0D1     		bne	.L179
 1498              	.L170:
 1499 00a0 2368     		ldr	r3, [r4]
 1500 00a2 3D43     		orrs	r5, r5, r7
ARM GAS  /tmp/ccOz2YRp.s 			page 26


 1501 00a4 9D64     		str	r5, [r3, #72]
 1502 00a6 DA68     		ldr	r2, [r3, #12]
 1503 00a8 0020     		movs	r0, #0
 1504 00aa 1643     		orrs	r6, r6, r2
 1505 00ac DE60     		str	r6, [r3, #12]
 1506 00ae 0123     		movs	r3, #1
 1507 00b0 84F83D30 		strb	r3, [r4, #61]
 1508              	.L167:
 1509 00b4 F8BD     		pop	{r3, r4, r5, r6, r7, pc}
 1510              	.L194:
 1511 00b6 00BF     		.align	2
 1512              	.L193:
 1513 00b8 00000000 		.word	TIM_DMAPeriodElapsedCplt
 1514 00bc 00000000 		.word	TIM_DMAPeriodElapsedHalfCplt
 1515 00c0 00000000 		.word	TIM_DMADelayPulseCplt
 1516 00c4 00000000 		.word	TIM_DMADelayPulseHalfCplt
 1517 00c8 00000000 		.word	TIMEx_DMACommutationCplt
 1518 00cc 00000000 		.word	TIMEx_DMACommutationHalfCplt
 1519 00d0 00000000 		.word	TIM_DMATriggerCplt
 1520 00d4 00000000 		.word	TIM_DMATriggerHalfCplt
 1521 00d8 00000000 		.word	TIM_DMAError
 1523              		.section	.text.HAL_TIM_DMABurst_WriteStop,"ax",%progbits
 1524              		.align	1
 1525              		.global	HAL_TIM_DMABurst_WriteStop
 1526              		.thumb
 1527              		.thumb_func
 1529              	HAL_TIM_DMABurst_WriteStop:
 1530              		@ args = 0, pretend = 0, frame = 0
 1531              		@ frame_needed = 0, uses_anonymous_args = 0
 1532 0000 B1F5006F 		cmp	r1, #2048
 1533 0004 38B5     		push	{r3, r4, r5, lr}
 1534 0006 0546     		mov	r5, r0
 1535 0008 0C46     		mov	r4, r1
 1536 000a 1AD0     		beq	.L197
 1537 000c 0AD8     		bhi	.L198
 1538 000e B1F5007F 		cmp	r1, #512
 1539 0012 12D0     		beq	.L199
 1540 0014 B1F5806F 		cmp	r1, #1024
 1541 0018 11D0     		beq	.L200
 1542 001a B1F5807F 		cmp	r1, #256
 1543 001e 18D1     		bne	.L196
 1544 0020 006A     		ldr	r0, [r0, #32]
 1545 0022 13E0     		b	.L207
 1546              	.L198:
 1547 0024 B1F5005F 		cmp	r1, #8192
 1548 0028 0DD0     		beq	.L202
 1549 002a B1F5804F 		cmp	r1, #16384
 1550 002e 0CD0     		beq	.L203
 1551 0030 B1F5805F 		cmp	r1, #4096
 1552 0034 0DD1     		bne	.L196
 1553 0036 006B     		ldr	r0, [r0, #48]
 1554 0038 08E0     		b	.L207
 1555              	.L199:
 1556 003a 406A     		ldr	r0, [r0, #36]
 1557 003c 06E0     		b	.L207
 1558              	.L200:
 1559 003e 806A     		ldr	r0, [r0, #40]
ARM GAS  /tmp/ccOz2YRp.s 			page 27


 1560 0040 04E0     		b	.L207
 1561              	.L197:
 1562 0042 C06A     		ldr	r0, [r0, #44]
 1563 0044 02E0     		b	.L207
 1564              	.L202:
 1565 0046 406B     		ldr	r0, [r0, #52]
 1566 0048 00E0     		b	.L207
 1567              	.L203:
 1568 004a 806B     		ldr	r0, [r0, #56]
 1569              	.L207:
 1570 004c FFF7FEFF 		bl	HAL_DMA_Abort_IT
 1571 0050 28B9     		cbnz	r0, .L206
 1572              	.L196:
 1573 0052 2A68     		ldr	r2, [r5]
 1574 0054 0020     		movs	r0, #0
 1575 0056 D368     		ldr	r3, [r2, #12]
 1576 0058 23EA0404 		bic	r4, r3, r4
 1577 005c D460     		str	r4, [r2, #12]
 1578              	.L206:
 1579 005e 38BD     		pop	{r3, r4, r5, pc}
 1581              		.section	.text.HAL_TIM_DMABurst_ReadStart,"ax",%progbits
 1582              		.align	1
 1583              		.global	HAL_TIM_DMABurst_ReadStart
 1584              		.thumb
 1585              		.thumb_func
 1587              	HAL_TIM_DMABurst_ReadStart:
 1588              		@ args = 4, pretend = 0, frame = 0
 1589              		@ frame_needed = 0, uses_anonymous_args = 0
 1590 0000 F8B5     		push	{r3, r4, r5, r6, r7, lr}
 1591 0002 0446     		mov	r4, r0
 1592 0004 90F83D00 		ldrb	r0, [r0, #61]	@ zero_extendqisi2
 1593 0008 1646     		mov	r6, r2
 1594 000a C0B2     		uxtb	r0, r0
 1595 000c 0228     		cmp	r0, #2
 1596 000e 0F46     		mov	r7, r1
 1597 0010 1A46     		mov	r2, r3
 1598 0012 069D     		ldr	r5, [sp, #24]
 1599 0014 4ED0     		beq	.L209
 1600 0016 94F83D30 		ldrb	r3, [r4, #61]	@ zero_extendqisi2
 1601 001a 012B     		cmp	r3, #1
 1602 001c 06D1     		bne	.L210
 1603 001e 12B9     		cbnz	r2, .L211
 1604 0020 0DB1     		cbz	r5, .L211
 1605              	.L221:
 1606 0022 0120     		movs	r0, #1
 1607 0024 F8BD     		pop	{r3, r4, r5, r6, r7, pc}
 1608              	.L211:
 1609 0026 0223     		movs	r3, #2
 1610 0028 84F83D30 		strb	r3, [r4, #61]
 1611              	.L210:
 1612 002c B6F5006F 		cmp	r6, #2048
 1613 0030 2168     		ldr	r1, [r4]
 1614 0032 20D0     		beq	.L213
 1615 0034 0DD8     		bhi	.L214
 1616 0036 B6F5007F 		cmp	r6, #512
 1617 003a 15D0     		beq	.L215
 1618 003c B6F5806F 		cmp	r6, #1024
ARM GAS  /tmp/ccOz2YRp.s 			page 28


 1619 0040 14D0     		beq	.L216
 1620 0042 B6F5807F 		cmp	r6, #256
 1621 0046 2BD1     		bne	.L212
 1622 0048 1B4B     		ldr	r3, .L235
 1623 004a 206A     		ldr	r0, [r4, #32]
 1624 004c 8362     		str	r3, [r0, #40]
 1625 004e 1B4B     		ldr	r3, .L235+4
 1626 0050 1CE0     		b	.L228
 1627              	.L214:
 1628 0052 B6F5005F 		cmp	r6, #8192
 1629 0056 10D0     		beq	.L218
 1630 0058 B6F5804F 		cmp	r6, #16384
 1631 005c 12D0     		beq	.L219
 1632 005e B6F5805F 		cmp	r6, #4096
 1633 0062 1DD1     		bne	.L212
 1634 0064 206B     		ldr	r0, [r4, #48]
 1635 0066 02E0     		b	.L234
 1636              	.L215:
 1637 0068 606A     		ldr	r0, [r4, #36]
 1638 006a 00E0     		b	.L234
 1639              	.L216:
 1640 006c A06A     		ldr	r0, [r4, #40]
 1641              	.L234:
 1642 006e 144B     		ldr	r3, .L235+8
 1643 0070 8362     		str	r3, [r0, #40]
 1644 0072 144B     		ldr	r3, .L235+12
 1645 0074 0AE0     		b	.L228
 1646              	.L213:
 1647 0076 E06A     		ldr	r0, [r4, #44]
 1648 0078 F9E7     		b	.L234
 1649              	.L218:
 1650 007a 134B     		ldr	r3, .L235+16
 1651 007c 606B     		ldr	r0, [r4, #52]
 1652 007e 8362     		str	r3, [r0, #40]
 1653 0080 124B     		ldr	r3, .L235+20
 1654 0082 03E0     		b	.L228
 1655              	.L219:
 1656 0084 124B     		ldr	r3, .L235+24
 1657 0086 A06B     		ldr	r0, [r4, #56]
 1658 0088 8362     		str	r3, [r0, #40]
 1659 008a 124B     		ldr	r3, .L235+28
 1660              	.L228:
 1661 008c C362     		str	r3, [r0, #44]
 1662 008e 124B     		ldr	r3, .L235+32
 1663 0090 4C31     		adds	r1, r1, #76
 1664 0092 0363     		str	r3, [r0, #48]
 1665 0094 2B0A     		lsrs	r3, r5, #8
 1666 0096 0133     		adds	r3, r3, #1
 1667 0098 FFF7FEFF 		bl	HAL_DMA_Start_IT
 1668 009c 0028     		cmp	r0, #0
 1669 009e C0D1     		bne	.L221
 1670              	.L212:
 1671 00a0 2368     		ldr	r3, [r4]
 1672 00a2 3D43     		orrs	r5, r5, r7
 1673 00a4 9D64     		str	r5, [r3, #72]
 1674 00a6 DA68     		ldr	r2, [r3, #12]
 1675 00a8 0020     		movs	r0, #0
ARM GAS  /tmp/ccOz2YRp.s 			page 29


 1676 00aa 1643     		orrs	r6, r6, r2
 1677 00ac DE60     		str	r6, [r3, #12]
 1678 00ae 0123     		movs	r3, #1
 1679 00b0 84F83D30 		strb	r3, [r4, #61]
 1680              	.L209:
 1681 00b4 F8BD     		pop	{r3, r4, r5, r6, r7, pc}
 1682              	.L236:
 1683 00b6 00BF     		.align	2
 1684              	.L235:
 1685 00b8 00000000 		.word	TIM_DMAPeriodElapsedCplt
 1686 00bc 00000000 		.word	TIM_DMAPeriodElapsedHalfCplt
 1687 00c0 00000000 		.word	TIM_DMACaptureCplt
 1688 00c4 00000000 		.word	TIM_DMACaptureHalfCplt
 1689 00c8 00000000 		.word	TIMEx_DMACommutationCplt
 1690 00cc 00000000 		.word	TIMEx_DMACommutationHalfCplt
 1691 00d0 00000000 		.word	TIM_DMATriggerCplt
 1692 00d4 00000000 		.word	TIM_DMATriggerHalfCplt
 1693 00d8 00000000 		.word	TIM_DMAError
 1695              		.section	.text.HAL_TIM_DMABurst_ReadStop,"ax",%progbits
 1696              		.align	1
 1697              		.global	HAL_TIM_DMABurst_ReadStop
 1698              		.thumb
 1699              		.thumb_func
 1701              	HAL_TIM_DMABurst_ReadStop:
 1702              		@ args = 0, pretend = 0, frame = 0
 1703              		@ frame_needed = 0, uses_anonymous_args = 0
 1704 0000 B1F5006F 		cmp	r1, #2048
 1705 0004 38B5     		push	{r3, r4, r5, lr}
 1706 0006 0546     		mov	r5, r0
 1707 0008 0C46     		mov	r4, r1
 1708 000a 1AD0     		beq	.L239
 1709 000c 0AD8     		bhi	.L240
 1710 000e B1F5007F 		cmp	r1, #512
 1711 0012 12D0     		beq	.L241
 1712 0014 B1F5806F 		cmp	r1, #1024
 1713 0018 11D0     		beq	.L242
 1714 001a B1F5807F 		cmp	r1, #256
 1715 001e 18D1     		bne	.L238
 1716 0020 006A     		ldr	r0, [r0, #32]
 1717 0022 13E0     		b	.L249
 1718              	.L240:
 1719 0024 B1F5005F 		cmp	r1, #8192
 1720 0028 0DD0     		beq	.L244
 1721 002a B1F5804F 		cmp	r1, #16384
 1722 002e 0CD0     		beq	.L245
 1723 0030 B1F5805F 		cmp	r1, #4096
 1724 0034 0DD1     		bne	.L238
 1725 0036 006B     		ldr	r0, [r0, #48]
 1726 0038 08E0     		b	.L249
 1727              	.L241:
 1728 003a 406A     		ldr	r0, [r0, #36]
 1729 003c 06E0     		b	.L249
 1730              	.L242:
 1731 003e 806A     		ldr	r0, [r0, #40]
 1732 0040 04E0     		b	.L249
 1733              	.L239:
 1734 0042 C06A     		ldr	r0, [r0, #44]
ARM GAS  /tmp/ccOz2YRp.s 			page 30


 1735 0044 02E0     		b	.L249
 1736              	.L244:
 1737 0046 406B     		ldr	r0, [r0, #52]
 1738 0048 00E0     		b	.L249
 1739              	.L245:
 1740 004a 806B     		ldr	r0, [r0, #56]
 1741              	.L249:
 1742 004c FFF7FEFF 		bl	HAL_DMA_Abort_IT
 1743 0050 28B9     		cbnz	r0, .L248
 1744              	.L238:
 1745 0052 2A68     		ldr	r2, [r5]
 1746 0054 0020     		movs	r0, #0
 1747 0056 D368     		ldr	r3, [r2, #12]
 1748 0058 23EA0404 		bic	r4, r3, r4
 1749 005c D460     		str	r4, [r2, #12]
 1750              	.L248:
 1751 005e 38BD     		pop	{r3, r4, r5, pc}
 1753              		.section	.text.HAL_TIM_GenerateEvent,"ax",%progbits
 1754              		.align	1
 1755              		.global	HAL_TIM_GenerateEvent
 1756              		.thumb
 1757              		.thumb_func
 1759              	HAL_TIM_GenerateEvent:
 1760              		@ args = 0, pretend = 0, frame = 0
 1761              		@ frame_needed = 0, uses_anonymous_args = 0
 1762              		@ link register save eliminated.
 1763 0000 90F83C30 		ldrb	r3, [r0, #60]	@ zero_extendqisi2
 1764 0004 012B     		cmp	r3, #1
 1765 0006 4FF00203 		mov	r3, #2
 1766 000a 09D0     		beq	.L252
 1767 000c 80F83D30 		strb	r3, [r0, #61]
 1768 0010 0368     		ldr	r3, [r0]
 1769 0012 5961     		str	r1, [r3, #20]
 1770 0014 0123     		movs	r3, #1
 1771 0016 80F83D30 		strb	r3, [r0, #61]
 1772 001a 0023     		movs	r3, #0
 1773 001c 80F83C30 		strb	r3, [r0, #60]
 1774              	.L252:
 1775 0020 1846     		mov	r0, r3
 1776 0022 7047     		bx	lr
 1778              		.section	.text.HAL_TIM_ConfigTI1Input,"ax",%progbits
 1779              		.align	1
 1780              		.global	HAL_TIM_ConfigTI1Input
 1781              		.thumb
 1782              		.thumb_func
 1784              	HAL_TIM_ConfigTI1Input:
 1785              		@ args = 0, pretend = 0, frame = 0
 1786              		@ frame_needed = 0, uses_anonymous_args = 0
 1787              		@ link register save eliminated.
 1788 0000 0268     		ldr	r2, [r0]
 1789 0002 0020     		movs	r0, #0
 1790 0004 5368     		ldr	r3, [r2, #4]
 1791 0006 23F08003 		bic	r3, r3, #128
 1792 000a 1943     		orrs	r1, r1, r3
 1793 000c 5160     		str	r1, [r2, #4]
 1794 000e 7047     		bx	lr
 1796              		.section	.text.HAL_TIM_ReadCapturedValue,"ax",%progbits
ARM GAS  /tmp/ccOz2YRp.s 			page 31


 1797              		.align	1
 1798              		.global	HAL_TIM_ReadCapturedValue
 1799              		.thumb
 1800              		.thumb_func
 1802              	HAL_TIM_ReadCapturedValue:
 1803              		@ args = 0, pretend = 0, frame = 0
 1804              		@ frame_needed = 0, uses_anonymous_args = 0
 1805              		@ link register save eliminated.
 1806 0000 0C29     		cmp	r1, #12
 1807 0002 14D8     		bhi	.L261
 1808 0004 DFE801F0 		tbb	[pc, r1]
 1809              	.L257:
 1810 0008 07       		.byte	(.L256-.L257)/2
 1811 0009 13       		.byte	(.L261-.L257)/2
 1812 000a 13       		.byte	(.L261-.L257)/2
 1813 000b 13       		.byte	(.L261-.L257)/2
 1814 000c 0A       		.byte	(.L258-.L257)/2
 1815 000d 13       		.byte	(.L261-.L257)/2
 1816 000e 13       		.byte	(.L261-.L257)/2
 1817 000f 13       		.byte	(.L261-.L257)/2
 1818 0010 0D       		.byte	(.L259-.L257)/2
 1819 0011 13       		.byte	(.L261-.L257)/2
 1820 0012 13       		.byte	(.L261-.L257)/2
 1821 0013 13       		.byte	(.L261-.L257)/2
 1822 0014 10       		.byte	(.L260-.L257)/2
 1823 0015 00       		.p2align 1
 1824              	.L256:
 1825 0016 0368     		ldr	r3, [r0]
 1826 0018 586B     		ldr	r0, [r3, #52]
 1827 001a 7047     		bx	lr
 1828              	.L258:
 1829 001c 0368     		ldr	r3, [r0]
 1830 001e 986B     		ldr	r0, [r3, #56]
 1831 0020 7047     		bx	lr
 1832              	.L259:
 1833 0022 0368     		ldr	r3, [r0]
 1834 0024 D86B     		ldr	r0, [r3, #60]
 1835 0026 7047     		bx	lr
 1836              	.L260:
 1837 0028 0368     		ldr	r3, [r0]
 1838 002a 186C     		ldr	r0, [r3, #64]
 1839 002c 7047     		bx	lr
 1840              	.L261:
 1841 002e 0020     		movs	r0, #0
 1842 0030 7047     		bx	lr
 1844              		.section	.text.HAL_TIM_PeriodElapsedCallback,"ax",%progbits
 1845              		.align	1
 1846              		.weak	HAL_TIM_PeriodElapsedCallback
 1847              		.thumb
 1848              		.thumb_func
 1850              	HAL_TIM_PeriodElapsedCallback:
 1851              		@ args = 0, pretend = 0, frame = 0
 1852              		@ frame_needed = 0, uses_anonymous_args = 0
 1853              		@ link register save eliminated.
 1854 0000 7047     		bx	lr
 1856              		.section	.text.TIM_DMAPeriodElapsedCplt,"ax",%progbits
 1857              		.align	1
ARM GAS  /tmp/ccOz2YRp.s 			page 32


 1858              		.thumb
 1859              		.thumb_func
 1861              	TIM_DMAPeriodElapsedCplt:
 1862              		@ args = 0, pretend = 0, frame = 0
 1863              		@ frame_needed = 0, uses_anonymous_args = 0
 1864 0000 08B5     		push	{r3, lr}
 1865 0002 406A     		ldr	r0, [r0, #36]
 1866 0004 0123     		movs	r3, #1
 1867 0006 80F83D30 		strb	r3, [r0, #61]
 1868 000a FFF7FEFF 		bl	HAL_TIM_PeriodElapsedCallback
 1869 000e 08BD     		pop	{r3, pc}
 1871              		.section	.text.HAL_TIM_PeriodElapsedHalfCpltCallback,"ax",%progbits
 1872              		.align	1
 1873              		.weak	HAL_TIM_PeriodElapsedHalfCpltCallback
 1874              		.thumb
 1875              		.thumb_func
 1877              	HAL_TIM_PeriodElapsedHalfCpltCallback:
 1878              		@ args = 0, pretend = 0, frame = 0
 1879              		@ frame_needed = 0, uses_anonymous_args = 0
 1880              		@ link register save eliminated.
 1881 0000 7047     		bx	lr
 1883              		.section	.text.TIM_DMAPeriodElapsedHalfCplt,"ax",%progbits
 1884              		.align	1
 1885              		.thumb
 1886              		.thumb_func
 1888              	TIM_DMAPeriodElapsedHalfCplt:
 1889              		@ args = 0, pretend = 0, frame = 0
 1890              		@ frame_needed = 0, uses_anonymous_args = 0
 1891 0000 08B5     		push	{r3, lr}
 1892 0002 406A     		ldr	r0, [r0, #36]
 1893 0004 0123     		movs	r3, #1
 1894 0006 80F83D30 		strb	r3, [r0, #61]
 1895 000a FFF7FEFF 		bl	HAL_TIM_PeriodElapsedHalfCpltCallback
 1896 000e 08BD     		pop	{r3, pc}
 1898              		.section	.text.HAL_TIM_OC_DelayElapsedCallback,"ax",%progbits
 1899              		.align	1
 1900              		.weak	HAL_TIM_OC_DelayElapsedCallback
 1901              		.thumb
 1902              		.thumb_func
 1904              	HAL_TIM_OC_DelayElapsedCallback:
 1905              		@ args = 0, pretend = 0, frame = 0
 1906              		@ frame_needed = 0, uses_anonymous_args = 0
 1907              		@ link register save eliminated.
 1908 0000 7047     		bx	lr
 1910              		.section	.text.HAL_TIM_IC_CaptureCallback,"ax",%progbits
 1911              		.align	1
 1912              		.weak	HAL_TIM_IC_CaptureCallback
 1913              		.thumb
 1914              		.thumb_func
 1916              	HAL_TIM_IC_CaptureCallback:
 1917              		@ args = 0, pretend = 0, frame = 0
 1918              		@ frame_needed = 0, uses_anonymous_args = 0
 1919              		@ link register save eliminated.
 1920 0000 7047     		bx	lr
 1922              		.section	.text.TIM_DMACaptureCplt,"ax",%progbits
 1923              		.align	1
 1924              		.global	TIM_DMACaptureCplt
ARM GAS  /tmp/ccOz2YRp.s 			page 33


 1925              		.thumb
 1926              		.thumb_func
 1928              	TIM_DMACaptureCplt:
 1929              		@ args = 0, pretend = 0, frame = 0
 1930              		@ frame_needed = 0, uses_anonymous_args = 0
 1931 0000 10B5     		push	{r4, lr}
 1932 0002 446A     		ldr	r4, [r0, #36]
 1933 0004 0123     		movs	r3, #1
 1934 0006 626A     		ldr	r2, [r4, #36]
 1935 0008 84F83D30 		strb	r3, [r4, #61]
 1936 000c 9042     		cmp	r0, r2
 1937 000e 0DD0     		beq	.L273
 1938 0010 A36A     		ldr	r3, [r4, #40]
 1939 0012 9842     		cmp	r0, r3
 1940 0014 01D1     		bne	.L271
 1941 0016 0223     		movs	r3, #2
 1942 0018 08E0     		b	.L273
 1943              	.L271:
 1944 001a E36A     		ldr	r3, [r4, #44]
 1945 001c 9842     		cmp	r0, r3
 1946 001e 01D1     		bne	.L272
 1947 0020 0423     		movs	r3, #4
 1948 0022 03E0     		b	.L273
 1949              	.L272:
 1950 0024 236B     		ldr	r3, [r4, #48]
 1951 0026 9842     		cmp	r0, r3
 1952 0028 01D1     		bne	.L270
 1953 002a 0823     		movs	r3, #8
 1954              	.L273:
 1955 002c 2377     		strb	r3, [r4, #28]
 1956              	.L270:
 1957 002e 2046     		mov	r0, r4
 1958 0030 FFF7FEFF 		bl	HAL_TIM_IC_CaptureCallback
 1959 0034 0023     		movs	r3, #0
 1960 0036 2377     		strb	r3, [r4, #28]
 1961 0038 10BD     		pop	{r4, pc}
 1963              		.section	.text.HAL_TIM_IC_CaptureHalfCpltCallback,"ax",%progbits
 1964              		.align	1
 1965              		.weak	HAL_TIM_IC_CaptureHalfCpltCallback
 1966              		.thumb
 1967              		.thumb_func
 1969              	HAL_TIM_IC_CaptureHalfCpltCallback:
 1970              		@ args = 0, pretend = 0, frame = 0
 1971              		@ frame_needed = 0, uses_anonymous_args = 0
 1972              		@ link register save eliminated.
 1973 0000 7047     		bx	lr
 1975              		.section	.text.TIM_DMACaptureHalfCplt,"ax",%progbits
 1976              		.align	1
 1977              		.global	TIM_DMACaptureHalfCplt
 1978              		.thumb
 1979              		.thumb_func
 1981              	TIM_DMACaptureHalfCplt:
 1982              		@ args = 0, pretend = 0, frame = 0
 1983              		@ frame_needed = 0, uses_anonymous_args = 0
 1984 0000 10B5     		push	{r4, lr}
 1985 0002 446A     		ldr	r4, [r0, #36]
 1986 0004 0123     		movs	r3, #1
ARM GAS  /tmp/ccOz2YRp.s 			page 34


 1987 0006 626A     		ldr	r2, [r4, #36]
 1988 0008 84F83D30 		strb	r3, [r4, #61]
 1989 000c 9042     		cmp	r0, r2
 1990 000e 0DD0     		beq	.L280
 1991 0010 A36A     		ldr	r3, [r4, #40]
 1992 0012 9842     		cmp	r0, r3
 1993 0014 01D1     		bne	.L278
 1994 0016 0223     		movs	r3, #2
 1995 0018 08E0     		b	.L280
 1996              	.L278:
 1997 001a E36A     		ldr	r3, [r4, #44]
 1998 001c 9842     		cmp	r0, r3
 1999 001e 01D1     		bne	.L279
 2000 0020 0423     		movs	r3, #4
 2001 0022 03E0     		b	.L280
 2002              	.L279:
 2003 0024 236B     		ldr	r3, [r4, #48]
 2004 0026 9842     		cmp	r0, r3
 2005 0028 01D1     		bne	.L277
 2006 002a 0823     		movs	r3, #8
 2007              	.L280:
 2008 002c 2377     		strb	r3, [r4, #28]
 2009              	.L277:
 2010 002e 2046     		mov	r0, r4
 2011 0030 FFF7FEFF 		bl	HAL_TIM_IC_CaptureHalfCpltCallback
 2012 0034 0023     		movs	r3, #0
 2013 0036 2377     		strb	r3, [r4, #28]
 2014 0038 10BD     		pop	{r4, pc}
 2016              		.section	.text.HAL_TIM_PWM_PulseFinishedCallback,"ax",%progbits
 2017              		.align	1
 2018              		.weak	HAL_TIM_PWM_PulseFinishedCallback
 2019              		.thumb
 2020              		.thumb_func
 2022              	HAL_TIM_PWM_PulseFinishedCallback:
 2023              		@ args = 0, pretend = 0, frame = 0
 2024              		@ frame_needed = 0, uses_anonymous_args = 0
 2025              		@ link register save eliminated.
 2026 0000 7047     		bx	lr
 2028              		.section	.text.TIM_DMADelayPulseCplt,"ax",%progbits
 2029              		.align	1
 2030              		.global	TIM_DMADelayPulseCplt
 2031              		.thumb
 2032              		.thumb_func
 2034              	TIM_DMADelayPulseCplt:
 2035              		@ args = 0, pretend = 0, frame = 0
 2036              		@ frame_needed = 0, uses_anonymous_args = 0
 2037 0000 10B5     		push	{r4, lr}
 2038 0002 446A     		ldr	r4, [r0, #36]
 2039 0004 0123     		movs	r3, #1
 2040 0006 626A     		ldr	r2, [r4, #36]
 2041 0008 84F83D30 		strb	r3, [r4, #61]
 2042 000c 9042     		cmp	r0, r2
 2043 000e 0DD0     		beq	.L287
 2044 0010 A36A     		ldr	r3, [r4, #40]
 2045 0012 9842     		cmp	r0, r3
 2046 0014 01D1     		bne	.L285
 2047 0016 0223     		movs	r3, #2
ARM GAS  /tmp/ccOz2YRp.s 			page 35


 2048 0018 08E0     		b	.L287
 2049              	.L285:
 2050 001a E36A     		ldr	r3, [r4, #44]
 2051 001c 9842     		cmp	r0, r3
 2052 001e 01D1     		bne	.L286
 2053 0020 0423     		movs	r3, #4
 2054 0022 03E0     		b	.L287
 2055              	.L286:
 2056 0024 236B     		ldr	r3, [r4, #48]
 2057 0026 9842     		cmp	r0, r3
 2058 0028 01D1     		bne	.L284
 2059 002a 0823     		movs	r3, #8
 2060              	.L287:
 2061 002c 2377     		strb	r3, [r4, #28]
 2062              	.L284:
 2063 002e 2046     		mov	r0, r4
 2064 0030 FFF7FEFF 		bl	HAL_TIM_PWM_PulseFinishedCallback
 2065 0034 0023     		movs	r3, #0
 2066 0036 2377     		strb	r3, [r4, #28]
 2067 0038 10BD     		pop	{r4, pc}
 2069              		.section	.text.HAL_TIM_PWM_PulseFinishedHalfCpltCallback,"ax",%progbits
 2070              		.align	1
 2071              		.weak	HAL_TIM_PWM_PulseFinishedHalfCpltCallback
 2072              		.thumb
 2073              		.thumb_func
 2075              	HAL_TIM_PWM_PulseFinishedHalfCpltCallback:
 2076              		@ args = 0, pretend = 0, frame = 0
 2077              		@ frame_needed = 0, uses_anonymous_args = 0
 2078              		@ link register save eliminated.
 2079 0000 7047     		bx	lr
 2081              		.section	.text.TIM_DMADelayPulseHalfCplt,"ax",%progbits
 2082              		.align	1
 2083              		.global	TIM_DMADelayPulseHalfCplt
 2084              		.thumb
 2085              		.thumb_func
 2087              	TIM_DMADelayPulseHalfCplt:
 2088              		@ args = 0, pretend = 0, frame = 0
 2089              		@ frame_needed = 0, uses_anonymous_args = 0
 2090 0000 10B5     		push	{r4, lr}
 2091 0002 446A     		ldr	r4, [r0, #36]
 2092 0004 0123     		movs	r3, #1
 2093 0006 626A     		ldr	r2, [r4, #36]
 2094 0008 84F83D30 		strb	r3, [r4, #61]
 2095 000c 9042     		cmp	r0, r2
 2096 000e 0DD0     		beq	.L294
 2097 0010 A36A     		ldr	r3, [r4, #40]
 2098 0012 9842     		cmp	r0, r3
 2099 0014 01D1     		bne	.L292
 2100 0016 0223     		movs	r3, #2
 2101 0018 08E0     		b	.L294
 2102              	.L292:
 2103 001a E36A     		ldr	r3, [r4, #44]
 2104 001c 9842     		cmp	r0, r3
 2105 001e 01D1     		bne	.L293
 2106 0020 0423     		movs	r3, #4
 2107 0022 03E0     		b	.L294
 2108              	.L293:
ARM GAS  /tmp/ccOz2YRp.s 			page 36


 2109 0024 236B     		ldr	r3, [r4, #48]
 2110 0026 9842     		cmp	r0, r3
 2111 0028 01D1     		bne	.L291
 2112 002a 0823     		movs	r3, #8
 2113              	.L294:
 2114 002c 2377     		strb	r3, [r4, #28]
 2115              	.L291:
 2116 002e 2046     		mov	r0, r4
 2117 0030 FFF7FEFF 		bl	HAL_TIM_PWM_PulseFinishedHalfCpltCallback
 2118 0034 0023     		movs	r3, #0
 2119 0036 2377     		strb	r3, [r4, #28]
 2120 0038 10BD     		pop	{r4, pc}
 2122              		.section	.text.HAL_TIM_TriggerCallback,"ax",%progbits
 2123              		.align	1
 2124              		.weak	HAL_TIM_TriggerCallback
 2125              		.thumb
 2126              		.thumb_func
 2128              	HAL_TIM_TriggerCallback:
 2129              		@ args = 0, pretend = 0, frame = 0
 2130              		@ frame_needed = 0, uses_anonymous_args = 0
 2131              		@ link register save eliminated.
 2132 0000 7047     		bx	lr
 2134              		.section	.text.HAL_TIM_IRQHandler,"ax",%progbits
 2135              		.align	1
 2136              		.global	HAL_TIM_IRQHandler
 2137              		.thumb
 2138              		.thumb_func
 2140              	HAL_TIM_IRQHandler:
 2141              		@ args = 0, pretend = 0, frame = 0
 2142              		@ frame_needed = 0, uses_anonymous_args = 0
 2143 0000 0368     		ldr	r3, [r0]
 2144 0002 10B5     		push	{r4, lr}
 2145 0004 1A69     		ldr	r2, [r3, #16]
 2146 0006 0446     		mov	r4, r0
 2147 0008 9107     		lsls	r1, r2, #30
 2148 000a 14D5     		bpl	.L297
 2149 000c DA68     		ldr	r2, [r3, #12]
 2150 000e 9207     		lsls	r2, r2, #30
 2151 0010 11D5     		bpl	.L297
 2152 0012 6FF00202 		mvn	r2, #2
 2153 0016 1A61     		str	r2, [r3, #16]
 2154 0018 9B69     		ldr	r3, [r3, #24]
 2155 001a 0122     		movs	r2, #1
 2156 001c 9B07     		lsls	r3, r3, #30
 2157 001e 0277     		strb	r2, [r0, #28]
 2158 0020 02D0     		beq	.L298
 2159 0022 FFF7FEFF 		bl	HAL_TIM_IC_CaptureCallback
 2160 0026 04E0     		b	.L299
 2161              	.L298:
 2162 0028 FFF7FEFF 		bl	HAL_TIM_OC_DelayElapsedCallback
 2163 002c 2046     		mov	r0, r4
 2164 002e FFF7FEFF 		bl	HAL_TIM_PWM_PulseFinishedCallback
 2165              	.L299:
 2166 0032 0023     		movs	r3, #0
 2167 0034 2377     		strb	r3, [r4, #28]
 2168              	.L297:
 2169 0036 2368     		ldr	r3, [r4]
ARM GAS  /tmp/ccOz2YRp.s 			page 37


 2170 0038 1A69     		ldr	r2, [r3, #16]
 2171 003a 5007     		lsls	r0, r2, #29
 2172 003c 16D5     		bpl	.L300
 2173 003e DA68     		ldr	r2, [r3, #12]
 2174 0040 5107     		lsls	r1, r2, #29
 2175 0042 13D5     		bpl	.L300
 2176 0044 6FF00402 		mvn	r2, #4
 2177 0048 1A61     		str	r2, [r3, #16]
 2178 004a 9B69     		ldr	r3, [r3, #24]
 2179 004c 0222     		movs	r2, #2
 2180 004e 13F4407F 		tst	r3, #768
 2181 0052 2277     		strb	r2, [r4, #28]
 2182 0054 2046     		mov	r0, r4
 2183 0056 02D0     		beq	.L301
 2184 0058 FFF7FEFF 		bl	HAL_TIM_IC_CaptureCallback
 2185 005c 04E0     		b	.L302
 2186              	.L301:
 2187 005e FFF7FEFF 		bl	HAL_TIM_OC_DelayElapsedCallback
 2188 0062 2046     		mov	r0, r4
 2189 0064 FFF7FEFF 		bl	HAL_TIM_PWM_PulseFinishedCallback
 2190              	.L302:
 2191 0068 0023     		movs	r3, #0
 2192 006a 2377     		strb	r3, [r4, #28]
 2193              	.L300:
 2194 006c 2368     		ldr	r3, [r4]
 2195 006e 1A69     		ldr	r2, [r3, #16]
 2196 0070 1207     		lsls	r2, r2, #28
 2197 0072 15D5     		bpl	.L303
 2198 0074 DA68     		ldr	r2, [r3, #12]
 2199 0076 1007     		lsls	r0, r2, #28
 2200 0078 12D5     		bpl	.L303
 2201 007a 6FF00802 		mvn	r2, #8
 2202 007e 1A61     		str	r2, [r3, #16]
 2203 0080 DB69     		ldr	r3, [r3, #28]
 2204 0082 0422     		movs	r2, #4
 2205 0084 9907     		lsls	r1, r3, #30
 2206 0086 2277     		strb	r2, [r4, #28]
 2207 0088 2046     		mov	r0, r4
 2208 008a 02D0     		beq	.L304
 2209 008c FFF7FEFF 		bl	HAL_TIM_IC_CaptureCallback
 2210 0090 04E0     		b	.L305
 2211              	.L304:
 2212 0092 FFF7FEFF 		bl	HAL_TIM_OC_DelayElapsedCallback
 2213 0096 2046     		mov	r0, r4
 2214 0098 FFF7FEFF 		bl	HAL_TIM_PWM_PulseFinishedCallback
 2215              	.L305:
 2216 009c 0023     		movs	r3, #0
 2217 009e 2377     		strb	r3, [r4, #28]
 2218              	.L303:
 2219 00a0 2368     		ldr	r3, [r4]
 2220 00a2 1A69     		ldr	r2, [r3, #16]
 2221 00a4 D206     		lsls	r2, r2, #27
 2222 00a6 16D5     		bpl	.L306
 2223 00a8 DA68     		ldr	r2, [r3, #12]
 2224 00aa D006     		lsls	r0, r2, #27
 2225 00ac 13D5     		bpl	.L306
 2226 00ae 6FF01002 		mvn	r2, #16
ARM GAS  /tmp/ccOz2YRp.s 			page 38


 2227 00b2 1A61     		str	r2, [r3, #16]
 2228 00b4 DB69     		ldr	r3, [r3, #28]
 2229 00b6 0822     		movs	r2, #8
 2230 00b8 13F4407F 		tst	r3, #768
 2231 00bc 2277     		strb	r2, [r4, #28]
 2232 00be 2046     		mov	r0, r4
 2233 00c0 02D0     		beq	.L307
 2234 00c2 FFF7FEFF 		bl	HAL_TIM_IC_CaptureCallback
 2235 00c6 04E0     		b	.L308
 2236              	.L307:
 2237 00c8 FFF7FEFF 		bl	HAL_TIM_OC_DelayElapsedCallback
 2238 00cc 2046     		mov	r0, r4
 2239 00ce FFF7FEFF 		bl	HAL_TIM_PWM_PulseFinishedCallback
 2240              	.L308:
 2241 00d2 0023     		movs	r3, #0
 2242 00d4 2377     		strb	r3, [r4, #28]
 2243              	.L306:
 2244 00d6 2368     		ldr	r3, [r4]
 2245 00d8 1A69     		ldr	r2, [r3, #16]
 2246 00da D107     		lsls	r1, r2, #31
 2247 00dc 08D5     		bpl	.L309
 2248 00de DA68     		ldr	r2, [r3, #12]
 2249 00e0 D207     		lsls	r2, r2, #31
 2250 00e2 05D5     		bpl	.L309
 2251 00e4 6FF00102 		mvn	r2, #1
 2252 00e8 1A61     		str	r2, [r3, #16]
 2253 00ea 2046     		mov	r0, r4
 2254 00ec FFF7FEFF 		bl	HAL_TIM_PeriodElapsedCallback
 2255              	.L309:
 2256 00f0 2368     		ldr	r3, [r4]
 2257 00f2 1A69     		ldr	r2, [r3, #16]
 2258 00f4 1006     		lsls	r0, r2, #24
 2259 00f6 08D5     		bpl	.L310
 2260 00f8 DA68     		ldr	r2, [r3, #12]
 2261 00fa 1106     		lsls	r1, r2, #24
 2262 00fc 05D5     		bpl	.L310
 2263 00fe 6FF08002 		mvn	r2, #128
 2264 0102 1A61     		str	r2, [r3, #16]
 2265 0104 2046     		mov	r0, r4
 2266 0106 FFF7FEFF 		bl	HAL_TIMEx_BreakCallback
 2267              	.L310:
 2268 010a 2368     		ldr	r3, [r4]
 2269 010c 1A69     		ldr	r2, [r3, #16]
 2270 010e 5206     		lsls	r2, r2, #25
 2271 0110 08D5     		bpl	.L311
 2272 0112 DA68     		ldr	r2, [r3, #12]
 2273 0114 5006     		lsls	r0, r2, #25
 2274 0116 05D5     		bpl	.L311
 2275 0118 6FF04002 		mvn	r2, #64
 2276 011c 1A61     		str	r2, [r3, #16]
 2277 011e 2046     		mov	r0, r4
 2278 0120 FFF7FEFF 		bl	HAL_TIM_TriggerCallback
 2279              	.L311:
 2280 0124 2368     		ldr	r3, [r4]
 2281 0126 1A69     		ldr	r2, [r3, #16]
 2282 0128 9106     		lsls	r1, r2, #26
 2283 012a 0AD5     		bpl	.L296
ARM GAS  /tmp/ccOz2YRp.s 			page 39


 2284 012c DA68     		ldr	r2, [r3, #12]
 2285 012e 9206     		lsls	r2, r2, #26
 2286 0130 07D5     		bpl	.L296
 2287 0132 6FF02002 		mvn	r2, #32
 2288 0136 2046     		mov	r0, r4
 2289 0138 BDE81040 		pop	{r4, lr}
 2290 013c 1A61     		str	r2, [r3, #16]
 2291 013e FFF7FEBF 		b	HAL_TIMEx_CommutCallback
 2292              	.L296:
 2293 0142 10BD     		pop	{r4, pc}
 2295              		.section	.text.TIM_DMATriggerCplt,"ax",%progbits
 2296              		.align	1
 2297              		.thumb
 2298              		.thumb_func
 2300              	TIM_DMATriggerCplt:
 2301              		@ args = 0, pretend = 0, frame = 0
 2302              		@ frame_needed = 0, uses_anonymous_args = 0
 2303 0000 08B5     		push	{r3, lr}
 2304 0002 406A     		ldr	r0, [r0, #36]
 2305 0004 0123     		movs	r3, #1
 2306 0006 80F83D30 		strb	r3, [r0, #61]
 2307 000a FFF7FEFF 		bl	HAL_TIM_TriggerCallback
 2308 000e 08BD     		pop	{r3, pc}
 2310              		.section	.text.HAL_TIM_TriggerHalfCpltCallback,"ax",%progbits
 2311              		.align	1
 2312              		.weak	HAL_TIM_TriggerHalfCpltCallback
 2313              		.thumb
 2314              		.thumb_func
 2316              	HAL_TIM_TriggerHalfCpltCallback:
 2317              		@ args = 0, pretend = 0, frame = 0
 2318              		@ frame_needed = 0, uses_anonymous_args = 0
 2319              		@ link register save eliminated.
 2320 0000 7047     		bx	lr
 2322              		.section	.text.TIM_DMATriggerHalfCplt,"ax",%progbits
 2323              		.align	1
 2324              		.thumb
 2325              		.thumb_func
 2327              	TIM_DMATriggerHalfCplt:
 2328              		@ args = 0, pretend = 0, frame = 0
 2329              		@ frame_needed = 0, uses_anonymous_args = 0
 2330 0000 08B5     		push	{r3, lr}
 2331 0002 406A     		ldr	r0, [r0, #36]
 2332 0004 0123     		movs	r3, #1
 2333 0006 80F83D30 		strb	r3, [r0, #61]
 2334 000a FFF7FEFF 		bl	HAL_TIM_TriggerHalfCpltCallback
 2335 000e 08BD     		pop	{r3, pc}
 2337              		.section	.text.HAL_TIM_ErrorCallback,"ax",%progbits
 2338              		.align	1
 2339              		.weak	HAL_TIM_ErrorCallback
 2340              		.thumb
 2341              		.thumb_func
 2343              	HAL_TIM_ErrorCallback:
 2344              		@ args = 0, pretend = 0, frame = 0
 2345              		@ frame_needed = 0, uses_anonymous_args = 0
 2346              		@ link register save eliminated.
 2347 0000 7047     		bx	lr
 2349              		.section	.text.TIM_DMAError,"ax",%progbits
ARM GAS  /tmp/ccOz2YRp.s 			page 40


 2350              		.align	1
 2351              		.global	TIM_DMAError
 2352              		.thumb
 2353              		.thumb_func
 2355              	TIM_DMAError:
 2356              		@ args = 0, pretend = 0, frame = 0
 2357              		@ frame_needed = 0, uses_anonymous_args = 0
 2358 0000 08B5     		push	{r3, lr}
 2359 0002 406A     		ldr	r0, [r0, #36]
 2360 0004 0123     		movs	r3, #1
 2361 0006 80F83D30 		strb	r3, [r0, #61]
 2362 000a FFF7FEFF 		bl	HAL_TIM_ErrorCallback
 2363 000e 08BD     		pop	{r3, pc}
 2365              		.section	.text.HAL_TIM_Base_GetState,"ax",%progbits
 2366              		.align	1
 2367              		.global	HAL_TIM_Base_GetState
 2368              		.thumb
 2369              		.thumb_func
 2371              	HAL_TIM_Base_GetState:
 2372              		@ args = 0, pretend = 0, frame = 0
 2373              		@ frame_needed = 0, uses_anonymous_args = 0
 2374              		@ link register save eliminated.
 2375 0000 90F83D00 		ldrb	r0, [r0, #61]	@ zero_extendqisi2
 2376 0004 7047     		bx	lr
 2378              		.section	.text.HAL_TIM_OC_GetState,"ax",%progbits
 2379              		.align	1
 2380              		.global	HAL_TIM_OC_GetState
 2381              		.thumb
 2382              		.thumb_func
 2384              	HAL_TIM_OC_GetState:
 2385              		@ args = 0, pretend = 0, frame = 0
 2386              		@ frame_needed = 0, uses_anonymous_args = 0
 2387              		@ link register save eliminated.
 2388 0000 90F83D00 		ldrb	r0, [r0, #61]	@ zero_extendqisi2
 2389 0004 7047     		bx	lr
 2391              		.section	.text.HAL_TIM_PWM_GetState,"ax",%progbits
 2392              		.align	1
 2393              		.global	HAL_TIM_PWM_GetState
 2394              		.thumb
 2395              		.thumb_func
 2397              	HAL_TIM_PWM_GetState:
 2398              		@ args = 0, pretend = 0, frame = 0
 2399              		@ frame_needed = 0, uses_anonymous_args = 0
 2400              		@ link register save eliminated.
 2401 0000 90F83D00 		ldrb	r0, [r0, #61]	@ zero_extendqisi2
 2402 0004 7047     		bx	lr
 2404              		.section	.text.HAL_TIM_IC_GetState,"ax",%progbits
 2405              		.align	1
 2406              		.global	HAL_TIM_IC_GetState
 2407              		.thumb
 2408              		.thumb_func
 2410              	HAL_TIM_IC_GetState:
 2411              		@ args = 0, pretend = 0, frame = 0
 2412              		@ frame_needed = 0, uses_anonymous_args = 0
 2413              		@ link register save eliminated.
 2414 0000 90F83D00 		ldrb	r0, [r0, #61]	@ zero_extendqisi2
 2415 0004 7047     		bx	lr
ARM GAS  /tmp/ccOz2YRp.s 			page 41


 2417              		.section	.text.HAL_TIM_OnePulse_GetState,"ax",%progbits
 2418              		.align	1
 2419              		.global	HAL_TIM_OnePulse_GetState
 2420              		.thumb
 2421              		.thumb_func
 2423              	HAL_TIM_OnePulse_GetState:
 2424              		@ args = 0, pretend = 0, frame = 0
 2425              		@ frame_needed = 0, uses_anonymous_args = 0
 2426              		@ link register save eliminated.
 2427 0000 90F83D00 		ldrb	r0, [r0, #61]	@ zero_extendqisi2
 2428 0004 7047     		bx	lr
 2430              		.section	.text.HAL_TIM_Encoder_GetState,"ax",%progbits
 2431              		.align	1
 2432              		.global	HAL_TIM_Encoder_GetState
 2433              		.thumb
 2434              		.thumb_func
 2436              	HAL_TIM_Encoder_GetState:
 2437              		@ args = 0, pretend = 0, frame = 0
 2438              		@ frame_needed = 0, uses_anonymous_args = 0
 2439              		@ link register save eliminated.
 2440 0000 90F83D00 		ldrb	r0, [r0, #61]	@ zero_extendqisi2
 2441 0004 7047     		bx	lr
 2443              		.section	.text.TIM_Base_SetConfig,"ax",%progbits
 2444              		.align	1
 2445              		.global	TIM_Base_SetConfig
 2446              		.thumb
 2447              		.thumb_func
 2449              	TIM_Base_SetConfig:
 2450              		@ args = 0, pretend = 0, frame = 0
 2451              		@ frame_needed = 0, uses_anonymous_args = 0
 2452              		@ link register save eliminated.
 2453 0000 264A     		ldr	r2, .L385
 2454 0002 0368     		ldr	r3, [r0]
 2455 0004 9042     		cmp	r0, r2
 2456 0006 0AD0     		beq	.L373
 2457 0008 B0F1804F 		cmp	r0, #1073741824
 2458 000c 07D0     		beq	.L373
 2459 000e A2F59432 		sub	r2, r2, #75776
 2460 0012 9042     		cmp	r0, r2
 2461 0014 03D0     		beq	.L373
 2462 0016 02F58062 		add	r2, r2, #1024
 2463 001a 9042     		cmp	r0, r2
 2464 001c 11D1     		bne	.L374
 2465              	.L373:
 2466 001e 4A68     		ldr	r2, [r1, #4]
 2467 0020 23F07003 		bic	r3, r3, #112
 2468 0024 1343     		orrs	r3, r3, r2
 2469 0026 1D4A     		ldr	r2, .L385
 2470 0028 9042     		cmp	r0, r2
 2471 002a 15D0     		beq	.L375
 2472 002c B0F1804F 		cmp	r0, #1073741824
 2473 0030 12D0     		beq	.L375
 2474 0032 A2F59432 		sub	r2, r2, #75776
 2475 0036 9042     		cmp	r0, r2
 2476 0038 0ED0     		beq	.L375
 2477 003a 02F58062 		add	r2, r2, #1024
 2478 003e 9042     		cmp	r0, r2
ARM GAS  /tmp/ccOz2YRp.s 			page 42


 2479 0040 0AD0     		beq	.L375
 2480              	.L374:
 2481 0042 174A     		ldr	r2, .L385+4
 2482 0044 9042     		cmp	r0, r2
 2483 0046 07D0     		beq	.L375
 2484 0048 02F58062 		add	r2, r2, #1024
 2485 004c 9042     		cmp	r0, r2
 2486 004e 03D0     		beq	.L375
 2487 0050 02F58062 		add	r2, r2, #1024
 2488 0054 9042     		cmp	r0, r2
 2489 0056 03D1     		bne	.L376
 2490              	.L375:
 2491 0058 CA68     		ldr	r2, [r1, #12]
 2492 005a 23F44073 		bic	r3, r3, #768
 2493 005e 1343     		orrs	r3, r3, r2
 2494              	.L376:
 2495 0060 4A69     		ldr	r2, [r1, #20]
 2496 0062 23F08003 		bic	r3, r3, #128
 2497 0066 1343     		orrs	r3, r3, r2
 2498 0068 0360     		str	r3, [r0]
 2499 006a 8B68     		ldr	r3, [r1, #8]
 2500 006c C362     		str	r3, [r0, #44]
 2501 006e 0B68     		ldr	r3, [r1]
 2502 0070 8362     		str	r3, [r0, #40]
 2503 0072 0A4B     		ldr	r3, .L385
 2504 0074 9842     		cmp	r0, r3
 2505 0076 0BD0     		beq	.L377
 2506 0078 03F5A053 		add	r3, r3, #5120
 2507 007c 9842     		cmp	r0, r3
 2508 007e 07D0     		beq	.L377
 2509 0080 03F58063 		add	r3, r3, #1024
 2510 0084 9842     		cmp	r0, r3
 2511 0086 03D0     		beq	.L377
 2512 0088 03F58063 		add	r3, r3, #1024
 2513 008c 9842     		cmp	r0, r3
 2514 008e 01D1     		bne	.L378
 2515              	.L377:
 2516 0090 0B69     		ldr	r3, [r1, #16]
 2517 0092 0363     		str	r3, [r0, #48]
 2518              	.L378:
 2519 0094 0123     		movs	r3, #1
 2520 0096 4361     		str	r3, [r0, #20]
 2521 0098 7047     		bx	lr
 2522              	.L386:
 2523 009a 00BF     		.align	2
 2524              	.L385:
 2525 009c 002C0140 		.word	1073818624
 2526 00a0 00400140 		.word	1073823744
 2528              		.section	.text.HAL_TIM_Base_Init,"ax",%progbits
 2529              		.align	1
 2530              		.global	HAL_TIM_Base_Init
 2531              		.thumb
 2532              		.thumb_func
 2534              	HAL_TIM_Base_Init:
 2535              		@ args = 0, pretend = 0, frame = 0
 2536              		@ frame_needed = 0, uses_anonymous_args = 0
 2537 0000 10B5     		push	{r4, lr}
ARM GAS  /tmp/ccOz2YRp.s 			page 43


 2538 0002 0446     		mov	r4, r0
 2539 0004 A0B1     		cbz	r0, .L390
 2540 0006 90F83D30 		ldrb	r3, [r0, #61]	@ zero_extendqisi2
 2541 000a 03F0FF02 		and	r2, r3, #255
 2542 000e 1BB9     		cbnz	r3, .L389
 2543 0010 80F83C20 		strb	r2, [r0, #60]
 2544 0014 FFF7FEFF 		bl	HAL_TIM_Base_MspInit
 2545              	.L389:
 2546 0018 0223     		movs	r3, #2
 2547 001a 84F83D30 		strb	r3, [r4, #61]
 2548 001e 2068     		ldr	r0, [r4]
 2549 0020 211D     		adds	r1, r4, #4
 2550 0022 FFF7FEFF 		bl	TIM_Base_SetConfig
 2551 0026 0123     		movs	r3, #1
 2552 0028 84F83D30 		strb	r3, [r4, #61]
 2553 002c 0020     		movs	r0, #0
 2554 002e 10BD     		pop	{r4, pc}
 2555              	.L390:
 2556 0030 0120     		movs	r0, #1
 2557 0032 10BD     		pop	{r4, pc}
 2559              		.section	.text.HAL_TIM_OC_Init,"ax",%progbits
 2560              		.align	1
 2561              		.global	HAL_TIM_OC_Init
 2562              		.thumb
 2563              		.thumb_func
 2565              	HAL_TIM_OC_Init:
 2566              		@ args = 0, pretend = 0, frame = 0
 2567              		@ frame_needed = 0, uses_anonymous_args = 0
 2568 0000 10B5     		push	{r4, lr}
 2569 0002 0446     		mov	r4, r0
 2570 0004 A0B1     		cbz	r0, .L394
 2571 0006 90F83D30 		ldrb	r3, [r0, #61]	@ zero_extendqisi2
 2572 000a 03F0FF02 		and	r2, r3, #255
 2573 000e 1BB9     		cbnz	r3, .L393
 2574 0010 80F83C20 		strb	r2, [r0, #60]
 2575 0014 FFF7FEFF 		bl	HAL_TIM_OC_MspInit
 2576              	.L393:
 2577 0018 0223     		movs	r3, #2
 2578 001a 84F83D30 		strb	r3, [r4, #61]
 2579 001e 2068     		ldr	r0, [r4]
 2580 0020 211D     		adds	r1, r4, #4
 2581 0022 FFF7FEFF 		bl	TIM_Base_SetConfig
 2582 0026 0123     		movs	r3, #1
 2583 0028 84F83D30 		strb	r3, [r4, #61]
 2584 002c 0020     		movs	r0, #0
 2585 002e 10BD     		pop	{r4, pc}
 2586              	.L394:
 2587 0030 0120     		movs	r0, #1
 2588 0032 10BD     		pop	{r4, pc}
 2590              		.section	.text.HAL_TIM_PWM_Init,"ax",%progbits
 2591              		.align	1
 2592              		.global	HAL_TIM_PWM_Init
 2593              		.thumb
 2594              		.thumb_func
 2596              	HAL_TIM_PWM_Init:
 2597              		@ args = 0, pretend = 0, frame = 0
 2598              		@ frame_needed = 0, uses_anonymous_args = 0
ARM GAS  /tmp/ccOz2YRp.s 			page 44


 2599 0000 10B5     		push	{r4, lr}
 2600 0002 0446     		mov	r4, r0
 2601 0004 A0B1     		cbz	r0, .L398
 2602 0006 90F83D30 		ldrb	r3, [r0, #61]	@ zero_extendqisi2
 2603 000a 03F0FF02 		and	r2, r3, #255
 2604 000e 1BB9     		cbnz	r3, .L397
 2605 0010 80F83C20 		strb	r2, [r0, #60]
 2606 0014 FFF7FEFF 		bl	HAL_TIM_PWM_MspInit
 2607              	.L397:
 2608 0018 0223     		movs	r3, #2
 2609 001a 84F83D30 		strb	r3, [r4, #61]
 2610 001e 2068     		ldr	r0, [r4]
 2611 0020 211D     		adds	r1, r4, #4
 2612 0022 FFF7FEFF 		bl	TIM_Base_SetConfig
 2613 0026 0123     		movs	r3, #1
 2614 0028 84F83D30 		strb	r3, [r4, #61]
 2615 002c 0020     		movs	r0, #0
 2616 002e 10BD     		pop	{r4, pc}
 2617              	.L398:
 2618 0030 0120     		movs	r0, #1
 2619 0032 10BD     		pop	{r4, pc}
 2621              		.section	.text.HAL_TIM_IC_Init,"ax",%progbits
 2622              		.align	1
 2623              		.global	HAL_TIM_IC_Init
 2624              		.thumb
 2625              		.thumb_func
 2627              	HAL_TIM_IC_Init:
 2628              		@ args = 0, pretend = 0, frame = 0
 2629              		@ frame_needed = 0, uses_anonymous_args = 0
 2630 0000 10B5     		push	{r4, lr}
 2631 0002 0446     		mov	r4, r0
 2632 0004 A0B1     		cbz	r0, .L402
 2633 0006 90F83D30 		ldrb	r3, [r0, #61]	@ zero_extendqisi2
 2634 000a 03F0FF02 		and	r2, r3, #255
 2635 000e 1BB9     		cbnz	r3, .L401
 2636 0010 80F83C20 		strb	r2, [r0, #60]
 2637 0014 FFF7FEFF 		bl	HAL_TIM_IC_MspInit
 2638              	.L401:
 2639 0018 0223     		movs	r3, #2
 2640 001a 84F83D30 		strb	r3, [r4, #61]
 2641 001e 2068     		ldr	r0, [r4]
 2642 0020 211D     		adds	r1, r4, #4
 2643 0022 FFF7FEFF 		bl	TIM_Base_SetConfig
 2644 0026 0123     		movs	r3, #1
 2645 0028 84F83D30 		strb	r3, [r4, #61]
 2646 002c 0020     		movs	r0, #0
 2647 002e 10BD     		pop	{r4, pc}
 2648              	.L402:
 2649 0030 0120     		movs	r0, #1
 2650 0032 10BD     		pop	{r4, pc}
 2652              		.section	.text.HAL_TIM_OnePulse_Init,"ax",%progbits
 2653              		.align	1
 2654              		.global	HAL_TIM_OnePulse_Init
 2655              		.thumb
 2656              		.thumb_func
 2658              	HAL_TIM_OnePulse_Init:
 2659              		@ args = 0, pretend = 0, frame = 0
ARM GAS  /tmp/ccOz2YRp.s 			page 45


 2660              		@ frame_needed = 0, uses_anonymous_args = 0
 2661 0000 38B5     		push	{r3, r4, r5, lr}
 2662 0002 0D46     		mov	r5, r1
 2663 0004 0446     		mov	r4, r0
 2664 0006 E0B1     		cbz	r0, .L406
 2665 0008 90F83D30 		ldrb	r3, [r0, #61]	@ zero_extendqisi2
 2666 000c 03F0FF02 		and	r2, r3, #255
 2667 0010 1BB9     		cbnz	r3, .L405
 2668 0012 80F83C20 		strb	r2, [r0, #60]
 2669 0016 FFF7FEFF 		bl	HAL_TIM_OnePulse_MspInit
 2670              	.L405:
 2671 001a 0223     		movs	r3, #2
 2672 001c 84F83D30 		strb	r3, [r4, #61]
 2673 0020 2068     		ldr	r0, [r4]
 2674 0022 211D     		adds	r1, r4, #4
 2675 0024 FFF7FEFF 		bl	TIM_Base_SetConfig
 2676 0028 2368     		ldr	r3, [r4]
 2677 002a 0020     		movs	r0, #0
 2678 002c 1A68     		ldr	r2, [r3]
 2679 002e 22F00802 		bic	r2, r2, #8
 2680 0032 1A60     		str	r2, [r3]
 2681 0034 1968     		ldr	r1, [r3]
 2682 0036 2943     		orrs	r1, r1, r5
 2683 0038 1960     		str	r1, [r3]
 2684 003a 0123     		movs	r3, #1
 2685 003c 84F83D30 		strb	r3, [r4, #61]
 2686 0040 38BD     		pop	{r3, r4, r5, pc}
 2687              	.L406:
 2688 0042 0120     		movs	r0, #1
 2689 0044 38BD     		pop	{r3, r4, r5, pc}
 2691              		.section	.text.HAL_TIM_Encoder_Init,"ax",%progbits
 2692              		.align	1
 2693              		.global	HAL_TIM_Encoder_Init
 2694              		.thumb
 2695              		.thumb_func
 2697              	HAL_TIM_Encoder_Init:
 2698              		@ args = 0, pretend = 0, frame = 0
 2699              		@ frame_needed = 0, uses_anonymous_args = 0
 2700 0000 F8B5     		push	{r3, r4, r5, r6, r7, lr}
 2701 0002 0C46     		mov	r4, r1
 2702 0004 0546     		mov	r5, r0
 2703 0006 0028     		cmp	r0, #0
 2704 0008 43D0     		beq	.L410
 2705 000a 90F83D30 		ldrb	r3, [r0, #61]	@ zero_extendqisi2
 2706 000e 03F0FF02 		and	r2, r3, #255
 2707 0012 1BB9     		cbnz	r3, .L409
 2708 0014 80F83C20 		strb	r2, [r0, #60]
 2709 0018 FFF7FEFF 		bl	HAL_TIM_Encoder_MspInit
 2710              	.L409:
 2711 001c 2946     		mov	r1, r5
 2712 001e 0223     		movs	r3, #2
 2713 0020 51F8040B 		ldr	r0, [r1], #4
 2714 0024 85F83D30 		strb	r3, [r5, #61]
 2715 0028 8368     		ldr	r3, [r0, #8]
 2716 002a 23F48043 		bic	r3, r3, #16384
 2717 002e 23F00703 		bic	r3, r3, #7
 2718 0032 8360     		str	r3, [r0, #8]
ARM GAS  /tmp/ccOz2YRp.s 			page 46


 2719 0034 FFF7FEFF 		bl	TIM_Base_SetConfig
 2720 0038 2968     		ldr	r1, [r5]
 2721 003a 2268     		ldr	r2, [r4]
 2722 003c 8E68     		ldr	r6, [r1, #8]
 2723 003e 8B69     		ldr	r3, [r1, #24]
 2724 0040 1643     		orrs	r6, r6, r2
 2725 0042 23F44073 		bic	r3, r3, #768
 2726 0046 A269     		ldr	r2, [r4, #24]
 2727 0048 23F00303 		bic	r3, r3, #3
 2728 004c 43EA0222 		orr	r2, r3, r2, lsl #8
 2729 0050 A368     		ldr	r3, [r4, #8]
 2730 0052 2769     		ldr	r7, [r4, #16]
 2731 0054 1343     		orrs	r3, r3, r2
 2732 0056 E269     		ldr	r2, [r4, #28]
 2733 0058 3F01     		lsls	r7, r7, #4
 2734 005a 47EA0227 		orr	r7, r7, r2, lsl #8
 2735 005e E268     		ldr	r2, [r4, #12]
 2736 0060 086A     		ldr	r0, [r1, #32]
 2737 0062 3A43     		orrs	r2, r2, r7
 2738 0064 276A     		ldr	r7, [r4, #32]
 2739 0066 23F47C43 		bic	r3, r3, #64512
 2740 006a 42EA0732 		orr	r2, r2, r7, lsl #12
 2741 006e 23F0FC03 		bic	r3, r3, #252
 2742 0072 1343     		orrs	r3, r3, r2
 2743 0074 20F02202 		bic	r2, r0, #34
 2744 0078 6069     		ldr	r0, [r4, #20]
 2745 007a 42EA0012 		orr	r2, r2, r0, lsl #4
 2746 007e 6068     		ldr	r0, [r4, #4]
 2747 0080 8E60     		str	r6, [r1, #8]
 2748 0082 0243     		orrs	r2, r2, r0
 2749 0084 8B61     		str	r3, [r1, #24]
 2750 0086 0123     		movs	r3, #1
 2751 0088 0A62     		str	r2, [r1, #32]
 2752 008a 0020     		movs	r0, #0
 2753 008c 85F83D30 		strb	r3, [r5, #61]
 2754 0090 F8BD     		pop	{r3, r4, r5, r6, r7, pc}
 2755              	.L410:
 2756 0092 0120     		movs	r0, #1
 2757 0094 F8BD     		pop	{r3, r4, r5, r6, r7, pc}
 2759              		.section	.text.TIM_OC2_SetConfig,"ax",%progbits
 2760              		.align	1
 2761              		.global	TIM_OC2_SetConfig
 2762              		.thumb
 2763              		.thumb_func
 2765              	TIM_OC2_SetConfig:
 2766              		@ args = 0, pretend = 0, frame = 0
 2767              		@ frame_needed = 0, uses_anonymous_args = 0
 2768 0000 036A     		ldr	r3, [r0, #32]
 2769 0002 30B5     		push	{r4, r5, lr}
 2770 0004 23F01003 		bic	r3, r3, #16
 2771 0008 0362     		str	r3, [r0, #32]
 2772 000a 036A     		ldr	r3, [r0, #32]
 2773 000c 4268     		ldr	r2, [r0, #4]
 2774 000e 8469     		ldr	r4, [r0, #24]
 2775 0010 0D68     		ldr	r5, [r1]
 2776 0012 24F4E644 		bic	r4, r4, #29440
 2777 0016 44EA0524 		orr	r4, r4, r5, lsl #8
ARM GAS  /tmp/ccOz2YRp.s 			page 47


 2778 001a 8D68     		ldr	r5, [r1, #8]
 2779 001c 23F02003 		bic	r3, r3, #32
 2780 0020 43EA0513 		orr	r3, r3, r5, lsl #4
 2781 0024 114D     		ldr	r5, .L419
 2782 0026 A842     		cmp	r0, r5
 2783 0028 07D1     		bne	.L412
 2784 002a CD68     		ldr	r5, [r1, #12]
 2785 002c 23F08003 		bic	r3, r3, #128
 2786 0030 43EA0513 		orr	r3, r3, r5, lsl #4
 2787 0034 23F04003 		bic	r3, r3, #64
 2788 0038 05E0     		b	.L413
 2789              	.L412:
 2790 003a 0D4D     		ldr	r5, .L419+4
 2791 003c A842     		cmp	r0, r5
 2792 003e 02D0     		beq	.L413
 2793 0040 0C4D     		ldr	r5, .L419+8
 2794 0042 A842     		cmp	r0, r5
 2795 0044 0DD1     		bne	.L418
 2796              	.L413:
 2797 0046 4D69     		ldr	r5, [r1, #20]
 2798 0048 22F44062 		bic	r2, r2, #3072
 2799 004c 42EA8502 		orr	r2, r2, r5, lsl #2
 2800 0050 8D69     		ldr	r5, [r1, #24]
 2801 0052 42EA8502 		orr	r2, r2, r5, lsl #2
 2802              	.L414:
 2803 0056 4260     		str	r2, [r0, #4]
 2804 0058 4A68     		ldr	r2, [r1, #4]
 2805 005a 8461     		str	r4, [r0, #24]
 2806 005c 8263     		str	r2, [r0, #56]
 2807 005e 0362     		str	r3, [r0, #32]
 2808 0060 30BD     		pop	{r4, r5, pc}
 2809              	.L418:
 2810 0062 05F58065 		add	r5, r5, #1024
 2811 0066 A842     		cmp	r0, r5
 2812 0068 F5D1     		bne	.L414
 2813 006a ECE7     		b	.L413
 2814              	.L420:
 2815              		.align	2
 2816              	.L419:
 2817 006c 002C0140 		.word	1073818624
 2818 0070 00400140 		.word	1073823744
 2819 0074 00440140 		.word	1073824768
 2821              		.section	.text.HAL_TIM_OC_ConfigChannel,"ax",%progbits
 2822              		.align	1
 2823              		.global	HAL_TIM_OC_ConfigChannel
 2824              		.thumb
 2825              		.thumb_func
 2827              	HAL_TIM_OC_ConfigChannel:
 2828              		@ args = 0, pretend = 0, frame = 0
 2829              		@ frame_needed = 0, uses_anonymous_args = 0
 2830 0000 38B5     		push	{r3, r4, r5, lr}
 2831 0002 90F83C30 		ldrb	r3, [r0, #60]	@ zero_extendqisi2
 2832 0006 0446     		mov	r4, r0
 2833 0008 012B     		cmp	r3, #1
 2834 000a 4FF00200 		mov	r0, #2
 2835 000e 24D0     		beq	.L422
 2836 0010 0123     		movs	r3, #1
ARM GAS  /tmp/ccOz2YRp.s 			page 48


 2837 0012 84F83C30 		strb	r3, [r4, #60]
 2838 0016 84F83D00 		strb	r0, [r4, #61]
 2839 001a 1D46     		mov	r5, r3
 2840 001c 0C2A     		cmp	r2, #12
 2841 001e 17D8     		bhi	.L423
 2842 0020 DFE802F0 		tbb	[pc, r2]
 2843              	.L425:
 2844 0024 07       		.byte	(.L424-.L425)/2
 2845 0025 16       		.byte	(.L423-.L425)/2
 2846 0026 16       		.byte	(.L423-.L425)/2
 2847 0027 16       		.byte	(.L423-.L425)/2
 2848 0028 0B       		.byte	(.L426-.L425)/2
 2849 0029 16       		.byte	(.L423-.L425)/2
 2850 002a 16       		.byte	(.L423-.L425)/2
 2851 002b 16       		.byte	(.L423-.L425)/2
 2852 002c 0F       		.byte	(.L427-.L425)/2
 2853 002d 16       		.byte	(.L423-.L425)/2
 2854 002e 16       		.byte	(.L423-.L425)/2
 2855 002f 16       		.byte	(.L423-.L425)/2
 2856 0030 13       		.byte	(.L428-.L425)/2
 2857 0031 00       		.p2align 1
 2858              	.L424:
 2859 0032 2068     		ldr	r0, [r4]
 2860 0034 FFF7FEFF 		bl	TIM_OC1_SetConfig
 2861 0038 0AE0     		b	.L423
 2862              	.L426:
 2863 003a 2068     		ldr	r0, [r4]
 2864 003c FFF7FEFF 		bl	TIM_OC2_SetConfig
 2865 0040 06E0     		b	.L423
 2866              	.L427:
 2867 0042 2068     		ldr	r0, [r4]
 2868 0044 FFF7FEFF 		bl	TIM_OC3_SetConfig
 2869 0048 02E0     		b	.L423
 2870              	.L428:
 2871 004a 2068     		ldr	r0, [r4]
 2872 004c FFF7FEFF 		bl	TIM_OC4_SetConfig
 2873              	.L423:
 2874 0050 0020     		movs	r0, #0
 2875 0052 84F83D50 		strb	r5, [r4, #61]
 2876 0056 84F83C00 		strb	r0, [r4, #60]
 2877              	.L422:
 2878 005a 38BD     		pop	{r3, r4, r5, pc}
 2880              		.section	.text.HAL_TIM_PWM_ConfigChannel,"ax",%progbits
 2881              		.align	1
 2882              		.global	HAL_TIM_PWM_ConfigChannel
 2883              		.thumb
 2884              		.thumb_func
 2886              	HAL_TIM_PWM_ConfigChannel:
 2887              		@ args = 0, pretend = 0, frame = 0
 2888              		@ frame_needed = 0, uses_anonymous_args = 0
 2889 0000 38B5     		push	{r3, r4, r5, lr}
 2890 0002 90F83C30 		ldrb	r3, [r0, #60]	@ zero_extendqisi2
 2891 0006 0446     		mov	r4, r0
 2892 0008 012B     		cmp	r3, #1
 2893 000a 0D46     		mov	r5, r1
 2894 000c 4FF00200 		mov	r0, #2
 2895 0010 58D0     		beq	.L431
ARM GAS  /tmp/ccOz2YRp.s 			page 49


 2896 0012 0123     		movs	r3, #1
 2897 0014 84F83C30 		strb	r3, [r4, #60]
 2898 0018 84F83D00 		strb	r0, [r4, #61]
 2899 001c 0C2A     		cmp	r2, #12
 2900 001e 4BD8     		bhi	.L432
 2901 0020 DFE802F0 		tbb	[pc, r2]
 2902              	.L434:
 2903 0024 07       		.byte	(.L433-.L434)/2
 2904 0025 4A       		.byte	(.L432-.L434)/2
 2905 0026 4A       		.byte	(.L432-.L434)/2
 2906 0027 4A       		.byte	(.L432-.L434)/2
 2907 0028 17       		.byte	(.L435-.L434)/2
 2908 0029 4A       		.byte	(.L432-.L434)/2
 2909 002a 4A       		.byte	(.L432-.L434)/2
 2910 002b 4A       		.byte	(.L432-.L434)/2
 2911 002c 29       		.byte	(.L436-.L434)/2
 2912 002d 4A       		.byte	(.L432-.L434)/2
 2913 002e 4A       		.byte	(.L432-.L434)/2
 2914 002f 4A       		.byte	(.L432-.L434)/2
 2915 0030 39       		.byte	(.L437-.L434)/2
 2916 0031 00       		.p2align 1
 2917              	.L433:
 2918 0032 2068     		ldr	r0, [r4]
 2919 0034 FFF7FEFF 		bl	TIM_OC1_SetConfig
 2920 0038 2368     		ldr	r3, [r4]
 2921 003a 9A69     		ldr	r2, [r3, #24]
 2922 003c 42F00802 		orr	r2, r2, #8
 2923 0040 9A61     		str	r2, [r3, #24]
 2924 0042 9A69     		ldr	r2, [r3, #24]
 2925 0044 22F00402 		bic	r2, r2, #4
 2926 0048 9A61     		str	r2, [r3, #24]
 2927 004a 9969     		ldr	r1, [r3, #24]
 2928 004c 2A69     		ldr	r2, [r5, #16]
 2929 004e 0A43     		orrs	r2, r2, r1
 2930 0050 0FE0     		b	.L439
 2931              	.L435:
 2932 0052 2068     		ldr	r0, [r4]
 2933 0054 FFF7FEFF 		bl	TIM_OC2_SetConfig
 2934 0058 2368     		ldr	r3, [r4]
 2935 005a 2969     		ldr	r1, [r5, #16]
 2936 005c 9A69     		ldr	r2, [r3, #24]
 2937 005e 42F40062 		orr	r2, r2, #2048
 2938 0062 9A61     		str	r2, [r3, #24]
 2939 0064 9A69     		ldr	r2, [r3, #24]
 2940 0066 22F48062 		bic	r2, r2, #1024
 2941 006a 9A61     		str	r2, [r3, #24]
 2942 006c 9A69     		ldr	r2, [r3, #24]
 2943 006e 42EA0122 		orr	r2, r2, r1, lsl #8
 2944              	.L439:
 2945 0072 9A61     		str	r2, [r3, #24]
 2946 0074 20E0     		b	.L432
 2947              	.L436:
 2948 0076 2068     		ldr	r0, [r4]
 2949 0078 FFF7FEFF 		bl	TIM_OC3_SetConfig
 2950 007c 2368     		ldr	r3, [r4]
 2951 007e DA69     		ldr	r2, [r3, #28]
 2952 0080 42F00802 		orr	r2, r2, #8
ARM GAS  /tmp/ccOz2YRp.s 			page 50


 2953 0084 DA61     		str	r2, [r3, #28]
 2954 0086 DA69     		ldr	r2, [r3, #28]
 2955 0088 22F00402 		bic	r2, r2, #4
 2956 008c DA61     		str	r2, [r3, #28]
 2957 008e D969     		ldr	r1, [r3, #28]
 2958 0090 2A69     		ldr	r2, [r5, #16]
 2959 0092 0A43     		orrs	r2, r2, r1
 2960 0094 0FE0     		b	.L440
 2961              	.L437:
 2962 0096 2068     		ldr	r0, [r4]
 2963 0098 FFF7FEFF 		bl	TIM_OC4_SetConfig
 2964 009c 2368     		ldr	r3, [r4]
 2965 009e 2969     		ldr	r1, [r5, #16]
 2966 00a0 DA69     		ldr	r2, [r3, #28]
 2967 00a2 42F40062 		orr	r2, r2, #2048
 2968 00a6 DA61     		str	r2, [r3, #28]
 2969 00a8 DA69     		ldr	r2, [r3, #28]
 2970 00aa 22F48062 		bic	r2, r2, #1024
 2971 00ae DA61     		str	r2, [r3, #28]
 2972 00b0 DA69     		ldr	r2, [r3, #28]
 2973 00b2 42EA0122 		orr	r2, r2, r1, lsl #8
 2974              	.L440:
 2975 00b6 DA61     		str	r2, [r3, #28]
 2976              	.L432:
 2977 00b8 0123     		movs	r3, #1
 2978 00ba 0020     		movs	r0, #0
 2979 00bc 84F83D30 		strb	r3, [r4, #61]
 2980 00c0 84F83C00 		strb	r0, [r4, #60]
 2981              	.L431:
 2982 00c4 38BD     		pop	{r3, r4, r5, pc}
 2984              		.section	.text.TIM_TI1_SetConfig,"ax",%progbits
 2985              		.align	1
 2986              		.global	TIM_TI1_SetConfig
 2987              		.thumb
 2988              		.thumb_func
 2990              	TIM_TI1_SetConfig:
 2991              		@ args = 0, pretend = 0, frame = 0
 2992              		@ frame_needed = 0, uses_anonymous_args = 0
 2993 0000 70B5     		push	{r4, r5, r6, lr}
 2994 0002 046A     		ldr	r4, [r0, #32]
 2995 0004 144E     		ldr	r6, .L450
 2996 0006 24F00104 		bic	r4, r4, #1
 2997 000a 0462     		str	r4, [r0, #32]
 2998 000c B042     		cmp	r0, r6
 2999 000e 8469     		ldr	r4, [r0, #24]
 3000 0010 056A     		ldr	r5, [r0, #32]
 3001 0012 0ED0     		beq	.L442
 3002 0014 B0F1804F 		cmp	r0, #1073741824
 3003 0018 0BD0     		beq	.L442
 3004 001a A6F59436 		sub	r6, r6, #75776
 3005 001e B042     		cmp	r0, r6
 3006 0020 07D0     		beq	.L442
 3007 0022 06F58066 		add	r6, r6, #1024
 3008 0026 B042     		cmp	r0, r6
 3009 0028 03D0     		beq	.L442
 3010 002a 06F59C36 		add	r6, r6, #79872
 3011 002e B042     		cmp	r0, r6
ARM GAS  /tmp/ccOz2YRp.s 			page 51


 3012 0030 0FD1     		bne	.L448
 3013              	.L442:
 3014 0032 24F00304 		bic	r4, r4, #3
 3015 0036 2243     		orrs	r2, r2, r4
 3016              	.L444:
 3017 0038 1B01     		lsls	r3, r3, #4
 3018 003a 22F0F002 		bic	r2, r2, #240
 3019 003e DBB2     		uxtb	r3, r3
 3020 0040 25F00A05 		bic	r5, r5, #10
 3021 0044 01F00A01 		and	r1, r1, #10
 3022 0048 1A43     		orrs	r2, r2, r3
 3023 004a 0D43     		orrs	r5, r5, r1
 3024 004c 8261     		str	r2, [r0, #24]
 3025 004e 0562     		str	r5, [r0, #32]
 3026 0050 70BD     		pop	{r4, r5, r6, pc}
 3027              	.L448:
 3028 0052 44F00102 		orr	r2, r4, #1
 3029 0056 EFE7     		b	.L444
 3030              	.L451:
 3031              		.align	2
 3032              	.L450:
 3033 0058 002C0140 		.word	1073818624
 3035              		.section	.text.HAL_TIM_IC_ConfigChannel,"ax",%progbits
 3036              		.align	1
 3037              		.global	HAL_TIM_IC_ConfigChannel
 3038              		.thumb
 3039              		.thumb_func
 3041              	HAL_TIM_IC_ConfigChannel:
 3042              		@ args = 0, pretend = 0, frame = 0
 3043              		@ frame_needed = 0, uses_anonymous_args = 0
 3044 0000 F8B5     		push	{r3, r4, r5, r6, r7, lr}
 3045 0002 90F83C30 		ldrb	r3, [r0, #60]	@ zero_extendqisi2
 3046 0006 0446     		mov	r4, r0
 3047 0008 012B     		cmp	r3, #1
 3048 000a 0D46     		mov	r5, r1
 3049 000c 4FF00200 		mov	r0, #2
 3050 0010 7FD0     		beq	.L453
 3051 0012 0123     		movs	r3, #1
 3052 0014 84F83C30 		strb	r3, [r4, #60]
 3053 0018 84F83D00 		strb	r0, [r4, #61]
 3054 001c 72B9     		cbnz	r2, .L454
 3055 001e 06C9     		ldmia	r1, {r1, r2}
 3056 0020 EB68     		ldr	r3, [r5, #12]
 3057 0022 2068     		ldr	r0, [r4]
 3058 0024 FFF7FEFF 		bl	TIM_TI1_SetConfig
 3059 0028 2368     		ldr	r3, [r4]
 3060 002a 9A69     		ldr	r2, [r3, #24]
 3061 002c 22F00C02 		bic	r2, r2, #12
 3062 0030 9A61     		str	r2, [r3, #24]
 3063 0032 9969     		ldr	r1, [r3, #24]
 3064 0034 AA68     		ldr	r2, [r5, #8]
 3065 0036 0A43     		orrs	r2, r2, r1
 3066 0038 9A61     		str	r2, [r3, #24]
 3067 003a 64E0     		b	.L455
 3068              	.L454:
 3069 003c 042A     		cmp	r2, #4
 3070 003e 8E68     		ldr	r6, [r1, #8]
ARM GAS  /tmp/ccOz2YRp.s 			page 52


 3071 0040 91E80140 		ldmia	r1, {r0, lr}
 3072 0044 2368     		ldr	r3, [r4]
 3073 0046 C968     		ldr	r1, [r1, #12]
 3074 0048 1FD1     		bne	.L456
 3075 004a 1A6A     		ldr	r2, [r3, #32]
 3076 004c 0903     		lsls	r1, r1, #12
 3077 004e 22F01002 		bic	r2, r2, #16
 3078 0052 1A62     		str	r2, [r3, #32]
 3079 0054 9D69     		ldr	r5, [r3, #24]
 3080 0056 1F6A     		ldr	r7, [r3, #32]
 3081 0058 25F44075 		bic	r5, r5, #768
 3082 005c 45EA0E22 		orr	r2, r5, lr, lsl #8
 3083 0060 0001     		lsls	r0, r0, #4
 3084 0062 22F47042 		bic	r2, r2, #61440
 3085 0066 89B2     		uxth	r1, r1
 3086 0068 27F0A005 		bic	r5, r7, #160
 3087 006c 00F0A000 		and	r0, r0, #160
 3088 0070 0A43     		orrs	r2, r2, r1
 3089 0072 2843     		orrs	r0, r0, r5
 3090 0074 9A61     		str	r2, [r3, #24]
 3091 0076 1862     		str	r0, [r3, #32]
 3092 0078 9A69     		ldr	r2, [r3, #24]
 3093 007a 22F44062 		bic	r2, r2, #3072
 3094 007e 9A61     		str	r2, [r3, #24]
 3095 0080 9A69     		ldr	r2, [r3, #24]
 3096 0082 42EA0626 		orr	r6, r2, r6, lsl #8
 3097 0086 9E61     		str	r6, [r3, #24]
 3098 0088 3DE0     		b	.L455
 3099              	.L456:
 3100 008a 082A     		cmp	r2, #8
 3101 008c 1A6A     		ldr	r2, [r3, #32]
 3102 008e 1CD1     		bne	.L457
 3103 0090 22F48072 		bic	r2, r2, #256
 3104 0094 1A62     		str	r2, [r3, #32]
 3105 0096 DD69     		ldr	r5, [r3, #28]
 3106 0098 1F6A     		ldr	r7, [r3, #32]
 3107 009a 25F00305 		bic	r5, r5, #3
 3108 009e 45EA0E02 		orr	r2, r5, lr
 3109 00a2 0901     		lsls	r1, r1, #4
 3110 00a4 0002     		lsls	r0, r0, #8
 3111 00a6 22F0F002 		bic	r2, r2, #240
 3112 00aa C9B2     		uxtb	r1, r1
 3113 00ac 27F40075 		bic	r5, r7, #512
 3114 00b0 00F40070 		and	r0, r0, #512
 3115 00b4 0A43     		orrs	r2, r2, r1
 3116 00b6 2843     		orrs	r0, r0, r5
 3117 00b8 DA61     		str	r2, [r3, #28]
 3118 00ba 1862     		str	r0, [r3, #32]
 3119 00bc DA69     		ldr	r2, [r3, #28]
 3120 00be 22F00C02 		bic	r2, r2, #12
 3121 00c2 DA61     		str	r2, [r3, #28]
 3122 00c4 DA69     		ldr	r2, [r3, #28]
 3123 00c6 1643     		orrs	r6, r6, r2
 3124 00c8 1CE0     		b	.L459
 3125              	.L457:
 3126 00ca 22F48052 		bic	r2, r2, #4096
 3127 00ce 1A62     		str	r2, [r3, #32]
ARM GAS  /tmp/ccOz2YRp.s 			page 53


 3128 00d0 DD69     		ldr	r5, [r3, #28]
 3129 00d2 0903     		lsls	r1, r1, #12
 3130 00d4 25F44075 		bic	r5, r5, #768
 3131 00d8 1F6A     		ldr	r7, [r3, #32]
 3132 00da 45EA0E22 		orr	r2, r5, lr, lsl #8
 3133 00de 22F47042 		bic	r2, r2, #61440
 3134 00e2 89B2     		uxth	r1, r1
 3135 00e4 0003     		lsls	r0, r0, #12
 3136 00e6 1143     		orrs	r1, r1, r2
 3137 00e8 00F40050 		and	r0, r0, #8192
 3138 00ec 27F40052 		bic	r2, r7, #8192
 3139 00f0 1043     		orrs	r0, r0, r2
 3140 00f2 D961     		str	r1, [r3, #28]
 3141 00f4 1862     		str	r0, [r3, #32]
 3142 00f6 DA69     		ldr	r2, [r3, #28]
 3143 00f8 22F44062 		bic	r2, r2, #3072
 3144 00fc DA61     		str	r2, [r3, #28]
 3145 00fe DA69     		ldr	r2, [r3, #28]
 3146 0100 42EA0626 		orr	r6, r2, r6, lsl #8
 3147              	.L459:
 3148 0104 DE61     		str	r6, [r3, #28]
 3149              	.L455:
 3150 0106 0123     		movs	r3, #1
 3151 0108 0020     		movs	r0, #0
 3152 010a 84F83D30 		strb	r3, [r4, #61]
 3153 010e 84F83C00 		strb	r0, [r4, #60]
 3154              	.L453:
 3155 0112 F8BD     		pop	{r3, r4, r5, r6, r7, pc}
 3157              		.section	.text.HAL_TIM_OnePulse_ConfigChannel,"ax",%progbits
 3158              		.align	1
 3159              		.global	HAL_TIM_OnePulse_ConfigChannel
 3160              		.thumb
 3161              		.thumb_func
 3163              	HAL_TIM_OnePulse_ConfigChannel:
 3164              		@ args = 0, pretend = 0, frame = 32
 3165              		@ frame_needed = 0, uses_anonymous_args = 0
 3166 0000 F0B5     		push	{r4, r5, r6, r7, lr}
 3167 0002 9A42     		cmp	r2, r3
 3168 0004 89B0     		sub	sp, sp, #36
 3169 0006 0546     		mov	r5, r0
 3170 0008 0C46     		mov	r4, r1
 3171 000a 1E46     		mov	r6, r3
 3172 000c 6DD0     		beq	.L468
 3173 000e 90F83C30 		ldrb	r3, [r0, #60]	@ zero_extendqisi2
 3174 0012 0220     		movs	r0, #2
 3175 0014 012B     		cmp	r3, #1
 3176 0016 69D0     		beq	.L461
 3177 0018 0123     		movs	r3, #1
 3178 001a 85F83C30 		strb	r3, [r5, #60]
 3179 001e 0B68     		ldr	r3, [r1]
 3180 0020 85F83D00 		strb	r0, [r5, #61]
 3181 0024 0193     		str	r3, [sp, #4]
 3182 0026 4B68     		ldr	r3, [r1, #4]
 3183 0028 0293     		str	r3, [sp, #8]
 3184 002a 8B68     		ldr	r3, [r1, #8]
 3185 002c 0393     		str	r3, [sp, #12]
 3186 002e CB68     		ldr	r3, [r1, #12]
ARM GAS  /tmp/ccOz2YRp.s 			page 54


 3187 0030 0493     		str	r3, [sp, #16]
 3188 0032 0B69     		ldr	r3, [r1, #16]
 3189 0034 0693     		str	r3, [sp, #24]
 3190 0036 4B69     		ldr	r3, [r1, #20]
 3191 0038 0793     		str	r3, [sp, #28]
 3192 003a 32B1     		cbz	r2, .L463
 3193 003c 042A     		cmp	r2, #4
 3194 003e 08D1     		bne	.L462
 3195 0040 2868     		ldr	r0, [r5]
 3196 0042 01A9     		add	r1, sp, #4
 3197 0044 FFF7FEFF 		bl	TIM_OC2_SetConfig
 3198 0048 03E0     		b	.L462
 3199              	.L463:
 3200 004a 2868     		ldr	r0, [r5]
 3201 004c 01A9     		add	r1, sp, #4
 3202 004e FFF7FEFF 		bl	TIM_OC1_SetConfig
 3203              	.L462:
 3204 0052 46B3     		cbz	r6, .L466
 3205 0054 042E     		cmp	r6, #4
 3206 0056 41D1     		bne	.L465
 3207 0058 2B68     		ldr	r3, [r5]
 3208 005a A669     		ldr	r6, [r4, #24]
 3209 005c 186A     		ldr	r0, [r3, #32]
 3210 005e E769     		ldr	r7, [r4, #28]
 3211 0060 20F01000 		bic	r0, r0, #16
 3212 0064 226A     		ldr	r2, [r4, #32]
 3213 0066 1862     		str	r0, [r3, #32]
 3214 0068 9969     		ldr	r1, [r3, #24]
 3215 006a 1203     		lsls	r2, r2, #12
 3216 006c 21F44071 		bic	r1, r1, #768
 3217 0070 41EA0721 		orr	r1, r1, r7, lsl #8
 3218 0074 186A     		ldr	r0, [r3, #32]
 3219 0076 21F47041 		bic	r1, r1, #61440
 3220 007a 92B2     		uxth	r2, r2
 3221 007c 0A43     		orrs	r2, r2, r1
 3222 007e 3101     		lsls	r1, r6, #4
 3223 0080 20F0A000 		bic	r0, r0, #160
 3224 0084 01F0A001 		and	r1, r1, #160
 3225 0088 0143     		orrs	r1, r1, r0
 3226 008a 9A61     		str	r2, [r3, #24]
 3227 008c 1962     		str	r1, [r3, #32]
 3228 008e 9A69     		ldr	r2, [r3, #24]
 3229 0090 22F44062 		bic	r2, r2, #3072
 3230 0094 9A61     		str	r2, [r3, #24]
 3231 0096 9A68     		ldr	r2, [r3, #8]
 3232 0098 22F07002 		bic	r2, r2, #112
 3233 009c 9A60     		str	r2, [r3, #8]
 3234 009e 9A68     		ldr	r2, [r3, #8]
 3235 00a0 42F06002 		orr	r2, r2, #96
 3236 00a4 11E0     		b	.L470
 3237              	.L466:
 3238 00a6 04F11801 		add	r1, r4, #24
 3239 00aa 0EC9     		ldmia	r1, {r1, r2, r3}
 3240 00ac 2868     		ldr	r0, [r5]
 3241 00ae FFF7FEFF 		bl	TIM_TI1_SetConfig
 3242 00b2 2B68     		ldr	r3, [r5]
 3243 00b4 9A69     		ldr	r2, [r3, #24]
ARM GAS  /tmp/ccOz2YRp.s 			page 55


 3244 00b6 22F00C02 		bic	r2, r2, #12
 3245 00ba 9A61     		str	r2, [r3, #24]
 3246 00bc 9A68     		ldr	r2, [r3, #8]
 3247 00be 22F07002 		bic	r2, r2, #112
 3248 00c2 9A60     		str	r2, [r3, #8]
 3249 00c4 9A68     		ldr	r2, [r3, #8]
 3250 00c6 42F05002 		orr	r2, r2, #80
 3251              	.L470:
 3252 00ca 9A60     		str	r2, [r3, #8]
 3253 00cc 9A68     		ldr	r2, [r3, #8]
 3254 00ce 22F00702 		bic	r2, r2, #7
 3255 00d2 9A60     		str	r2, [r3, #8]
 3256 00d4 9A68     		ldr	r2, [r3, #8]
 3257 00d6 42F00602 		orr	r2, r2, #6
 3258 00da 9A60     		str	r2, [r3, #8]
 3259              	.L465:
 3260 00dc 0123     		movs	r3, #1
 3261 00de 0020     		movs	r0, #0
 3262 00e0 85F83D30 		strb	r3, [r5, #61]
 3263 00e4 85F83C00 		strb	r0, [r5, #60]
 3264 00e8 00E0     		b	.L461
 3265              	.L468:
 3266 00ea 0120     		movs	r0, #1
 3267              	.L461:
 3268 00ec 09B0     		add	sp, sp, #36
 3269              		@ sp needed
 3270 00ee F0BD     		pop	{r4, r5, r6, r7, pc}
 3272              		.section	.text.TIM_ETR_SetConfig,"ax",%progbits
 3273              		.align	1
 3274              		.global	TIM_ETR_SetConfig
 3275              		.thumb
 3276              		.thumb_func
 3278              	TIM_ETR_SetConfig:
 3279              		@ args = 0, pretend = 0, frame = 0
 3280              		@ frame_needed = 0, uses_anonymous_args = 0
 3281 0000 10B5     		push	{r4, lr}
 3282 0002 8468     		ldr	r4, [r0, #8]
 3283 0004 24F47F44 		bic	r4, r4, #65280
 3284 0008 2143     		orrs	r1, r1, r4
 3285 000a 0A43     		orrs	r2, r2, r1
 3286 000c 42EA0323 		orr	r3, r2, r3, lsl #8
 3287 0010 8360     		str	r3, [r0, #8]
 3288 0012 10BD     		pop	{r4, pc}
 3290              		.section	.text.HAL_TIM_ConfigOCrefClear,"ax",%progbits
 3291              		.align	1
 3292              		.global	HAL_TIM_ConfigOCrefClear
 3293              		.thumb
 3294              		.thumb_func
 3296              	HAL_TIM_ConfigOCrefClear:
 3297              		@ args = 0, pretend = 0, frame = 0
 3298              		@ frame_needed = 0, uses_anonymous_args = 0
 3299 0000 90F83C30 		ldrb	r3, [r0, #60]	@ zero_extendqisi2
 3300 0004 70B5     		push	{r4, r5, r6, lr}
 3301 0006 012B     		cmp	r3, #1
 3302 0008 0446     		mov	r4, r0
 3303 000a 0D46     		mov	r5, r1
 3304 000c 1646     		mov	r6, r2
ARM GAS  /tmp/ccOz2YRp.s 			page 56


 3305 000e 4FF00200 		mov	r0, #2
 3306 0012 5AD0     		beq	.L473
 3307 0014 84F83D00 		strb	r0, [r4, #61]
 3308 0018 4868     		ldr	r0, [r1, #4]
 3309 001a 0123     		movs	r3, #1
 3310 001c 84F83C30 		strb	r3, [r4, #60]
 3311 0020 10B1     		cbz	r0, .L475
 3312 0022 9842     		cmp	r0, r3
 3313 0024 06D0     		beq	.L476
 3314 0026 12E0     		b	.L474
 3315              	.L475:
 3316 0028 2268     		ldr	r2, [r4]
 3317 002a 9368     		ldr	r3, [r2, #8]
 3318 002c 23F47F43 		bic	r3, r3, #65280
 3319 0030 9360     		str	r3, [r2, #8]
 3320 0032 0CE0     		b	.L474
 3321              	.L476:
 3322 0034 C968     		ldr	r1, [r1, #12]
 3323 0036 29B1     		cbz	r1, .L477
 3324 0038 0023     		movs	r3, #0
 3325 003a 84F83D00 		strb	r0, [r4, #61]
 3326 003e 84F83C30 		strb	r3, [r4, #60]
 3327 0042 70BD     		pop	{r4, r5, r6, pc}
 3328              	.L477:
 3329 0044 2068     		ldr	r0, [r4]
 3330 0046 AA68     		ldr	r2, [r5, #8]
 3331 0048 2B69     		ldr	r3, [r5, #16]
 3332 004a FFF7FEFF 		bl	TIM_ETR_SetConfig
 3333              	.L474:
 3334 004e 0C2E     		cmp	r6, #12
 3335 0050 35D8     		bhi	.L478
 3336 0052 DFE806F0 		tbb	[pc, r6]
 3337              	.L480:
 3338 0056 07       		.byte	(.L479-.L480)/2
 3339 0057 34       		.byte	(.L478-.L480)/2
 3340 0058 34       		.byte	(.L478-.L480)/2
 3341 0059 34       		.byte	(.L478-.L480)/2
 3342 005a 12       		.byte	(.L481-.L480)/2
 3343 005b 34       		.byte	(.L478-.L480)/2
 3344 005c 34       		.byte	(.L478-.L480)/2
 3345 005d 34       		.byte	(.L478-.L480)/2
 3346 005e 1E       		.byte	(.L482-.L480)/2
 3347 005f 34       		.byte	(.L478-.L480)/2
 3348 0060 34       		.byte	(.L478-.L480)/2
 3349 0061 34       		.byte	(.L478-.L480)/2
 3350 0062 29       		.byte	(.L483-.L480)/2
 3351 0063 00       		.p2align 1
 3352              	.L479:
 3353 0064 2A68     		ldr	r2, [r5]
 3354 0066 2368     		ldr	r3, [r4]
 3355 0068 1AB1     		cbz	r2, .L484
 3356 006a 9A69     		ldr	r2, [r3, #24]
 3357 006c 42F08002 		orr	r2, r2, #128
 3358 0070 09E0     		b	.L489
 3359              	.L484:
 3360 0072 9A69     		ldr	r2, [r3, #24]
 3361 0074 22F08002 		bic	r2, r2, #128
ARM GAS  /tmp/ccOz2YRp.s 			page 57


 3362 0078 05E0     		b	.L489
 3363              	.L481:
 3364 007a 2A68     		ldr	r2, [r5]
 3365 007c 2368     		ldr	r3, [r4]
 3366 007e 22B1     		cbz	r2, .L485
 3367 0080 9A69     		ldr	r2, [r3, #24]
 3368 0082 42F40042 		orr	r2, r2, #32768
 3369              	.L489:
 3370 0086 9A61     		str	r2, [r3, #24]
 3371 0088 19E0     		b	.L478
 3372              	.L485:
 3373 008a 9A69     		ldr	r2, [r3, #24]
 3374 008c 22F40042 		bic	r2, r2, #32768
 3375 0090 F9E7     		b	.L489
 3376              	.L482:
 3377 0092 2A68     		ldr	r2, [r5]
 3378 0094 2368     		ldr	r3, [r4]
 3379 0096 1AB1     		cbz	r2, .L486
 3380 0098 DA69     		ldr	r2, [r3, #28]
 3381 009a 42F08002 		orr	r2, r2, #128
 3382 009e 0DE0     		b	.L490
 3383              	.L486:
 3384 00a0 DA69     		ldr	r2, [r3, #28]
 3385 00a2 22F08002 		bic	r2, r2, #128
 3386 00a6 09E0     		b	.L490
 3387              	.L483:
 3388 00a8 2A68     		ldr	r2, [r5]
 3389 00aa 2368     		ldr	r3, [r4]
 3390 00ac 1AB1     		cbz	r2, .L487
 3391 00ae DA69     		ldr	r2, [r3, #28]
 3392 00b0 42F40042 		orr	r2, r2, #32768
 3393 00b4 02E0     		b	.L490
 3394              	.L487:
 3395 00b6 DA69     		ldr	r2, [r3, #28]
 3396 00b8 22F40042 		bic	r2, r2, #32768
 3397              	.L490:
 3398 00bc DA61     		str	r2, [r3, #28]
 3399              	.L478:
 3400 00be 0123     		movs	r3, #1
 3401 00c0 0020     		movs	r0, #0
 3402 00c2 84F83D30 		strb	r3, [r4, #61]
 3403 00c6 84F83C00 		strb	r0, [r4, #60]
 3404              	.L473:
 3405 00ca 70BD     		pop	{r4, r5, r6, pc}
 3407              		.section	.text.HAL_TIM_ConfigClockSource,"ax",%progbits
 3408              		.align	1
 3409              		.global	HAL_TIM_ConfigClockSource
 3410              		.thumb
 3411              		.thumb_func
 3413              	HAL_TIM_ConfigClockSource:
 3414              		@ args = 0, pretend = 0, frame = 0
 3415              		@ frame_needed = 0, uses_anonymous_args = 0
 3416 0000 90F83C20 		ldrb	r2, [r0, #60]	@ zero_extendqisi2
 3417 0004 70B5     		push	{r4, r5, r6, lr}
 3418 0006 012A     		cmp	r2, #1
 3419 0008 0446     		mov	r4, r0
 3420 000a 0B46     		mov	r3, r1
ARM GAS  /tmp/ccOz2YRp.s 			page 58


 3421 000c 4FF00200 		mov	r0, #2
 3422 0010 00F08E80 		beq	.L492
 3423 0014 84F83D00 		strb	r0, [r4, #61]
 3424 0018 2068     		ldr	r0, [r4]
 3425 001a 0122     		movs	r2, #1
 3426 001c 84F83C20 		strb	r2, [r4, #60]
 3427 0020 8268     		ldr	r2, [r0, #8]
 3428 0022 22F47F42 		bic	r2, r2, #65280
 3429 0026 22F07702 		bic	r2, r2, #119
 3430 002a 8260     		str	r2, [r0, #8]
 3431 002c 0A68     		ldr	r2, [r1]
 3432 002e 402A     		cmp	r2, #64
 3433 0030 59D0     		beq	.L494
 3434 0032 0AD8     		bhi	.L495
 3435 0034 102A     		cmp	r2, #16
 3436 0036 6ED0     		beq	.L496
 3437 0038 02D8     		bhi	.L497
 3438 003a 002A     		cmp	r2, #0
 3439 003c 6BD0     		beq	.L496
 3440 003e 71E0     		b	.L493
 3441              	.L497:
 3442 0040 202A     		cmp	r2, #32
 3443 0042 68D0     		beq	.L496
 3444 0044 302A     		cmp	r2, #48
 3445 0046 66D0     		beq	.L496
 3446 0048 6CE0     		b	.L493
 3447              	.L495:
 3448 004a 602A     		cmp	r2, #96
 3449 004c 33D0     		beq	.L498
 3450 004e 18D8     		bhi	.L499
 3451 0050 502A     		cmp	r2, #80
 3452 0052 67D1     		bne	.L493
 3453 0054 026A     		ldr	r2, [r0, #32]
 3454 0056 056A     		ldr	r5, [r0, #32]
 3455 0058 DE68     		ldr	r6, [r3, #12]
 3456 005a 25F00105 		bic	r5, r5, #1
 3457 005e 4968     		ldr	r1, [r1, #4]
 3458 0060 0562     		str	r5, [r0, #32]
 3459 0062 8369     		ldr	r3, [r0, #24]
 3460 0064 22F00A02 		bic	r2, r2, #10
 3461 0068 23F0F003 		bic	r3, r3, #240
 3462 006c 43EA0613 		orr	r3, r3, r6, lsl #4
 3463 0070 0A43     		orrs	r2, r2, r1
 3464 0072 8361     		str	r3, [r0, #24]
 3465 0074 0262     		str	r2, [r0, #32]
 3466 0076 8368     		ldr	r3, [r0, #8]
 3467 0078 23F07003 		bic	r3, r3, #112
 3468 007c 43F05703 		orr	r3, r3, #87
 3469 0080 47E0     		b	.L517
 3470              	.L499:
 3471 0082 702A     		cmp	r2, #112
 3472 0084 0CD0     		beq	.L501
 3473 0086 B2F5005F 		cmp	r2, #8192
 3474 008a 4BD1     		bne	.L493
 3475 008c 5A68     		ldr	r2, [r3, #4]
 3476 008e 8968     		ldr	r1, [r1, #8]
 3477 0090 DB68     		ldr	r3, [r3, #12]
ARM GAS  /tmp/ccOz2YRp.s 			page 59


 3478 0092 FFF7FEFF 		bl	TIM_ETR_SetConfig
 3479 0096 2268     		ldr	r2, [r4]
 3480 0098 9368     		ldr	r3, [r2, #8]
 3481 009a 43F48043 		orr	r3, r3, #16384
 3482 009e 08E0     		b	.L516
 3483              	.L501:
 3484 00a0 5A68     		ldr	r2, [r3, #4]
 3485 00a2 8968     		ldr	r1, [r1, #8]
 3486 00a4 DB68     		ldr	r3, [r3, #12]
 3487 00a6 FFF7FEFF 		bl	TIM_ETR_SetConfig
 3488 00aa 2268     		ldr	r2, [r4]
 3489 00ac 9368     		ldr	r3, [r2, #8]
 3490 00ae 43F07703 		orr	r3, r3, #119
 3491              	.L516:
 3492 00b2 9360     		str	r3, [r2, #8]
 3493 00b4 36E0     		b	.L493
 3494              	.L498:
 3495 00b6 4D68     		ldr	r5, [r1, #4]
 3496 00b8 CE68     		ldr	r6, [r1, #12]
 3497 00ba 016A     		ldr	r1, [r0, #32]
 3498 00bc 21F01001 		bic	r1, r1, #16
 3499 00c0 0162     		str	r1, [r0, #32]
 3500 00c2 8269     		ldr	r2, [r0, #24]
 3501 00c4 036A     		ldr	r3, [r0, #32]
 3502 00c6 22F47042 		bic	r2, r2, #61440
 3503 00ca 23F0A003 		bic	r3, r3, #160
 3504 00ce 43EA0513 		orr	r3, r3, r5, lsl #4
 3505 00d2 42EA0632 		orr	r2, r2, r6, lsl #12
 3506 00d6 8261     		str	r2, [r0, #24]
 3507 00d8 0362     		str	r3, [r0, #32]
 3508 00da 8368     		ldr	r3, [r0, #8]
 3509 00dc 23F07003 		bic	r3, r3, #112
 3510 00e0 43F06703 		orr	r3, r3, #103
 3511 00e4 15E0     		b	.L517
 3512              	.L494:
 3513 00e6 026A     		ldr	r2, [r0, #32]
 3514 00e8 056A     		ldr	r5, [r0, #32]
 3515 00ea DE68     		ldr	r6, [r3, #12]
 3516 00ec 25F00105 		bic	r5, r5, #1
 3517 00f0 4968     		ldr	r1, [r1, #4]
 3518 00f2 0562     		str	r5, [r0, #32]
 3519 00f4 8369     		ldr	r3, [r0, #24]
 3520 00f6 22F00A02 		bic	r2, r2, #10
 3521 00fa 23F0F003 		bic	r3, r3, #240
 3522 00fe 43EA0613 		orr	r3, r3, r6, lsl #4
 3523 0102 0A43     		orrs	r2, r2, r1
 3524 0104 8361     		str	r3, [r0, #24]
 3525 0106 0262     		str	r2, [r0, #32]
 3526 0108 8368     		ldr	r3, [r0, #8]
 3527 010a 23F07003 		bic	r3, r3, #112
 3528 010e 43F04703 		orr	r3, r3, #71
 3529              	.L517:
 3530 0112 8360     		str	r3, [r0, #8]
 3531 0114 06E0     		b	.L493
 3532              	.L496:
 3533 0116 8368     		ldr	r3, [r0, #8]
 3534 0118 42F00702 		orr	r2, r2, #7
ARM GAS  /tmp/ccOz2YRp.s 			page 60


 3535 011c 23F07003 		bic	r3, r3, #112
 3536 0120 1A43     		orrs	r2, r2, r3
 3537 0122 8260     		str	r2, [r0, #8]
 3538              	.L493:
 3539 0124 0123     		movs	r3, #1
 3540 0126 0020     		movs	r0, #0
 3541 0128 84F83D30 		strb	r3, [r4, #61]
 3542 012c 84F83C00 		strb	r0, [r4, #60]
 3543              	.L492:
 3544 0130 70BD     		pop	{r4, r5, r6, pc}
 3546              		.section	.text.TIM_SlaveTimer_SetConfig,"ax",%progbits
 3547              		.align	1
 3548              		.thumb
 3549              		.thumb_func
 3551              	TIM_SlaveTimer_SetConfig:
 3552              		@ args = 0, pretend = 0, frame = 0
 3553              		@ frame_needed = 0, uses_anonymous_args = 0
 3554 0000 38B5     		push	{r3, r4, r5, lr}
 3555 0002 0B46     		mov	r3, r1
 3556 0004 0068     		ldr	r0, [r0]
 3557 0006 4968     		ldr	r1, [r1, #4]
 3558 0008 8268     		ldr	r2, [r0, #8]
 3559 000a 1C68     		ldr	r4, [r3]
 3560 000c 22F07002 		bic	r2, r2, #112
 3561 0010 0A43     		orrs	r2, r2, r1
 3562 0012 22F00702 		bic	r2, r2, #7
 3563 0016 2243     		orrs	r2, r2, r4
 3564 0018 5029     		cmp	r1, #80
 3565 001a 8260     		str	r2, [r0, #8]
 3566 001c 1DD0     		beq	.L520
 3567 001e 02D8     		bhi	.L521
 3568 0020 4029     		cmp	r1, #64
 3569 0022 0AD0     		beq	.L522
 3570 0024 3DE0     		b	.L527
 3571              	.L521:
 3572 0026 6029     		cmp	r1, #96
 3573 0028 29D0     		beq	.L523
 3574 002a 7029     		cmp	r1, #112
 3575 002c 39D1     		bne	.L527
 3576 002e D968     		ldr	r1, [r3, #12]
 3577 0030 9A68     		ldr	r2, [r3, #8]
 3578 0032 1B69     		ldr	r3, [r3, #16]
 3579 0034 FFF7FEFF 		bl	TIM_ETR_SetConfig
 3580 0038 33E0     		b	.L527
 3581              	.L522:
 3582 003a 052C     		cmp	r4, #5
 3583 003c 33D0     		beq	.L526
 3584 003e 016A     		ldr	r1, [r0, #32]
 3585 0040 026A     		ldr	r2, [r0, #32]
 3586 0042 1B69     		ldr	r3, [r3, #16]
 3587 0044 22F00102 		bic	r2, r2, #1
 3588 0048 0262     		str	r2, [r0, #32]
 3589 004a 8269     		ldr	r2, [r0, #24]
 3590 004c 22F0F002 		bic	r2, r2, #240
 3591 0050 42EA0313 		orr	r3, r2, r3, lsl #4
 3592 0054 8361     		str	r3, [r0, #24]
 3593 0056 0162     		str	r1, [r0, #32]
ARM GAS  /tmp/ccOz2YRp.s 			page 61


 3594 0058 23E0     		b	.L527
 3595              	.L520:
 3596 005a 026A     		ldr	r2, [r0, #32]
 3597 005c 046A     		ldr	r4, [r0, #32]
 3598 005e 9968     		ldr	r1, [r3, #8]
 3599 0060 24F00104 		bic	r4, r4, #1
 3600 0064 1D69     		ldr	r5, [r3, #16]
 3601 0066 0462     		str	r4, [r0, #32]
 3602 0068 8369     		ldr	r3, [r0, #24]
 3603 006a 22F00A02 		bic	r2, r2, #10
 3604 006e 23F0F003 		bic	r3, r3, #240
 3605 0072 43EA0513 		orr	r3, r3, r5, lsl #4
 3606 0076 0A43     		orrs	r2, r2, r1
 3607 0078 8361     		str	r3, [r0, #24]
 3608 007a 0262     		str	r2, [r0, #32]
 3609 007c 11E0     		b	.L527
 3610              	.L523:
 3611 007e 016A     		ldr	r1, [r0, #32]
 3612 0080 9C68     		ldr	r4, [r3, #8]
 3613 0082 21F01001 		bic	r1, r1, #16
 3614 0086 1D69     		ldr	r5, [r3, #16]
 3615 0088 0162     		str	r1, [r0, #32]
 3616 008a 8269     		ldr	r2, [r0, #24]
 3617 008c 036A     		ldr	r3, [r0, #32]
 3618 008e 22F47042 		bic	r2, r2, #61440
 3619 0092 23F0A003 		bic	r3, r3, #160
 3620 0096 42EA0532 		orr	r2, r2, r5, lsl #12
 3621 009a 43EA0413 		orr	r3, r3, r4, lsl #4
 3622 009e 8261     		str	r2, [r0, #24]
 3623 00a0 0362     		str	r3, [r0, #32]
 3624              	.L527:
 3625 00a2 0020     		movs	r0, #0
 3626 00a4 38BD     		pop	{r3, r4, r5, pc}
 3627              	.L526:
 3628 00a6 0120     		movs	r0, #1
 3629 00a8 38BD     		pop	{r3, r4, r5, pc}
 3631              		.section	.text.HAL_TIM_SlaveConfigSynchro,"ax",%progbits
 3632              		.align	1
 3633              		.global	HAL_TIM_SlaveConfigSynchro
 3634              		.thumb
 3635              		.thumb_func
 3637              	HAL_TIM_SlaveConfigSynchro:
 3638              		@ args = 0, pretend = 0, frame = 0
 3639              		@ frame_needed = 0, uses_anonymous_args = 0
 3640 0000 38B5     		push	{r3, r4, r5, lr}
 3641 0002 90F83C30 		ldrb	r3, [r0, #60]	@ zero_extendqisi2
 3642 0006 0446     		mov	r4, r0
 3643 0008 012B     		cmp	r3, #1
 3644 000a 4FF00203 		mov	r3, #2
 3645 000e 1CD0     		beq	.L531
 3646 0010 0125     		movs	r5, #1
 3647 0012 80F83C50 		strb	r5, [r0, #60]
 3648 0016 80F83D30 		strb	r3, [r0, #61]
 3649 001a FFF7FEFF 		bl	TIM_SlaveTimer_SetConfig
 3650 001e 30B1     		cbz	r0, .L530
 3651 0020 0023     		movs	r3, #0
 3652 0022 84F83D50 		strb	r5, [r4, #61]
ARM GAS  /tmp/ccOz2YRp.s 			page 62


 3653 0026 84F83C30 		strb	r3, [r4, #60]
 3654 002a 2846     		mov	r0, r5
 3655 002c 38BD     		pop	{r3, r4, r5, pc}
 3656              	.L530:
 3657 002e 2368     		ldr	r3, [r4]
 3658 0030 DA68     		ldr	r2, [r3, #12]
 3659 0032 22F04002 		bic	r2, r2, #64
 3660 0036 DA60     		str	r2, [r3, #12]
 3661 0038 DA68     		ldr	r2, [r3, #12]
 3662 003a 22F48042 		bic	r2, r2, #16384
 3663 003e DA60     		str	r2, [r3, #12]
 3664 0040 84F83D50 		strb	r5, [r4, #61]
 3665 0044 84F83C00 		strb	r0, [r4, #60]
 3666 0048 38BD     		pop	{r3, r4, r5, pc}
 3667              	.L531:
 3668 004a 1846     		mov	r0, r3
 3669 004c 38BD     		pop	{r3, r4, r5, pc}
 3671              		.section	.text.HAL_TIM_SlaveConfigSynchro_IT,"ax",%progbits
 3672              		.align	1
 3673              		.global	HAL_TIM_SlaveConfigSynchro_IT
 3674              		.thumb
 3675              		.thumb_func
 3677              	HAL_TIM_SlaveConfigSynchro_IT:
 3678              		@ args = 0, pretend = 0, frame = 0
 3679              		@ frame_needed = 0, uses_anonymous_args = 0
 3680 0000 38B5     		push	{r3, r4, r5, lr}
 3681 0002 90F83C30 		ldrb	r3, [r0, #60]	@ zero_extendqisi2
 3682 0006 0446     		mov	r4, r0
 3683 0008 012B     		cmp	r3, #1
 3684 000a 4FF00203 		mov	r3, #2
 3685 000e 1CD0     		beq	.L535
 3686 0010 0125     		movs	r5, #1
 3687 0012 80F83C50 		strb	r5, [r0, #60]
 3688 0016 80F83D30 		strb	r3, [r0, #61]
 3689 001a FFF7FEFF 		bl	TIM_SlaveTimer_SetConfig
 3690 001e 30B1     		cbz	r0, .L534
 3691 0020 0023     		movs	r3, #0
 3692 0022 84F83D50 		strb	r5, [r4, #61]
 3693 0026 84F83C30 		strb	r3, [r4, #60]
 3694 002a 2846     		mov	r0, r5
 3695 002c 38BD     		pop	{r3, r4, r5, pc}
 3696              	.L534:
 3697 002e 2368     		ldr	r3, [r4]
 3698 0030 DA68     		ldr	r2, [r3, #12]
 3699 0032 42F04002 		orr	r2, r2, #64
 3700 0036 DA60     		str	r2, [r3, #12]
 3701 0038 DA68     		ldr	r2, [r3, #12]
 3702 003a 22F48042 		bic	r2, r2, #16384
 3703 003e DA60     		str	r2, [r3, #12]
 3704 0040 84F83D50 		strb	r5, [r4, #61]
 3705 0044 84F83C00 		strb	r0, [r4, #60]
 3706 0048 38BD     		pop	{r3, r4, r5, pc}
 3707              	.L535:
 3708 004a 1846     		mov	r0, r3
 3709 004c 38BD     		pop	{r3, r4, r5, pc}
 3711              		.section	.text.TIM_CCxChannelCmd,"ax",%progbits
 3712              		.align	1
ARM GAS  /tmp/ccOz2YRp.s 			page 63


 3713              		.global	TIM_CCxChannelCmd
 3714              		.thumb
 3715              		.thumb_func
 3717              	TIM_CCxChannelCmd:
 3718              		@ args = 0, pretend = 0, frame = 0
 3719              		@ frame_needed = 0, uses_anonymous_args = 0
 3720 0000 01F01F01 		and	r1, r1, #31
 3721 0004 10B5     		push	{r4, lr}
 3722 0006 0123     		movs	r3, #1
 3723 0008 046A     		ldr	r4, [r0, #32]
 3724 000a 8B40     		lsls	r3, r3, r1
 3725 000c 24EA0303 		bic	r3, r4, r3
 3726 0010 0362     		str	r3, [r0, #32]
 3727 0012 036A     		ldr	r3, [r0, #32]
 3728 0014 8A40     		lsls	r2, r2, r1
 3729 0016 1343     		orrs	r3, r3, r2
 3730 0018 0362     		str	r3, [r0, #32]
 3731 001a 10BD     		pop	{r4, pc}
 3733              		.section	.text.HAL_TIM_OC_Start,"ax",%progbits
 3734              		.align	1
 3735              		.global	HAL_TIM_OC_Start
 3736              		.thumb
 3737              		.thumb_func
 3739              	HAL_TIM_OC_Start:
 3740              		@ args = 0, pretend = 0, frame = 0
 3741              		@ frame_needed = 0, uses_anonymous_args = 0
 3742 0000 10B5     		push	{r4, lr}
 3743 0002 0446     		mov	r4, r0
 3744 0004 0122     		movs	r2, #1
 3745 0006 0068     		ldr	r0, [r0]
 3746 0008 FFF7FEFF 		bl	TIM_CCxChannelCmd
 3747 000c 2368     		ldr	r3, [r4]
 3748 000e 104A     		ldr	r2, .L545
 3749 0010 9342     		cmp	r3, r2
 3750 0012 15D0     		beq	.L538
 3751 0014 02F5A052 		add	r2, r2, #5120
 3752 0018 9342     		cmp	r3, r2
 3753 001a 11D0     		beq	.L538
 3754 001c 02F58062 		add	r2, r2, #1024
 3755 0020 9342     		cmp	r3, r2
 3756 0022 0DD0     		beq	.L538
 3757 0024 02F58062 		add	r2, r2, #1024
 3758 0028 9342     		cmp	r3, r2
 3759 002a 09D0     		beq	.L538
 3760              	.L540:
 3761 002c 9A68     		ldr	r2, [r3, #8]
 3762 002e 02F00702 		and	r2, r2, #7
 3763 0032 062A     		cmp	r2, #6
 3764 0034 09D0     		beq	.L543
 3765 0036 1A68     		ldr	r2, [r3]
 3766 0038 42F00102 		orr	r2, r2, #1
 3767 003c 1A60     		str	r2, [r3]
 3768 003e 04E0     		b	.L543
 3769              	.L538:
 3770 0040 5A6C     		ldr	r2, [r3, #68]
 3771 0042 42F40042 		orr	r2, r2, #32768
 3772 0046 5A64     		str	r2, [r3, #68]
ARM GAS  /tmp/ccOz2YRp.s 			page 64


 3773 0048 F0E7     		b	.L540
 3774              	.L543:
 3775 004a 0020     		movs	r0, #0
 3776 004c 10BD     		pop	{r4, pc}
 3777              	.L546:
 3778 004e 00BF     		.align	2
 3779              	.L545:
 3780 0050 002C0140 		.word	1073818624
 3782              		.section	.text.HAL_TIM_OC_Stop,"ax",%progbits
 3783              		.align	1
 3784              		.global	HAL_TIM_OC_Stop
 3785              		.thumb
 3786              		.thumb_func
 3788              	HAL_TIM_OC_Stop:
 3789              		@ args = 0, pretend = 0, frame = 0
 3790              		@ frame_needed = 0, uses_anonymous_args = 0
 3791 0000 10B5     		push	{r4, lr}
 3792 0002 0446     		mov	r4, r0
 3793 0004 0022     		movs	r2, #0
 3794 0006 0068     		ldr	r0, [r0]
 3795 0008 FFF7FEFF 		bl	TIM_CCxChannelCmd
 3796 000c 2368     		ldr	r3, [r4]
 3797 000e 164A     		ldr	r2, .L553
 3798 0010 9342     		cmp	r3, r2
 3799 0012 0BD0     		beq	.L548
 3800 0014 02F5A052 		add	r2, r2, #5120
 3801 0018 9342     		cmp	r3, r2
 3802 001a 07D0     		beq	.L548
 3803 001c 02F58062 		add	r2, r2, #1024
 3804 0020 9342     		cmp	r3, r2
 3805 0022 03D0     		beq	.L548
 3806 0024 02F58062 		add	r2, r2, #1024
 3807 0028 9342     		cmp	r3, r2
 3808 002a 0DD1     		bne	.L549
 3809              	.L548:
 3810 002c 41F21112 		movw	r2, #4369
 3811 0030 196A     		ldr	r1, [r3, #32]
 3812 0032 0A40     		ands	r2, r2, r1
 3813 0034 42B9     		cbnz	r2, .L549
 3814 0036 40F24442 		movw	r2, #1092
 3815 003a 196A     		ldr	r1, [r3, #32]
 3816 003c 0A40     		ands	r2, r2, r1
 3817 003e 1AB9     		cbnz	r2, .L549
 3818 0040 5A6C     		ldr	r2, [r3, #68]
 3819 0042 22F40042 		bic	r2, r2, #32768
 3820 0046 5A64     		str	r2, [r3, #68]
 3821              	.L549:
 3822 0048 41F21112 		movw	r2, #4369
 3823 004c 196A     		ldr	r1, [r3, #32]
 3824 004e 0A40     		ands	r2, r2, r1
 3825 0050 42B9     		cbnz	r2, .L552
 3826 0052 40F24442 		movw	r2, #1092
 3827 0056 196A     		ldr	r1, [r3, #32]
 3828 0058 0A40     		ands	r2, r2, r1
 3829 005a 1AB9     		cbnz	r2, .L552
 3830 005c 1A68     		ldr	r2, [r3]
 3831 005e 22F00102 		bic	r2, r2, #1
ARM GAS  /tmp/ccOz2YRp.s 			page 65


 3832 0062 1A60     		str	r2, [r3]
 3833              	.L552:
 3834 0064 0020     		movs	r0, #0
 3835 0066 10BD     		pop	{r4, pc}
 3836              	.L554:
 3837              		.align	2
 3838              	.L553:
 3839 0068 002C0140 		.word	1073818624
 3841              		.section	.text.HAL_TIM_OC_Start_IT,"ax",%progbits
 3842              		.align	1
 3843              		.global	HAL_TIM_OC_Start_IT
 3844              		.thumb
 3845              		.thumb_func
 3847              	HAL_TIM_OC_Start_IT:
 3848              		@ args = 0, pretend = 0, frame = 0
 3849              		@ frame_needed = 0, uses_anonymous_args = 0
 3850 0000 10B5     		push	{r4, lr}
 3851 0002 0446     		mov	r4, r0
 3852 0004 0C29     		cmp	r1, #12
 3853 0006 1CD8     		bhi	.L556
 3854 0008 DFE801F0 		tbb	[pc, r1]
 3855              	.L558:
 3856 000c 07       		.byte	(.L557-.L558)/2
 3857 000d 1B       		.byte	(.L556-.L558)/2
 3858 000e 1B       		.byte	(.L556-.L558)/2
 3859 000f 1B       		.byte	(.L556-.L558)/2
 3860 0010 0C       		.byte	(.L559-.L558)/2
 3861 0011 1B       		.byte	(.L556-.L558)/2
 3862 0012 1B       		.byte	(.L556-.L558)/2
 3863 0013 1B       		.byte	(.L556-.L558)/2
 3864 0014 11       		.byte	(.L560-.L558)/2
 3865 0015 1B       		.byte	(.L556-.L558)/2
 3866 0016 1B       		.byte	(.L556-.L558)/2
 3867 0017 1B       		.byte	(.L556-.L558)/2
 3868 0018 16       		.byte	(.L561-.L558)/2
 3869 0019 00       		.p2align 1
 3870              	.L557:
 3871 001a 0268     		ldr	r2, [r0]
 3872 001c D368     		ldr	r3, [r2, #12]
 3873 001e 43F00203 		orr	r3, r3, #2
 3874 0022 0DE0     		b	.L569
 3875              	.L559:
 3876 0024 0268     		ldr	r2, [r0]
 3877 0026 D368     		ldr	r3, [r2, #12]
 3878 0028 43F00403 		orr	r3, r3, #4
 3879 002c 08E0     		b	.L569
 3880              	.L560:
 3881 002e 0268     		ldr	r2, [r0]
 3882 0030 D368     		ldr	r3, [r2, #12]
 3883 0032 43F00803 		orr	r3, r3, #8
 3884 0036 03E0     		b	.L569
 3885              	.L561:
 3886 0038 0268     		ldr	r2, [r0]
 3887 003a D368     		ldr	r3, [r2, #12]
 3888 003c 43F01003 		orr	r3, r3, #16
 3889              	.L569:
 3890 0040 D360     		str	r3, [r2, #12]
ARM GAS  /tmp/ccOz2YRp.s 			page 66


 3891              	.L556:
 3892 0042 0122     		movs	r2, #1
 3893 0044 2068     		ldr	r0, [r4]
 3894 0046 FFF7FEFF 		bl	TIM_CCxChannelCmd
 3895 004a 2368     		ldr	r3, [r4]
 3896 004c 0F4A     		ldr	r2, .L570
 3897 004e 9342     		cmp	r3, r2
 3898 0050 15D0     		beq	.L562
 3899 0052 02F5A052 		add	r2, r2, #5120
 3900 0056 9342     		cmp	r3, r2
 3901 0058 11D0     		beq	.L562
 3902 005a 02F58062 		add	r2, r2, #1024
 3903 005e 9342     		cmp	r3, r2
 3904 0060 0DD0     		beq	.L562
 3905 0062 02F58062 		add	r2, r2, #1024
 3906 0066 9342     		cmp	r3, r2
 3907 0068 09D0     		beq	.L562
 3908              	.L564:
 3909 006a 9A68     		ldr	r2, [r3, #8]
 3910 006c 02F00702 		and	r2, r2, #7
 3911 0070 062A     		cmp	r2, #6
 3912 0072 09D0     		beq	.L567
 3913 0074 1A68     		ldr	r2, [r3]
 3914 0076 42F00102 		orr	r2, r2, #1
 3915 007a 1A60     		str	r2, [r3]
 3916 007c 04E0     		b	.L567
 3917              	.L562:
 3918 007e 5A6C     		ldr	r2, [r3, #68]
 3919 0080 42F40042 		orr	r2, r2, #32768
 3920 0084 5A64     		str	r2, [r3, #68]
 3921 0086 F0E7     		b	.L564
 3922              	.L567:
 3923 0088 0020     		movs	r0, #0
 3924 008a 10BD     		pop	{r4, pc}
 3925              	.L571:
 3926              		.align	2
 3927              	.L570:
 3928 008c 002C0140 		.word	1073818624
 3930              		.section	.text.HAL_TIM_OC_Stop_IT,"ax",%progbits
 3931              		.align	1
 3932              		.global	HAL_TIM_OC_Stop_IT
 3933              		.thumb
 3934              		.thumb_func
 3936              	HAL_TIM_OC_Stop_IT:
 3937              		@ args = 0, pretend = 0, frame = 0
 3938              		@ frame_needed = 0, uses_anonymous_args = 0
 3939 0000 10B5     		push	{r4, lr}
 3940 0002 0446     		mov	r4, r0
 3941 0004 0C29     		cmp	r1, #12
 3942 0006 1CD8     		bhi	.L573
 3943 0008 DFE801F0 		tbb	[pc, r1]
 3944              	.L575:
 3945 000c 07       		.byte	(.L574-.L575)/2
 3946 000d 1B       		.byte	(.L573-.L575)/2
 3947 000e 1B       		.byte	(.L573-.L575)/2
 3948 000f 1B       		.byte	(.L573-.L575)/2
 3949 0010 0C       		.byte	(.L576-.L575)/2
ARM GAS  /tmp/ccOz2YRp.s 			page 67


 3950 0011 1B       		.byte	(.L573-.L575)/2
 3951 0012 1B       		.byte	(.L573-.L575)/2
 3952 0013 1B       		.byte	(.L573-.L575)/2
 3953 0014 11       		.byte	(.L577-.L575)/2
 3954 0015 1B       		.byte	(.L573-.L575)/2
 3955 0016 1B       		.byte	(.L573-.L575)/2
 3956 0017 1B       		.byte	(.L573-.L575)/2
 3957 0018 16       		.byte	(.L578-.L575)/2
 3958 0019 00       		.p2align 1
 3959              	.L574:
 3960 001a 0268     		ldr	r2, [r0]
 3961 001c D368     		ldr	r3, [r2, #12]
 3962 001e 23F00203 		bic	r3, r3, #2
 3963 0022 0DE0     		b	.L584
 3964              	.L576:
 3965 0024 0268     		ldr	r2, [r0]
 3966 0026 D368     		ldr	r3, [r2, #12]
 3967 0028 23F00403 		bic	r3, r3, #4
 3968 002c 08E0     		b	.L584
 3969              	.L577:
 3970 002e 0268     		ldr	r2, [r0]
 3971 0030 D368     		ldr	r3, [r2, #12]
 3972 0032 23F00803 		bic	r3, r3, #8
 3973 0036 03E0     		b	.L584
 3974              	.L578:
 3975 0038 0268     		ldr	r2, [r0]
 3976 003a D368     		ldr	r3, [r2, #12]
 3977 003c 23F01003 		bic	r3, r3, #16
 3978              	.L584:
 3979 0040 D360     		str	r3, [r2, #12]
 3980              	.L573:
 3981 0042 0022     		movs	r2, #0
 3982 0044 2068     		ldr	r0, [r4]
 3983 0046 FFF7FEFF 		bl	TIM_CCxChannelCmd
 3984 004a 2368     		ldr	r3, [r4]
 3985 004c 164A     		ldr	r2, .L585
 3986 004e 9342     		cmp	r3, r2
 3987 0050 0BD0     		beq	.L579
 3988 0052 02F5A052 		add	r2, r2, #5120
 3989 0056 9342     		cmp	r3, r2
 3990 0058 07D0     		beq	.L579
 3991 005a 02F58062 		add	r2, r2, #1024
 3992 005e 9342     		cmp	r3, r2
 3993 0060 03D0     		beq	.L579
 3994 0062 02F58062 		add	r2, r2, #1024
 3995 0066 9342     		cmp	r3, r2
 3996 0068 0DD1     		bne	.L580
 3997              	.L579:
 3998 006a 41F21112 		movw	r2, #4369
 3999 006e 196A     		ldr	r1, [r3, #32]
 4000 0070 0A40     		ands	r2, r2, r1
 4001 0072 42B9     		cbnz	r2, .L580
 4002 0074 40F24442 		movw	r2, #1092
 4003 0078 196A     		ldr	r1, [r3, #32]
 4004 007a 0A40     		ands	r2, r2, r1
 4005 007c 1AB9     		cbnz	r2, .L580
 4006 007e 5A6C     		ldr	r2, [r3, #68]
ARM GAS  /tmp/ccOz2YRp.s 			page 68


 4007 0080 22F40042 		bic	r2, r2, #32768
 4008 0084 5A64     		str	r2, [r3, #68]
 4009              	.L580:
 4010 0086 41F21112 		movw	r2, #4369
 4011 008a 196A     		ldr	r1, [r3, #32]
 4012 008c 0A40     		ands	r2, r2, r1
 4013 008e 42B9     		cbnz	r2, .L583
 4014 0090 40F24442 		movw	r2, #1092
 4015 0094 196A     		ldr	r1, [r3, #32]
 4016 0096 0A40     		ands	r2, r2, r1
 4017 0098 1AB9     		cbnz	r2, .L583
 4018 009a 1A68     		ldr	r2, [r3]
 4019 009c 22F00102 		bic	r2, r2, #1
 4020 00a0 1A60     		str	r2, [r3]
 4021              	.L583:
 4022 00a2 0020     		movs	r0, #0
 4023 00a4 10BD     		pop	{r4, pc}
 4024              	.L586:
 4025 00a6 00BF     		.align	2
 4026              	.L585:
 4027 00a8 002C0140 		.word	1073818624
 4029              		.section	.text.HAL_TIM_OC_Start_DMA,"ax",%progbits
 4030              		.align	1
 4031              		.global	HAL_TIM_OC_Start_DMA
 4032              		.thumb
 4033              		.thumb_func
 4035              	HAL_TIM_OC_Start_DMA:
 4036              		@ args = 0, pretend = 0, frame = 0
 4037              		@ frame_needed = 0, uses_anonymous_args = 0
 4038 0000 38B5     		push	{r3, r4, r5, lr}
 4039 0002 0446     		mov	r4, r0
 4040 0004 90F83D00 		ldrb	r0, [r0, #61]	@ zero_extendqisi2
 4041 0008 0D46     		mov	r5, r1
 4042 000a C0B2     		uxtb	r0, r0
 4043 000c 0228     		cmp	r0, #2
 4044 000e 1146     		mov	r1, r2
 4045 0010 00F08380 		beq	.L605
 4046 0014 94F83D20 		ldrb	r2, [r4, #61]	@ zero_extendqisi2
 4047 0018 012A     		cmp	r2, #1
 4048 001a 06D1     		bne	.L589
 4049 001c 11B9     		cbnz	r1, .L590
 4050 001e 0BB1     		cbz	r3, .L590
 4051              	.L597:
 4052 0020 0120     		movs	r0, #1
 4053 0022 38BD     		pop	{r3, r4, r5, pc}
 4054              	.L590:
 4055 0024 0222     		movs	r2, #2
 4056 0026 84F83D20 		strb	r2, [r4, #61]
 4057              	.L589:
 4058 002a 0C2D     		cmp	r5, #12
 4059 002c 50D8     		bhi	.L591
 4060 002e DFE805F0 		tbb	[pc, r5]
 4061              	.L593:
 4062 0032 07       		.byte	(.L592-.L593)/2
 4063 0033 4F       		.byte	(.L591-.L593)/2
 4064 0034 4F       		.byte	(.L591-.L593)/2
 4065 0035 4F       		.byte	(.L591-.L593)/2
ARM GAS  /tmp/ccOz2YRp.s 			page 69


 4066 0036 19       		.byte	(.L594-.L593)/2
 4067 0037 4F       		.byte	(.L591-.L593)/2
 4068 0038 4F       		.byte	(.L591-.L593)/2
 4069 0039 4F       		.byte	(.L591-.L593)/2
 4070 003a 2B       		.byte	(.L595-.L593)/2
 4071 003b 4F       		.byte	(.L591-.L593)/2
 4072 003c 4F       		.byte	(.L591-.L593)/2
 4073 003d 4F       		.byte	(.L591-.L593)/2
 4074 003e 3D       		.byte	(.L596-.L593)/2
 4075 003f 00       		.p2align 1
 4076              	.L592:
 4077 0040 606A     		ldr	r0, [r4, #36]
 4078 0042 364A     		ldr	r2, .L607
 4079 0044 8262     		str	r2, [r0, #40]
 4080 0046 364A     		ldr	r2, .L607+4
 4081 0048 C262     		str	r2, [r0, #44]
 4082 004a 364A     		ldr	r2, .L607+8
 4083 004c 0263     		str	r2, [r0, #48]
 4084 004e 2268     		ldr	r2, [r4]
 4085 0050 3432     		adds	r2, r2, #52
 4086 0052 FFF7FEFF 		bl	HAL_DMA_Start_IT
 4087 0056 0028     		cmp	r0, #0
 4088 0058 E2D1     		bne	.L597
 4089 005a 2268     		ldr	r2, [r4]
 4090 005c D368     		ldr	r3, [r2, #12]
 4091 005e 43F40073 		orr	r3, r3, #512
 4092 0062 34E0     		b	.L606
 4093              	.L594:
 4094 0064 A06A     		ldr	r0, [r4, #40]
 4095 0066 2D4A     		ldr	r2, .L607
 4096 0068 8262     		str	r2, [r0, #40]
 4097 006a 2D4A     		ldr	r2, .L607+4
 4098 006c C262     		str	r2, [r0, #44]
 4099 006e 2D4A     		ldr	r2, .L607+8
 4100 0070 0263     		str	r2, [r0, #48]
 4101 0072 2268     		ldr	r2, [r4]
 4102 0074 3832     		adds	r2, r2, #56
 4103 0076 FFF7FEFF 		bl	HAL_DMA_Start_IT
 4104 007a 0028     		cmp	r0, #0
 4105 007c D0D1     		bne	.L597
 4106 007e 2268     		ldr	r2, [r4]
 4107 0080 D368     		ldr	r3, [r2, #12]
 4108 0082 43F48063 		orr	r3, r3, #1024
 4109 0086 22E0     		b	.L606
 4110              	.L595:
 4111 0088 E06A     		ldr	r0, [r4, #44]
 4112 008a 244A     		ldr	r2, .L607
 4113 008c 8262     		str	r2, [r0, #40]
 4114 008e 244A     		ldr	r2, .L607+4
 4115 0090 C262     		str	r2, [r0, #44]
 4116 0092 244A     		ldr	r2, .L607+8
 4117 0094 0263     		str	r2, [r0, #48]
 4118 0096 2268     		ldr	r2, [r4]
 4119 0098 3C32     		adds	r2, r2, #60
 4120 009a FFF7FEFF 		bl	HAL_DMA_Start_IT
 4121 009e 0028     		cmp	r0, #0
 4122 00a0 BED1     		bne	.L597
ARM GAS  /tmp/ccOz2YRp.s 			page 70


 4123 00a2 2268     		ldr	r2, [r4]
 4124 00a4 D368     		ldr	r3, [r2, #12]
 4125 00a6 43F40063 		orr	r3, r3, #2048
 4126 00aa 10E0     		b	.L606
 4127              	.L596:
 4128 00ac 206B     		ldr	r0, [r4, #48]
 4129 00ae 1B4A     		ldr	r2, .L607
 4130 00b0 8262     		str	r2, [r0, #40]
 4131 00b2 1B4A     		ldr	r2, .L607+4
 4132 00b4 C262     		str	r2, [r0, #44]
 4133 00b6 1B4A     		ldr	r2, .L607+8
 4134 00b8 0263     		str	r2, [r0, #48]
 4135 00ba 2268     		ldr	r2, [r4]
 4136 00bc 4032     		adds	r2, r2, #64
 4137 00be FFF7FEFF 		bl	HAL_DMA_Start_IT
 4138 00c2 0028     		cmp	r0, #0
 4139 00c4 ACD1     		bne	.L597
 4140 00c6 2268     		ldr	r2, [r4]
 4141 00c8 D368     		ldr	r3, [r2, #12]
 4142 00ca 43F48053 		orr	r3, r3, #4096
 4143              	.L606:
 4144 00ce D360     		str	r3, [r2, #12]
 4145              	.L591:
 4146 00d0 0122     		movs	r2, #1
 4147 00d2 2068     		ldr	r0, [r4]
 4148 00d4 2946     		mov	r1, r5
 4149 00d6 FFF7FEFF 		bl	TIM_CCxChannelCmd
 4150 00da 2368     		ldr	r3, [r4]
 4151 00dc 124A     		ldr	r2, .L607+12
 4152 00de 9342     		cmp	r3, r2
 4153 00e0 16D0     		beq	.L598
 4154 00e2 02F5A052 		add	r2, r2, #5120
 4155 00e6 9342     		cmp	r3, r2
 4156 00e8 12D0     		beq	.L598
 4157 00ea 02F58062 		add	r2, r2, #1024
 4158 00ee 9342     		cmp	r3, r2
 4159 00f0 0ED0     		beq	.L598
 4160 00f2 02F58062 		add	r2, r2, #1024
 4161 00f6 9342     		cmp	r3, r2
 4162 00f8 0AD0     		beq	.L598
 4163              	.L599:
 4164 00fa 9A68     		ldr	r2, [r3, #8]
 4165 00fc 0020     		movs	r0, #0
 4166 00fe 02F00702 		and	r2, r2, #7
 4167 0102 062A     		cmp	r2, #6
 4168 0104 1EBF     		ittt	ne
 4169 0106 1A68     		ldrne	r2, [r3]
 4170 0108 42F00102 		orrne	r2, r2, #1
 4171 010c 1A60     		strne	r2, [r3]
 4172 010e 38BD     		pop	{r3, r4, r5, pc}
 4173              	.L598:
 4174 0110 5A6C     		ldr	r2, [r3, #68]
 4175 0112 42F40042 		orr	r2, r2, #32768
 4176 0116 5A64     		str	r2, [r3, #68]
 4177 0118 EFE7     		b	.L599
 4178              	.L605:
 4179 011a 38BD     		pop	{r3, r4, r5, pc}
ARM GAS  /tmp/ccOz2YRp.s 			page 71


 4180              	.L608:
 4181              		.align	2
 4182              	.L607:
 4183 011c 00000000 		.word	TIM_DMADelayPulseCplt
 4184 0120 00000000 		.word	TIM_DMADelayPulseHalfCplt
 4185 0124 00000000 		.word	TIM_DMAError
 4186 0128 002C0140 		.word	1073818624
 4188              		.section	.text.HAL_TIM_OC_Stop_DMA,"ax",%progbits
 4189              		.align	1
 4190              		.global	HAL_TIM_OC_Stop_DMA
 4191              		.thumb
 4192              		.thumb_func
 4194              	HAL_TIM_OC_Stop_DMA:
 4195              		@ args = 0, pretend = 0, frame = 0
 4196              		@ frame_needed = 0, uses_anonymous_args = 0
 4197 0000 38B5     		push	{r3, r4, r5, lr}
 4198 0002 0446     		mov	r4, r0
 4199 0004 0D46     		mov	r5, r1
 4200 0006 0C29     		cmp	r1, #12
 4201 0008 25D8     		bhi	.L610
 4202 000a DFE801F0 		tbb	[pc, r1]
 4203              	.L612:
 4204 000e 07       		.byte	(.L611-.L612)/2
 4205 000f 24       		.byte	(.L610-.L612)/2
 4206 0010 24       		.byte	(.L610-.L612)/2
 4207 0011 24       		.byte	(.L610-.L612)/2
 4208 0012 0E       		.byte	(.L613-.L612)/2
 4209 0013 24       		.byte	(.L610-.L612)/2
 4210 0014 24       		.byte	(.L610-.L612)/2
 4211 0015 24       		.byte	(.L610-.L612)/2
 4212 0016 15       		.byte	(.L614-.L612)/2
 4213 0017 24       		.byte	(.L610-.L612)/2
 4214 0018 24       		.byte	(.L610-.L612)/2
 4215 0019 24       		.byte	(.L610-.L612)/2
 4216 001a 1C       		.byte	(.L615-.L612)/2
 4217 001b 00       		.p2align 1
 4218              	.L611:
 4219 001c 0268     		ldr	r2, [r0]
 4220 001e 406A     		ldr	r0, [r0, #36]
 4221 0020 D368     		ldr	r3, [r2, #12]
 4222 0022 23F40073 		bic	r3, r3, #512
 4223 0026 D360     		str	r3, [r2, #12]
 4224 0028 13E0     		b	.L621
 4225              	.L613:
 4226 002a 0268     		ldr	r2, [r0]
 4227 002c 806A     		ldr	r0, [r0, #40]
 4228 002e D368     		ldr	r3, [r2, #12]
 4229 0030 23F48063 		bic	r3, r3, #1024
 4230 0034 D360     		str	r3, [r2, #12]
 4231 0036 0CE0     		b	.L621
 4232              	.L614:
 4233 0038 0268     		ldr	r2, [r0]
 4234 003a C06A     		ldr	r0, [r0, #44]
 4235 003c D368     		ldr	r3, [r2, #12]
 4236 003e 23F40063 		bic	r3, r3, #2048
 4237 0042 D360     		str	r3, [r2, #12]
 4238 0044 05E0     		b	.L621
ARM GAS  /tmp/ccOz2YRp.s 			page 72


 4239              	.L615:
 4240 0046 0268     		ldr	r2, [r0]
 4241 0048 006B     		ldr	r0, [r0, #48]
 4242 004a D368     		ldr	r3, [r2, #12]
 4243 004c 23F48053 		bic	r3, r3, #4096
 4244 0050 D360     		str	r3, [r2, #12]
 4245              	.L621:
 4246 0052 FFF7FEFF 		bl	HAL_DMA_Abort_IT
 4247              	.L610:
 4248 0056 0022     		movs	r2, #0
 4249 0058 2068     		ldr	r0, [r4]
 4250 005a 2946     		mov	r1, r5
 4251 005c FFF7FEFF 		bl	TIM_CCxChannelCmd
 4252 0060 2368     		ldr	r3, [r4]
 4253 0062 184A     		ldr	r2, .L622
 4254 0064 9342     		cmp	r3, r2
 4255 0066 0BD0     		beq	.L616
 4256 0068 02F5A052 		add	r2, r2, #5120
 4257 006c 9342     		cmp	r3, r2
 4258 006e 07D0     		beq	.L616
 4259 0070 02F58062 		add	r2, r2, #1024
 4260 0074 9342     		cmp	r3, r2
 4261 0076 03D0     		beq	.L616
 4262 0078 02F58062 		add	r2, r2, #1024
 4263 007c 9342     		cmp	r3, r2
 4264 007e 0DD1     		bne	.L617
 4265              	.L616:
 4266 0080 41F21112 		movw	r2, #4369
 4267 0084 196A     		ldr	r1, [r3, #32]
 4268 0086 0A40     		ands	r2, r2, r1
 4269 0088 42B9     		cbnz	r2, .L617
 4270 008a 40F24442 		movw	r2, #1092
 4271 008e 196A     		ldr	r1, [r3, #32]
 4272 0090 0A40     		ands	r2, r2, r1
 4273 0092 1AB9     		cbnz	r2, .L617
 4274 0094 5A6C     		ldr	r2, [r3, #68]
 4275 0096 22F40042 		bic	r2, r2, #32768
 4276 009a 5A64     		str	r2, [r3, #68]
 4277              	.L617:
 4278 009c 41F21112 		movw	r2, #4369
 4279 00a0 196A     		ldr	r1, [r3, #32]
 4280 00a2 0A40     		ands	r2, r2, r1
 4281 00a4 42B9     		cbnz	r2, .L618
 4282 00a6 40F24442 		movw	r2, #1092
 4283 00aa 196A     		ldr	r1, [r3, #32]
 4284 00ac 0A40     		ands	r2, r2, r1
 4285 00ae 1AB9     		cbnz	r2, .L618
 4286 00b0 1A68     		ldr	r2, [r3]
 4287 00b2 22F00102 		bic	r2, r2, #1
 4288 00b6 1A60     		str	r2, [r3]
 4289              	.L618:
 4290 00b8 0123     		movs	r3, #1
 4291 00ba 84F83D30 		strb	r3, [r4, #61]
 4292 00be 0020     		movs	r0, #0
 4293 00c0 38BD     		pop	{r3, r4, r5, pc}
 4294              	.L623:
 4295 00c2 00BF     		.align	2
ARM GAS  /tmp/ccOz2YRp.s 			page 73


 4296              	.L622:
 4297 00c4 002C0140 		.word	1073818624
 4299              		.section	.text.HAL_TIM_PWM_Start,"ax",%progbits
 4300              		.align	1
 4301              		.global	HAL_TIM_PWM_Start
 4302              		.thumb
 4303              		.thumb_func
 4305              	HAL_TIM_PWM_Start:
 4306              		@ args = 0, pretend = 0, frame = 0
 4307              		@ frame_needed = 0, uses_anonymous_args = 0
 4308 0000 10B5     		push	{r4, lr}
 4309 0002 0446     		mov	r4, r0
 4310 0004 0122     		movs	r2, #1
 4311 0006 0068     		ldr	r0, [r0]
 4312 0008 FFF7FEFF 		bl	TIM_CCxChannelCmd
 4313 000c 2368     		ldr	r3, [r4]
 4314 000e 104A     		ldr	r2, .L632
 4315 0010 9342     		cmp	r3, r2
 4316 0012 15D0     		beq	.L625
 4317 0014 02F5A052 		add	r2, r2, #5120
 4318 0018 9342     		cmp	r3, r2
 4319 001a 11D0     		beq	.L625
 4320 001c 02F58062 		add	r2, r2, #1024
 4321 0020 9342     		cmp	r3, r2
 4322 0022 0DD0     		beq	.L625
 4323 0024 02F58062 		add	r2, r2, #1024
 4324 0028 9342     		cmp	r3, r2
 4325 002a 09D0     		beq	.L625
 4326              	.L627:
 4327 002c 9A68     		ldr	r2, [r3, #8]
 4328 002e 02F00702 		and	r2, r2, #7
 4329 0032 062A     		cmp	r2, #6
 4330 0034 09D0     		beq	.L630
 4331 0036 1A68     		ldr	r2, [r3]
 4332 0038 42F00102 		orr	r2, r2, #1
 4333 003c 1A60     		str	r2, [r3]
 4334 003e 04E0     		b	.L630
 4335              	.L625:
 4336 0040 5A6C     		ldr	r2, [r3, #68]
 4337 0042 42F40042 		orr	r2, r2, #32768
 4338 0046 5A64     		str	r2, [r3, #68]
 4339 0048 F0E7     		b	.L627
 4340              	.L630:
 4341 004a 0020     		movs	r0, #0
 4342 004c 10BD     		pop	{r4, pc}
 4343              	.L633:
 4344 004e 00BF     		.align	2
 4345              	.L632:
 4346 0050 002C0140 		.word	1073818624
 4348              		.section	.text.HAL_TIM_PWM_Stop,"ax",%progbits
 4349              		.align	1
 4350              		.global	HAL_TIM_PWM_Stop
 4351              		.thumb
 4352              		.thumb_func
 4354              	HAL_TIM_PWM_Stop:
 4355              		@ args = 0, pretend = 0, frame = 0
 4356              		@ frame_needed = 0, uses_anonymous_args = 0
ARM GAS  /tmp/ccOz2YRp.s 			page 74


 4357 0000 10B5     		push	{r4, lr}
 4358 0002 0446     		mov	r4, r0
 4359 0004 0022     		movs	r2, #0
 4360 0006 0068     		ldr	r0, [r0]
 4361 0008 FFF7FEFF 		bl	TIM_CCxChannelCmd
 4362 000c 2368     		ldr	r3, [r4]
 4363 000e 184A     		ldr	r2, .L640
 4364 0010 9342     		cmp	r3, r2
 4365 0012 0BD0     		beq	.L635
 4366 0014 02F5A052 		add	r2, r2, #5120
 4367 0018 9342     		cmp	r3, r2
 4368 001a 07D0     		beq	.L635
 4369 001c 02F58062 		add	r2, r2, #1024
 4370 0020 9342     		cmp	r3, r2
 4371 0022 03D0     		beq	.L635
 4372 0024 02F58062 		add	r2, r2, #1024
 4373 0028 9342     		cmp	r3, r2
 4374 002a 0DD1     		bne	.L636
 4375              	.L635:
 4376 002c 41F21112 		movw	r2, #4369
 4377 0030 196A     		ldr	r1, [r3, #32]
 4378 0032 0A40     		ands	r2, r2, r1
 4379 0034 42B9     		cbnz	r2, .L636
 4380 0036 40F24442 		movw	r2, #1092
 4381 003a 196A     		ldr	r1, [r3, #32]
 4382 003c 0A40     		ands	r2, r2, r1
 4383 003e 1AB9     		cbnz	r2, .L636
 4384 0040 5A6C     		ldr	r2, [r3, #68]
 4385 0042 22F40042 		bic	r2, r2, #32768
 4386 0046 5A64     		str	r2, [r3, #68]
 4387              	.L636:
 4388 0048 41F21112 		movw	r2, #4369
 4389 004c 196A     		ldr	r1, [r3, #32]
 4390 004e 0A40     		ands	r2, r2, r1
 4391 0050 42B9     		cbnz	r2, .L637
 4392 0052 40F24442 		movw	r2, #1092
 4393 0056 196A     		ldr	r1, [r3, #32]
 4394 0058 0A40     		ands	r2, r2, r1
 4395 005a 1AB9     		cbnz	r2, .L637
 4396 005c 1A68     		ldr	r2, [r3]
 4397 005e 22F00102 		bic	r2, r2, #1
 4398 0062 1A60     		str	r2, [r3]
 4399              	.L637:
 4400 0064 0123     		movs	r3, #1
 4401 0066 84F83D30 		strb	r3, [r4, #61]
 4402 006a 0020     		movs	r0, #0
 4403 006c 10BD     		pop	{r4, pc}
 4404              	.L641:
 4405 006e 00BF     		.align	2
 4406              	.L640:
 4407 0070 002C0140 		.word	1073818624
 4409              		.section	.text.HAL_TIM_PWM_Start_IT,"ax",%progbits
 4410              		.align	1
 4411              		.global	HAL_TIM_PWM_Start_IT
 4412              		.thumb
 4413              		.thumb_func
 4415              	HAL_TIM_PWM_Start_IT:
ARM GAS  /tmp/ccOz2YRp.s 			page 75


 4416              		@ args = 0, pretend = 0, frame = 0
 4417              		@ frame_needed = 0, uses_anonymous_args = 0
 4418 0000 10B5     		push	{r4, lr}
 4419 0002 0446     		mov	r4, r0
 4420 0004 0C29     		cmp	r1, #12
 4421 0006 1CD8     		bhi	.L643
 4422 0008 DFE801F0 		tbb	[pc, r1]
 4423              	.L645:
 4424 000c 07       		.byte	(.L644-.L645)/2
 4425 000d 1B       		.byte	(.L643-.L645)/2
 4426 000e 1B       		.byte	(.L643-.L645)/2
 4427 000f 1B       		.byte	(.L643-.L645)/2
 4428 0010 0C       		.byte	(.L646-.L645)/2
 4429 0011 1B       		.byte	(.L643-.L645)/2
 4430 0012 1B       		.byte	(.L643-.L645)/2
 4431 0013 1B       		.byte	(.L643-.L645)/2
 4432 0014 11       		.byte	(.L647-.L645)/2
 4433 0015 1B       		.byte	(.L643-.L645)/2
 4434 0016 1B       		.byte	(.L643-.L645)/2
 4435 0017 1B       		.byte	(.L643-.L645)/2
 4436 0018 16       		.byte	(.L648-.L645)/2
 4437 0019 00       		.p2align 1
 4438              	.L644:
 4439 001a 0268     		ldr	r2, [r0]
 4440 001c D368     		ldr	r3, [r2, #12]
 4441 001e 43F00203 		orr	r3, r3, #2
 4442 0022 0DE0     		b	.L656
 4443              	.L646:
 4444 0024 0268     		ldr	r2, [r0]
 4445 0026 D368     		ldr	r3, [r2, #12]
 4446 0028 43F00403 		orr	r3, r3, #4
 4447 002c 08E0     		b	.L656
 4448              	.L647:
 4449 002e 0268     		ldr	r2, [r0]
 4450 0030 D368     		ldr	r3, [r2, #12]
 4451 0032 43F00803 		orr	r3, r3, #8
 4452 0036 03E0     		b	.L656
 4453              	.L648:
 4454 0038 0268     		ldr	r2, [r0]
 4455 003a D368     		ldr	r3, [r2, #12]
 4456 003c 43F01003 		orr	r3, r3, #16
 4457              	.L656:
 4458 0040 D360     		str	r3, [r2, #12]
 4459              	.L643:
 4460 0042 0122     		movs	r2, #1
 4461 0044 2068     		ldr	r0, [r4]
 4462 0046 FFF7FEFF 		bl	TIM_CCxChannelCmd
 4463 004a 2368     		ldr	r3, [r4]
 4464 004c 0F4A     		ldr	r2, .L657
 4465 004e 9342     		cmp	r3, r2
 4466 0050 15D0     		beq	.L649
 4467 0052 02F5A052 		add	r2, r2, #5120
 4468 0056 9342     		cmp	r3, r2
 4469 0058 11D0     		beq	.L649
 4470 005a 02F58062 		add	r2, r2, #1024
 4471 005e 9342     		cmp	r3, r2
 4472 0060 0DD0     		beq	.L649
ARM GAS  /tmp/ccOz2YRp.s 			page 76


 4473 0062 02F58062 		add	r2, r2, #1024
 4474 0066 9342     		cmp	r3, r2
 4475 0068 09D0     		beq	.L649
 4476              	.L651:
 4477 006a 9A68     		ldr	r2, [r3, #8]
 4478 006c 02F00702 		and	r2, r2, #7
 4479 0070 062A     		cmp	r2, #6
 4480 0072 09D0     		beq	.L654
 4481 0074 1A68     		ldr	r2, [r3]
 4482 0076 42F00102 		orr	r2, r2, #1
 4483 007a 1A60     		str	r2, [r3]
 4484 007c 04E0     		b	.L654
 4485              	.L649:
 4486 007e 5A6C     		ldr	r2, [r3, #68]
 4487 0080 42F40042 		orr	r2, r2, #32768
 4488 0084 5A64     		str	r2, [r3, #68]
 4489 0086 F0E7     		b	.L651
 4490              	.L654:
 4491 0088 0020     		movs	r0, #0
 4492 008a 10BD     		pop	{r4, pc}
 4493              	.L658:
 4494              		.align	2
 4495              	.L657:
 4496 008c 002C0140 		.word	1073818624
 4498              		.section	.text.HAL_TIM_PWM_Stop_IT,"ax",%progbits
 4499              		.align	1
 4500              		.global	HAL_TIM_PWM_Stop_IT
 4501              		.thumb
 4502              		.thumb_func
 4504              	HAL_TIM_PWM_Stop_IT:
 4505              		@ args = 0, pretend = 0, frame = 0
 4506              		@ frame_needed = 0, uses_anonymous_args = 0
 4507 0000 10B5     		push	{r4, lr}
 4508 0002 0446     		mov	r4, r0
 4509 0004 0C29     		cmp	r1, #12
 4510 0006 1CD8     		bhi	.L660
 4511 0008 DFE801F0 		tbb	[pc, r1]
 4512              	.L662:
 4513 000c 07       		.byte	(.L661-.L662)/2
 4514 000d 1B       		.byte	(.L660-.L662)/2
 4515 000e 1B       		.byte	(.L660-.L662)/2
 4516 000f 1B       		.byte	(.L660-.L662)/2
 4517 0010 0C       		.byte	(.L663-.L662)/2
 4518 0011 1B       		.byte	(.L660-.L662)/2
 4519 0012 1B       		.byte	(.L660-.L662)/2
 4520 0013 1B       		.byte	(.L660-.L662)/2
 4521 0014 11       		.byte	(.L664-.L662)/2
 4522 0015 1B       		.byte	(.L660-.L662)/2
 4523 0016 1B       		.byte	(.L660-.L662)/2
 4524 0017 1B       		.byte	(.L660-.L662)/2
 4525 0018 16       		.byte	(.L665-.L662)/2
 4526 0019 00       		.p2align 1
 4527              	.L661:
 4528 001a 0268     		ldr	r2, [r0]
 4529 001c D368     		ldr	r3, [r2, #12]
 4530 001e 23F00203 		bic	r3, r3, #2
 4531 0022 0DE0     		b	.L671
ARM GAS  /tmp/ccOz2YRp.s 			page 77


 4532              	.L663:
 4533 0024 0268     		ldr	r2, [r0]
 4534 0026 D368     		ldr	r3, [r2, #12]
 4535 0028 23F00403 		bic	r3, r3, #4
 4536 002c 08E0     		b	.L671
 4537              	.L664:
 4538 002e 0268     		ldr	r2, [r0]
 4539 0030 D368     		ldr	r3, [r2, #12]
 4540 0032 23F00803 		bic	r3, r3, #8
 4541 0036 03E0     		b	.L671
 4542              	.L665:
 4543 0038 0268     		ldr	r2, [r0]
 4544 003a D368     		ldr	r3, [r2, #12]
 4545 003c 23F01003 		bic	r3, r3, #16
 4546              	.L671:
 4547 0040 D360     		str	r3, [r2, #12]
 4548              	.L660:
 4549 0042 0022     		movs	r2, #0
 4550 0044 2068     		ldr	r0, [r4]
 4551 0046 FFF7FEFF 		bl	TIM_CCxChannelCmd
 4552 004a 2368     		ldr	r3, [r4]
 4553 004c 164A     		ldr	r2, .L672
 4554 004e 9342     		cmp	r3, r2
 4555 0050 0BD0     		beq	.L666
 4556 0052 02F5A052 		add	r2, r2, #5120
 4557 0056 9342     		cmp	r3, r2
 4558 0058 07D0     		beq	.L666
 4559 005a 02F58062 		add	r2, r2, #1024
 4560 005e 9342     		cmp	r3, r2
 4561 0060 03D0     		beq	.L666
 4562 0062 02F58062 		add	r2, r2, #1024
 4563 0066 9342     		cmp	r3, r2
 4564 0068 0DD1     		bne	.L667
 4565              	.L666:
 4566 006a 41F21112 		movw	r2, #4369
 4567 006e 196A     		ldr	r1, [r3, #32]
 4568 0070 0A40     		ands	r2, r2, r1
 4569 0072 42B9     		cbnz	r2, .L667
 4570 0074 40F24442 		movw	r2, #1092
 4571 0078 196A     		ldr	r1, [r3, #32]
 4572 007a 0A40     		ands	r2, r2, r1
 4573 007c 1AB9     		cbnz	r2, .L667
 4574 007e 5A6C     		ldr	r2, [r3, #68]
 4575 0080 22F40042 		bic	r2, r2, #32768
 4576 0084 5A64     		str	r2, [r3, #68]
 4577              	.L667:
 4578 0086 41F21112 		movw	r2, #4369
 4579 008a 196A     		ldr	r1, [r3, #32]
 4580 008c 0A40     		ands	r2, r2, r1
 4581 008e 42B9     		cbnz	r2, .L670
 4582 0090 40F24442 		movw	r2, #1092
 4583 0094 196A     		ldr	r1, [r3, #32]
 4584 0096 0A40     		ands	r2, r2, r1
 4585 0098 1AB9     		cbnz	r2, .L670
 4586 009a 1A68     		ldr	r2, [r3]
 4587 009c 22F00102 		bic	r2, r2, #1
 4588 00a0 1A60     		str	r2, [r3]
ARM GAS  /tmp/ccOz2YRp.s 			page 78


 4589              	.L670:
 4590 00a2 0020     		movs	r0, #0
 4591 00a4 10BD     		pop	{r4, pc}
 4592              	.L673:
 4593 00a6 00BF     		.align	2
 4594              	.L672:
 4595 00a8 002C0140 		.word	1073818624
 4597              		.section	.text.HAL_TIM_PWM_Start_DMA,"ax",%progbits
 4598              		.align	1
 4599              		.global	HAL_TIM_PWM_Start_DMA
 4600              		.thumb
 4601              		.thumb_func
 4603              	HAL_TIM_PWM_Start_DMA:
 4604              		@ args = 0, pretend = 0, frame = 0
 4605              		@ frame_needed = 0, uses_anonymous_args = 0
 4606 0000 38B5     		push	{r3, r4, r5, lr}
 4607 0002 0446     		mov	r4, r0
 4608 0004 90F83D00 		ldrb	r0, [r0, #61]	@ zero_extendqisi2
 4609 0008 0D46     		mov	r5, r1
 4610 000a C0B2     		uxtb	r0, r0
 4611 000c 0228     		cmp	r0, #2
 4612 000e 1146     		mov	r1, r2
 4613 0010 00F08380 		beq	.L692
 4614 0014 94F83D20 		ldrb	r2, [r4, #61]	@ zero_extendqisi2
 4615 0018 012A     		cmp	r2, #1
 4616 001a 06D1     		bne	.L676
 4617 001c 11B9     		cbnz	r1, .L677
 4618 001e 0BB1     		cbz	r3, .L677
 4619              	.L684:
 4620 0020 0120     		movs	r0, #1
 4621 0022 38BD     		pop	{r3, r4, r5, pc}
 4622              	.L677:
 4623 0024 0222     		movs	r2, #2
 4624 0026 84F83D20 		strb	r2, [r4, #61]
 4625              	.L676:
 4626 002a 0C2D     		cmp	r5, #12
 4627 002c 50D8     		bhi	.L678
 4628 002e DFE805F0 		tbb	[pc, r5]
 4629              	.L680:
 4630 0032 07       		.byte	(.L679-.L680)/2
 4631 0033 4F       		.byte	(.L678-.L680)/2
 4632 0034 4F       		.byte	(.L678-.L680)/2
 4633 0035 4F       		.byte	(.L678-.L680)/2
 4634 0036 19       		.byte	(.L681-.L680)/2
 4635 0037 4F       		.byte	(.L678-.L680)/2
 4636 0038 4F       		.byte	(.L678-.L680)/2
 4637 0039 4F       		.byte	(.L678-.L680)/2
 4638 003a 2B       		.byte	(.L682-.L680)/2
 4639 003b 4F       		.byte	(.L678-.L680)/2
 4640 003c 4F       		.byte	(.L678-.L680)/2
 4641 003d 4F       		.byte	(.L678-.L680)/2
 4642 003e 3D       		.byte	(.L683-.L680)/2
 4643 003f 00       		.p2align 1
 4644              	.L679:
 4645 0040 606A     		ldr	r0, [r4, #36]
 4646 0042 364A     		ldr	r2, .L694
 4647 0044 8262     		str	r2, [r0, #40]
ARM GAS  /tmp/ccOz2YRp.s 			page 79


 4648 0046 364A     		ldr	r2, .L694+4
 4649 0048 C262     		str	r2, [r0, #44]
 4650 004a 364A     		ldr	r2, .L694+8
 4651 004c 0263     		str	r2, [r0, #48]
 4652 004e 2268     		ldr	r2, [r4]
 4653 0050 3432     		adds	r2, r2, #52
 4654 0052 FFF7FEFF 		bl	HAL_DMA_Start_IT
 4655 0056 0028     		cmp	r0, #0
 4656 0058 E2D1     		bne	.L684
 4657 005a 2268     		ldr	r2, [r4]
 4658 005c D368     		ldr	r3, [r2, #12]
 4659 005e 43F40073 		orr	r3, r3, #512
 4660 0062 34E0     		b	.L693
 4661              	.L681:
 4662 0064 A06A     		ldr	r0, [r4, #40]
 4663 0066 2D4A     		ldr	r2, .L694
 4664 0068 8262     		str	r2, [r0, #40]
 4665 006a 2D4A     		ldr	r2, .L694+4
 4666 006c C262     		str	r2, [r0, #44]
 4667 006e 2D4A     		ldr	r2, .L694+8
 4668 0070 0263     		str	r2, [r0, #48]
 4669 0072 2268     		ldr	r2, [r4]
 4670 0074 3832     		adds	r2, r2, #56
 4671 0076 FFF7FEFF 		bl	HAL_DMA_Start_IT
 4672 007a 0028     		cmp	r0, #0
 4673 007c D0D1     		bne	.L684
 4674 007e 2268     		ldr	r2, [r4]
 4675 0080 D368     		ldr	r3, [r2, #12]
 4676 0082 43F48063 		orr	r3, r3, #1024
 4677 0086 22E0     		b	.L693
 4678              	.L682:
 4679 0088 E06A     		ldr	r0, [r4, #44]
 4680 008a 244A     		ldr	r2, .L694
 4681 008c 8262     		str	r2, [r0, #40]
 4682 008e 244A     		ldr	r2, .L694+4
 4683 0090 C262     		str	r2, [r0, #44]
 4684 0092 244A     		ldr	r2, .L694+8
 4685 0094 0263     		str	r2, [r0, #48]
 4686 0096 2268     		ldr	r2, [r4]
 4687 0098 3C32     		adds	r2, r2, #60
 4688 009a FFF7FEFF 		bl	HAL_DMA_Start_IT
 4689 009e 0028     		cmp	r0, #0
 4690 00a0 BED1     		bne	.L684
 4691 00a2 2268     		ldr	r2, [r4]
 4692 00a4 D368     		ldr	r3, [r2, #12]
 4693 00a6 43F40063 		orr	r3, r3, #2048
 4694 00aa 10E0     		b	.L693
 4695              	.L683:
 4696 00ac 206B     		ldr	r0, [r4, #48]
 4697 00ae 1B4A     		ldr	r2, .L694
 4698 00b0 8262     		str	r2, [r0, #40]
 4699 00b2 1B4A     		ldr	r2, .L694+4
 4700 00b4 C262     		str	r2, [r0, #44]
 4701 00b6 1B4A     		ldr	r2, .L694+8
 4702 00b8 0263     		str	r2, [r0, #48]
 4703 00ba 2268     		ldr	r2, [r4]
 4704 00bc 4032     		adds	r2, r2, #64
ARM GAS  /tmp/ccOz2YRp.s 			page 80


 4705 00be FFF7FEFF 		bl	HAL_DMA_Start_IT
 4706 00c2 0028     		cmp	r0, #0
 4707 00c4 ACD1     		bne	.L684
 4708 00c6 2268     		ldr	r2, [r4]
 4709 00c8 D368     		ldr	r3, [r2, #12]
 4710 00ca 43F48053 		orr	r3, r3, #4096
 4711              	.L693:
 4712 00ce D360     		str	r3, [r2, #12]
 4713              	.L678:
 4714 00d0 0122     		movs	r2, #1
 4715 00d2 2068     		ldr	r0, [r4]
 4716 00d4 2946     		mov	r1, r5
 4717 00d6 FFF7FEFF 		bl	TIM_CCxChannelCmd
 4718 00da 2368     		ldr	r3, [r4]
 4719 00dc 124A     		ldr	r2, .L694+12
 4720 00de 9342     		cmp	r3, r2
 4721 00e0 16D0     		beq	.L685
 4722 00e2 02F5A052 		add	r2, r2, #5120
 4723 00e6 9342     		cmp	r3, r2
 4724 00e8 12D0     		beq	.L685
 4725 00ea 02F58062 		add	r2, r2, #1024
 4726 00ee 9342     		cmp	r3, r2
 4727 00f0 0ED0     		beq	.L685
 4728 00f2 02F58062 		add	r2, r2, #1024
 4729 00f6 9342     		cmp	r3, r2
 4730 00f8 0AD0     		beq	.L685
 4731              	.L686:
 4732 00fa 9A68     		ldr	r2, [r3, #8]
 4733 00fc 0020     		movs	r0, #0
 4734 00fe 02F00702 		and	r2, r2, #7
 4735 0102 062A     		cmp	r2, #6
 4736 0104 1EBF     		ittt	ne
 4737 0106 1A68     		ldrne	r2, [r3]
 4738 0108 42F00102 		orrne	r2, r2, #1
 4739 010c 1A60     		strne	r2, [r3]
 4740 010e 38BD     		pop	{r3, r4, r5, pc}
 4741              	.L685:
 4742 0110 5A6C     		ldr	r2, [r3, #68]
 4743 0112 42F40042 		orr	r2, r2, #32768
 4744 0116 5A64     		str	r2, [r3, #68]
 4745 0118 EFE7     		b	.L686
 4746              	.L692:
 4747 011a 38BD     		pop	{r3, r4, r5, pc}
 4748              	.L695:
 4749              		.align	2
 4750              	.L694:
 4751 011c 00000000 		.word	TIM_DMADelayPulseCplt
 4752 0120 00000000 		.word	TIM_DMADelayPulseHalfCplt
 4753 0124 00000000 		.word	TIM_DMAError
 4754 0128 002C0140 		.word	1073818624
 4756              		.section	.text.HAL_TIM_PWM_Stop_DMA,"ax",%progbits
 4757              		.align	1
 4758              		.global	HAL_TIM_PWM_Stop_DMA
 4759              		.thumb
 4760              		.thumb_func
 4762              	HAL_TIM_PWM_Stop_DMA:
 4763              		@ args = 0, pretend = 0, frame = 0
ARM GAS  /tmp/ccOz2YRp.s 			page 81


 4764              		@ frame_needed = 0, uses_anonymous_args = 0
 4765 0000 38B5     		push	{r3, r4, r5, lr}
 4766 0002 0446     		mov	r4, r0
 4767 0004 0D46     		mov	r5, r1
 4768 0006 0C29     		cmp	r1, #12
 4769 0008 25D8     		bhi	.L697
 4770 000a DFE801F0 		tbb	[pc, r1]
 4771              	.L699:
 4772 000e 07       		.byte	(.L698-.L699)/2
 4773 000f 24       		.byte	(.L697-.L699)/2
 4774 0010 24       		.byte	(.L697-.L699)/2
 4775 0011 24       		.byte	(.L697-.L699)/2
 4776 0012 0E       		.byte	(.L700-.L699)/2
 4777 0013 24       		.byte	(.L697-.L699)/2
 4778 0014 24       		.byte	(.L697-.L699)/2
 4779 0015 24       		.byte	(.L697-.L699)/2
 4780 0016 15       		.byte	(.L701-.L699)/2
 4781 0017 24       		.byte	(.L697-.L699)/2
 4782 0018 24       		.byte	(.L697-.L699)/2
 4783 0019 24       		.byte	(.L697-.L699)/2
 4784 001a 1C       		.byte	(.L702-.L699)/2
 4785 001b 00       		.p2align 1
 4786              	.L698:
 4787 001c 0268     		ldr	r2, [r0]
 4788 001e 406A     		ldr	r0, [r0, #36]
 4789 0020 D368     		ldr	r3, [r2, #12]
 4790 0022 23F40073 		bic	r3, r3, #512
 4791 0026 D360     		str	r3, [r2, #12]
 4792 0028 13E0     		b	.L708
 4793              	.L700:
 4794 002a 0268     		ldr	r2, [r0]
 4795 002c 806A     		ldr	r0, [r0, #40]
 4796 002e D368     		ldr	r3, [r2, #12]
 4797 0030 23F48063 		bic	r3, r3, #1024
 4798 0034 D360     		str	r3, [r2, #12]
 4799 0036 0CE0     		b	.L708
 4800              	.L701:
 4801 0038 0268     		ldr	r2, [r0]
 4802 003a C06A     		ldr	r0, [r0, #44]
 4803 003c D368     		ldr	r3, [r2, #12]
 4804 003e 23F40063 		bic	r3, r3, #2048
 4805 0042 D360     		str	r3, [r2, #12]
 4806 0044 05E0     		b	.L708
 4807              	.L702:
 4808 0046 0268     		ldr	r2, [r0]
 4809 0048 006B     		ldr	r0, [r0, #48]
 4810 004a D368     		ldr	r3, [r2, #12]
 4811 004c 23F48053 		bic	r3, r3, #4096
 4812 0050 D360     		str	r3, [r2, #12]
 4813              	.L708:
 4814 0052 FFF7FEFF 		bl	HAL_DMA_Abort_IT
 4815              	.L697:
 4816 0056 0022     		movs	r2, #0
 4817 0058 2068     		ldr	r0, [r4]
 4818 005a 2946     		mov	r1, r5
 4819 005c FFF7FEFF 		bl	TIM_CCxChannelCmd
 4820 0060 2368     		ldr	r3, [r4]
ARM GAS  /tmp/ccOz2YRp.s 			page 82


 4821 0062 184A     		ldr	r2, .L709
 4822 0064 9342     		cmp	r3, r2
 4823 0066 0BD0     		beq	.L703
 4824 0068 02F5A052 		add	r2, r2, #5120
 4825 006c 9342     		cmp	r3, r2
 4826 006e 07D0     		beq	.L703
 4827 0070 02F58062 		add	r2, r2, #1024
 4828 0074 9342     		cmp	r3, r2
 4829 0076 03D0     		beq	.L703
 4830 0078 02F58062 		add	r2, r2, #1024
 4831 007c 9342     		cmp	r3, r2
 4832 007e 0DD1     		bne	.L704
 4833              	.L703:
 4834 0080 41F21112 		movw	r2, #4369
 4835 0084 196A     		ldr	r1, [r3, #32]
 4836 0086 0A40     		ands	r2, r2, r1
 4837 0088 42B9     		cbnz	r2, .L704
 4838 008a 40F24442 		movw	r2, #1092
 4839 008e 196A     		ldr	r1, [r3, #32]
 4840 0090 0A40     		ands	r2, r2, r1
 4841 0092 1AB9     		cbnz	r2, .L704
 4842 0094 5A6C     		ldr	r2, [r3, #68]
 4843 0096 22F40042 		bic	r2, r2, #32768
 4844 009a 5A64     		str	r2, [r3, #68]
 4845              	.L704:
 4846 009c 41F21112 		movw	r2, #4369
 4847 00a0 196A     		ldr	r1, [r3, #32]
 4848 00a2 0A40     		ands	r2, r2, r1
 4849 00a4 42B9     		cbnz	r2, .L705
 4850 00a6 40F24442 		movw	r2, #1092
 4851 00aa 196A     		ldr	r1, [r3, #32]
 4852 00ac 0A40     		ands	r2, r2, r1
 4853 00ae 1AB9     		cbnz	r2, .L705
 4854 00b0 1A68     		ldr	r2, [r3]
 4855 00b2 22F00102 		bic	r2, r2, #1
 4856 00b6 1A60     		str	r2, [r3]
 4857              	.L705:
 4858 00b8 0123     		movs	r3, #1
 4859 00ba 84F83D30 		strb	r3, [r4, #61]
 4860 00be 0020     		movs	r0, #0
 4861 00c0 38BD     		pop	{r3, r4, r5, pc}
 4862              	.L710:
 4863 00c2 00BF     		.align	2
 4864              	.L709:
 4865 00c4 002C0140 		.word	1073818624
 4867              		.section	.text.HAL_TIM_IC_Start,"ax",%progbits
 4868              		.align	1
 4869              		.global	HAL_TIM_IC_Start
 4870              		.thumb
 4871              		.thumb_func
 4873              	HAL_TIM_IC_Start:
 4874              		@ args = 0, pretend = 0, frame = 0
 4875              		@ frame_needed = 0, uses_anonymous_args = 0
 4876 0000 10B5     		push	{r4, lr}
 4877 0002 0446     		mov	r4, r0
 4878 0004 0122     		movs	r2, #1
 4879 0006 0068     		ldr	r0, [r0]
ARM GAS  /tmp/ccOz2YRp.s 			page 83


 4880 0008 FFF7FEFF 		bl	TIM_CCxChannelCmd
 4881 000c 2368     		ldr	r3, [r4]
 4882 000e 0020     		movs	r0, #0
 4883 0010 9A68     		ldr	r2, [r3, #8]
 4884 0012 02F00702 		and	r2, r2, #7
 4885 0016 062A     		cmp	r2, #6
 4886 0018 1EBF     		ittt	ne
 4887 001a 1A68     		ldrne	r2, [r3]
 4888 001c 42F00102 		orrne	r2, r2, #1
 4889 0020 1A60     		strne	r2, [r3]
 4890 0022 10BD     		pop	{r4, pc}
 4892              		.section	.text.HAL_TIM_IC_Stop,"ax",%progbits
 4893              		.align	1
 4894              		.global	HAL_TIM_IC_Stop
 4895              		.thumb
 4896              		.thumb_func
 4898              	HAL_TIM_IC_Stop:
 4899              		@ args = 0, pretend = 0, frame = 0
 4900              		@ frame_needed = 0, uses_anonymous_args = 0
 4901 0000 10B5     		push	{r4, lr}
 4902 0002 0446     		mov	r4, r0
 4903 0004 0022     		movs	r2, #0
 4904 0006 0068     		ldr	r0, [r0]
 4905 0008 FFF7FEFF 		bl	TIM_CCxChannelCmd
 4906 000c 41F21112 		movw	r2, #4369
 4907 0010 2368     		ldr	r3, [r4]
 4908 0012 196A     		ldr	r1, [r3, #32]
 4909 0014 0A40     		ands	r2, r2, r1
 4910 0016 42B9     		cbnz	r2, .L717
 4911 0018 40F24442 		movw	r2, #1092
 4912 001c 196A     		ldr	r1, [r3, #32]
 4913 001e 0A40     		ands	r2, r2, r1
 4914 0020 1AB9     		cbnz	r2, .L717
 4915 0022 1A68     		ldr	r2, [r3]
 4916 0024 22F00102 		bic	r2, r2, #1
 4917 0028 1A60     		str	r2, [r3]
 4918              	.L717:
 4919 002a 0020     		movs	r0, #0
 4920 002c 10BD     		pop	{r4, pc}
 4922              		.section	.text.HAL_TIM_IC_Start_IT,"ax",%progbits
 4923              		.align	1
 4924              		.global	HAL_TIM_IC_Start_IT
 4925              		.thumb
 4926              		.thumb_func
 4928              	HAL_TIM_IC_Start_IT:
 4929              		@ args = 0, pretend = 0, frame = 0
 4930              		@ frame_needed = 0, uses_anonymous_args = 0
 4931 0000 10B5     		push	{r4, lr}
 4932 0002 0446     		mov	r4, r0
 4933 0004 0C29     		cmp	r1, #12
 4934 0006 1CD8     		bhi	.L719
 4935 0008 DFE801F0 		tbb	[pc, r1]
 4936              	.L721:
 4937 000c 07       		.byte	(.L720-.L721)/2
 4938 000d 1B       		.byte	(.L719-.L721)/2
 4939 000e 1B       		.byte	(.L719-.L721)/2
 4940 000f 1B       		.byte	(.L719-.L721)/2
ARM GAS  /tmp/ccOz2YRp.s 			page 84


 4941 0010 0C       		.byte	(.L722-.L721)/2
 4942 0011 1B       		.byte	(.L719-.L721)/2
 4943 0012 1B       		.byte	(.L719-.L721)/2
 4944 0013 1B       		.byte	(.L719-.L721)/2
 4945 0014 11       		.byte	(.L723-.L721)/2
 4946 0015 1B       		.byte	(.L719-.L721)/2
 4947 0016 1B       		.byte	(.L719-.L721)/2
 4948 0017 1B       		.byte	(.L719-.L721)/2
 4949 0018 16       		.byte	(.L724-.L721)/2
 4950 0019 00       		.p2align 1
 4951              	.L720:
 4952 001a 0268     		ldr	r2, [r0]
 4953 001c D368     		ldr	r3, [r2, #12]
 4954 001e 43F00203 		orr	r3, r3, #2
 4955 0022 0DE0     		b	.L729
 4956              	.L722:
 4957 0024 0268     		ldr	r2, [r0]
 4958 0026 D368     		ldr	r3, [r2, #12]
 4959 0028 43F00403 		orr	r3, r3, #4
 4960 002c 08E0     		b	.L729
 4961              	.L723:
 4962 002e 0268     		ldr	r2, [r0]
 4963 0030 D368     		ldr	r3, [r2, #12]
 4964 0032 43F00803 		orr	r3, r3, #8
 4965 0036 03E0     		b	.L729
 4966              	.L724:
 4967 0038 0268     		ldr	r2, [r0]
 4968 003a D368     		ldr	r3, [r2, #12]
 4969 003c 43F01003 		orr	r3, r3, #16
 4970              	.L729:
 4971 0040 D360     		str	r3, [r2, #12]
 4972              	.L719:
 4973 0042 2068     		ldr	r0, [r4]
 4974 0044 0122     		movs	r2, #1
 4975 0046 FFF7FEFF 		bl	TIM_CCxChannelCmd
 4976 004a 2368     		ldr	r3, [r4]
 4977 004c 0020     		movs	r0, #0
 4978 004e 9A68     		ldr	r2, [r3, #8]
 4979 0050 02F00702 		and	r2, r2, #7
 4980 0054 062A     		cmp	r2, #6
 4981 0056 1EBF     		ittt	ne
 4982 0058 1A68     		ldrne	r2, [r3]
 4983 005a 42F00102 		orrne	r2, r2, #1
 4984 005e 1A60     		strne	r2, [r3]
 4985 0060 10BD     		pop	{r4, pc}
 4987              		.section	.text.HAL_TIM_IC_Stop_IT,"ax",%progbits
 4988              		.align	1
 4989              		.global	HAL_TIM_IC_Stop_IT
 4990              		.thumb
 4991              		.thumb_func
 4993              	HAL_TIM_IC_Stop_IT:
 4994              		@ args = 0, pretend = 0, frame = 0
 4995              		@ frame_needed = 0, uses_anonymous_args = 0
 4996 0000 10B5     		push	{r4, lr}
 4997 0002 0446     		mov	r4, r0
 4998 0004 0C29     		cmp	r1, #12
 4999 0006 1CD8     		bhi	.L731
ARM GAS  /tmp/ccOz2YRp.s 			page 85


 5000 0008 DFE801F0 		tbb	[pc, r1]
 5001              	.L733:
 5002 000c 07       		.byte	(.L732-.L733)/2
 5003 000d 1B       		.byte	(.L731-.L733)/2
 5004 000e 1B       		.byte	(.L731-.L733)/2
 5005 000f 1B       		.byte	(.L731-.L733)/2
 5006 0010 0C       		.byte	(.L734-.L733)/2
 5007 0011 1B       		.byte	(.L731-.L733)/2
 5008 0012 1B       		.byte	(.L731-.L733)/2
 5009 0013 1B       		.byte	(.L731-.L733)/2
 5010 0014 11       		.byte	(.L735-.L733)/2
 5011 0015 1B       		.byte	(.L731-.L733)/2
 5012 0016 1B       		.byte	(.L731-.L733)/2
 5013 0017 1B       		.byte	(.L731-.L733)/2
 5014 0018 16       		.byte	(.L736-.L733)/2
 5015 0019 00       		.p2align 1
 5016              	.L732:
 5017 001a 0268     		ldr	r2, [r0]
 5018 001c D368     		ldr	r3, [r2, #12]
 5019 001e 23F00203 		bic	r3, r3, #2
 5020 0022 0DE0     		b	.L738
 5021              	.L734:
 5022 0024 0268     		ldr	r2, [r0]
 5023 0026 D368     		ldr	r3, [r2, #12]
 5024 0028 23F00403 		bic	r3, r3, #4
 5025 002c 08E0     		b	.L738
 5026              	.L735:
 5027 002e 0268     		ldr	r2, [r0]
 5028 0030 D368     		ldr	r3, [r2, #12]
 5029 0032 23F00803 		bic	r3, r3, #8
 5030 0036 03E0     		b	.L738
 5031              	.L736:
 5032 0038 0268     		ldr	r2, [r0]
 5033 003a D368     		ldr	r3, [r2, #12]
 5034 003c 23F01003 		bic	r3, r3, #16
 5035              	.L738:
 5036 0040 D360     		str	r3, [r2, #12]
 5037              	.L731:
 5038 0042 0022     		movs	r2, #0
 5039 0044 2068     		ldr	r0, [r4]
 5040 0046 FFF7FEFF 		bl	TIM_CCxChannelCmd
 5041 004a 41F21112 		movw	r2, #4369
 5042 004e 2368     		ldr	r3, [r4]
 5043 0050 196A     		ldr	r1, [r3, #32]
 5044 0052 0A40     		ands	r2, r2, r1
 5045 0054 42B9     		cbnz	r2, .L737
 5046 0056 40F24442 		movw	r2, #1092
 5047 005a 196A     		ldr	r1, [r3, #32]
 5048 005c 0A40     		ands	r2, r2, r1
 5049 005e 1AB9     		cbnz	r2, .L737
 5050 0060 1A68     		ldr	r2, [r3]
 5051 0062 22F00102 		bic	r2, r2, #1
 5052 0066 1A60     		str	r2, [r3]
 5053              	.L737:
 5054 0068 0020     		movs	r0, #0
 5055 006a 10BD     		pop	{r4, pc}
 5057              		.section	.text.HAL_TIM_IC_Start_DMA,"ax",%progbits
ARM GAS  /tmp/ccOz2YRp.s 			page 86


 5058              		.align	1
 5059              		.global	HAL_TIM_IC_Start_DMA
 5060              		.thumb
 5061              		.thumb_func
 5063              	HAL_TIM_IC_Start_DMA:
 5064              		@ args = 0, pretend = 0, frame = 0
 5065              		@ frame_needed = 0, uses_anonymous_args = 0
 5066 0000 38B5     		push	{r3, r4, r5, lr}
 5067 0002 0446     		mov	r4, r0
 5068 0004 90F83D00 		ldrb	r0, [r0, #61]	@ zero_extendqisi2
 5069 0008 0D46     		mov	r5, r1
 5070 000a C0B2     		uxtb	r0, r0
 5071 000c 0228     		cmp	r0, #2
 5072 000e 6DD0     		beq	.L740
 5073 0010 94F83D10 		ldrb	r1, [r4, #61]	@ zero_extendqisi2
 5074 0014 0129     		cmp	r1, #1
 5075 0016 06D1     		bne	.L741
 5076 0018 12B9     		cbnz	r2, .L742
 5077 001a 0BB1     		cbz	r3, .L742
 5078              	.L749:
 5079 001c 0120     		movs	r0, #1
 5080 001e 38BD     		pop	{r3, r4, r5, pc}
 5081              	.L742:
 5082 0020 0221     		movs	r1, #2
 5083 0022 84F83D10 		strb	r1, [r4, #61]
 5084              	.L741:
 5085 0026 0C2D     		cmp	r5, #12
 5086 0028 50D8     		bhi	.L743
 5087 002a DFE805F0 		tbb	[pc, r5]
 5088              	.L745:
 5089 002e 07       		.byte	(.L744-.L745)/2
 5090 002f 4F       		.byte	(.L743-.L745)/2
 5091 0030 4F       		.byte	(.L743-.L745)/2
 5092 0031 4F       		.byte	(.L743-.L745)/2
 5093 0032 19       		.byte	(.L746-.L745)/2
 5094 0033 4F       		.byte	(.L743-.L745)/2
 5095 0034 4F       		.byte	(.L743-.L745)/2
 5096 0035 4F       		.byte	(.L743-.L745)/2
 5097 0036 2B       		.byte	(.L747-.L745)/2
 5098 0037 4F       		.byte	(.L743-.L745)/2
 5099 0038 4F       		.byte	(.L743-.L745)/2
 5100 0039 4F       		.byte	(.L743-.L745)/2
 5101 003a 3D       		.byte	(.L748-.L745)/2
 5102 003b 00       		.p2align 1
 5103              	.L744:
 5104 003c 606A     		ldr	r0, [r4, #36]
 5105 003e 2C49     		ldr	r1, .L756
 5106 0040 8162     		str	r1, [r0, #40]
 5107 0042 2C49     		ldr	r1, .L756+4
 5108 0044 C162     		str	r1, [r0, #44]
 5109 0046 2C49     		ldr	r1, .L756+8
 5110 0048 0163     		str	r1, [r0, #48]
 5111 004a 2168     		ldr	r1, [r4]
 5112 004c 3431     		adds	r1, r1, #52
 5113 004e FFF7FEFF 		bl	HAL_DMA_Start_IT
 5114 0052 0028     		cmp	r0, #0
 5115 0054 E2D1     		bne	.L749
ARM GAS  /tmp/ccOz2YRp.s 			page 87


 5116 0056 2268     		ldr	r2, [r4]
 5117 0058 D368     		ldr	r3, [r2, #12]
 5118 005a 43F40073 		orr	r3, r3, #512
 5119 005e 34E0     		b	.L755
 5120              	.L746:
 5121 0060 A06A     		ldr	r0, [r4, #40]
 5122 0062 2349     		ldr	r1, .L756
 5123 0064 8162     		str	r1, [r0, #40]
 5124 0066 2349     		ldr	r1, .L756+4
 5125 0068 C162     		str	r1, [r0, #44]
 5126 006a 2349     		ldr	r1, .L756+8
 5127 006c 0163     		str	r1, [r0, #48]
 5128 006e 2168     		ldr	r1, [r4]
 5129 0070 3831     		adds	r1, r1, #56
 5130 0072 FFF7FEFF 		bl	HAL_DMA_Start_IT
 5131 0076 0028     		cmp	r0, #0
 5132 0078 D0D1     		bne	.L749
 5133 007a 2268     		ldr	r2, [r4]
 5134 007c D368     		ldr	r3, [r2, #12]
 5135 007e 43F48063 		orr	r3, r3, #1024
 5136 0082 22E0     		b	.L755
 5137              	.L747:
 5138 0084 E06A     		ldr	r0, [r4, #44]
 5139 0086 1A49     		ldr	r1, .L756
 5140 0088 8162     		str	r1, [r0, #40]
 5141 008a 1A49     		ldr	r1, .L756+4
 5142 008c C162     		str	r1, [r0, #44]
 5143 008e 1A49     		ldr	r1, .L756+8
 5144 0090 0163     		str	r1, [r0, #48]
 5145 0092 2168     		ldr	r1, [r4]
 5146 0094 3C31     		adds	r1, r1, #60
 5147 0096 FFF7FEFF 		bl	HAL_DMA_Start_IT
 5148 009a 0028     		cmp	r0, #0
 5149 009c BED1     		bne	.L749
 5150 009e 2268     		ldr	r2, [r4]
 5151 00a0 D368     		ldr	r3, [r2, #12]
 5152 00a2 43F40063 		orr	r3, r3, #2048
 5153 00a6 10E0     		b	.L755
 5154              	.L748:
 5155 00a8 206B     		ldr	r0, [r4, #48]
 5156 00aa 1149     		ldr	r1, .L756
 5157 00ac 8162     		str	r1, [r0, #40]
 5158 00ae 1149     		ldr	r1, .L756+4
 5159 00b0 C162     		str	r1, [r0, #44]
 5160 00b2 1149     		ldr	r1, .L756+8
 5161 00b4 0163     		str	r1, [r0, #48]
 5162 00b6 2168     		ldr	r1, [r4]
 5163 00b8 4031     		adds	r1, r1, #64
 5164 00ba FFF7FEFF 		bl	HAL_DMA_Start_IT
 5165 00be 0028     		cmp	r0, #0
 5166 00c0 ACD1     		bne	.L749
 5167 00c2 2268     		ldr	r2, [r4]
 5168 00c4 D368     		ldr	r3, [r2, #12]
 5169 00c6 43F48053 		orr	r3, r3, #4096
 5170              	.L755:
 5171 00ca D360     		str	r3, [r2, #12]
 5172              	.L743:
ARM GAS  /tmp/ccOz2YRp.s 			page 88


 5173 00cc 2068     		ldr	r0, [r4]
 5174 00ce 0122     		movs	r2, #1
 5175 00d0 2946     		mov	r1, r5
 5176 00d2 FFF7FEFF 		bl	TIM_CCxChannelCmd
 5177 00d6 2368     		ldr	r3, [r4]
 5178 00d8 0020     		movs	r0, #0
 5179 00da 9A68     		ldr	r2, [r3, #8]
 5180 00dc 02F00702 		and	r2, r2, #7
 5181 00e0 062A     		cmp	r2, #6
 5182 00e2 1EBF     		ittt	ne
 5183 00e4 1A68     		ldrne	r2, [r3]
 5184 00e6 42F00102 		orrne	r2, r2, #1
 5185 00ea 1A60     		strne	r2, [r3]
 5186              	.L740:
 5187 00ec 38BD     		pop	{r3, r4, r5, pc}
 5188              	.L757:
 5189 00ee 00BF     		.align	2
 5190              	.L756:
 5191 00f0 00000000 		.word	TIM_DMACaptureCplt
 5192 00f4 00000000 		.word	TIM_DMACaptureHalfCplt
 5193 00f8 00000000 		.word	TIM_DMAError
 5195              		.section	.text.HAL_TIM_IC_Stop_DMA,"ax",%progbits
 5196              		.align	1
 5197              		.global	HAL_TIM_IC_Stop_DMA
 5198              		.thumb
 5199              		.thumb_func
 5201              	HAL_TIM_IC_Stop_DMA:
 5202              		@ args = 0, pretend = 0, frame = 0
 5203              		@ frame_needed = 0, uses_anonymous_args = 0
 5204 0000 38B5     		push	{r3, r4, r5, lr}
 5205 0002 0446     		mov	r4, r0
 5206 0004 0D46     		mov	r5, r1
 5207 0006 0C29     		cmp	r1, #12
 5208 0008 25D8     		bhi	.L759
 5209 000a DFE801F0 		tbb	[pc, r1]
 5210              	.L761:
 5211 000e 07       		.byte	(.L760-.L761)/2
 5212 000f 24       		.byte	(.L759-.L761)/2
 5213 0010 24       		.byte	(.L759-.L761)/2
 5214 0011 24       		.byte	(.L759-.L761)/2
 5215 0012 0E       		.byte	(.L762-.L761)/2
 5216 0013 24       		.byte	(.L759-.L761)/2
 5217 0014 24       		.byte	(.L759-.L761)/2
 5218 0015 24       		.byte	(.L759-.L761)/2
 5219 0016 15       		.byte	(.L763-.L761)/2
 5220 0017 24       		.byte	(.L759-.L761)/2
 5221 0018 24       		.byte	(.L759-.L761)/2
 5222 0019 24       		.byte	(.L759-.L761)/2
 5223 001a 1C       		.byte	(.L764-.L761)/2
 5224 001b 00       		.p2align 1
 5225              	.L760:
 5226 001c 0268     		ldr	r2, [r0]
 5227 001e 406A     		ldr	r0, [r0, #36]
 5228 0020 D368     		ldr	r3, [r2, #12]
 5229 0022 23F40073 		bic	r3, r3, #512
 5230 0026 D360     		str	r3, [r2, #12]
 5231 0028 13E0     		b	.L766
ARM GAS  /tmp/ccOz2YRp.s 			page 89


 5232              	.L762:
 5233 002a 0268     		ldr	r2, [r0]
 5234 002c 806A     		ldr	r0, [r0, #40]
 5235 002e D368     		ldr	r3, [r2, #12]
 5236 0030 23F48063 		bic	r3, r3, #1024
 5237 0034 D360     		str	r3, [r2, #12]
 5238 0036 0CE0     		b	.L766
 5239              	.L763:
 5240 0038 0268     		ldr	r2, [r0]
 5241 003a C06A     		ldr	r0, [r0, #44]
 5242 003c D368     		ldr	r3, [r2, #12]
 5243 003e 23F40063 		bic	r3, r3, #2048
 5244 0042 D360     		str	r3, [r2, #12]
 5245 0044 05E0     		b	.L766
 5246              	.L764:
 5247 0046 0268     		ldr	r2, [r0]
 5248 0048 006B     		ldr	r0, [r0, #48]
 5249 004a D368     		ldr	r3, [r2, #12]
 5250 004c 23F48053 		bic	r3, r3, #4096
 5251 0050 D360     		str	r3, [r2, #12]
 5252              	.L766:
 5253 0052 FFF7FEFF 		bl	HAL_DMA_Abort_IT
 5254              	.L759:
 5255 0056 2946     		mov	r1, r5
 5256 0058 0022     		movs	r2, #0
 5257 005a 2068     		ldr	r0, [r4]
 5258 005c FFF7FEFF 		bl	TIM_CCxChannelCmd
 5259 0060 41F21112 		movw	r2, #4369
 5260 0064 2368     		ldr	r3, [r4]
 5261 0066 196A     		ldr	r1, [r3, #32]
 5262 0068 0A40     		ands	r2, r2, r1
 5263 006a 42B9     		cbnz	r2, .L765
 5264 006c 40F24442 		movw	r2, #1092
 5265 0070 196A     		ldr	r1, [r3, #32]
 5266 0072 0A40     		ands	r2, r2, r1
 5267 0074 1AB9     		cbnz	r2, .L765
 5268 0076 1A68     		ldr	r2, [r3]
 5269 0078 22F00102 		bic	r2, r2, #1
 5270 007c 1A60     		str	r2, [r3]
 5271              	.L765:
 5272 007e 0123     		movs	r3, #1
 5273 0080 84F83D30 		strb	r3, [r4, #61]
 5274 0084 0020     		movs	r0, #0
 5275 0086 38BD     		pop	{r3, r4, r5, pc}
 5277              		.ident	"GCC: (15:4.9.3+svn231177-1) 4.9.3 20150529 (prerelease)"
ARM GAS  /tmp/ccOz2YRp.s 			page 90

