ARM GAS  /tmp/ccu6RlhA.s 			page 1


   1              		.cpu cortex-m3
   2              		.eabi_attribute 20, 1
   3              		.eabi_attribute 21, 1
   4              		.eabi_attribute 23, 3
   5              		.eabi_attribute 24, 1
   6              		.eabi_attribute 25, 1
   7              		.eabi_attribute 26, 1
   8              		.eabi_attribute 30, 4
   9              		.eabi_attribute 34, 1
  10              		.eabi_attribute 18, 4
  11              		.file	"stm32f1xx_hal_tim_ex.c"
  12              		.section	.text.TIM_CCxNChannelCmd,"ax",%progbits
  13              		.align	1
  14              		.syntax unified
  15              		.thumb
  16              		.thumb_func
  17              		.fpu softvfp
  19              	TIM_CCxNChannelCmd:
  20              		@ args = 0, pretend = 0, frame = 0
  21              		@ frame_needed = 0, uses_anonymous_args = 0
  22 0000 10B5     		push	{r4, lr}
  23 0002 0424     		movs	r4, #4
  24 0004 036A     		ldr	r3, [r0, #32]
  25 0006 01F01F01 		and	r1, r1, #31
  26 000a 8C40     		lsls	r4, r4, r1
  27 000c 23EA0403 		bic	r3, r3, r4
  28 0010 0362     		str	r3, [r0, #32]
  29 0012 036A     		ldr	r3, [r0, #32]
  30 0014 8A40     		lsls	r2, r2, r1
  31 0016 1A43     		orrs	r2, r2, r3
  32 0018 0262     		str	r2, [r0, #32]
  33 001a 10BD     		pop	{r4, pc}
  35              		.section	.text.HAL_TIMEx_HallSensor_MspInit,"ax",%progbits
  36              		.align	1
  37              		.weak	HAL_TIMEx_HallSensor_MspInit
  38              		.syntax unified
  39              		.thumb
  40              		.thumb_func
  41              		.fpu softvfp
  43              	HAL_TIMEx_HallSensor_MspInit:
  44              		@ args = 0, pretend = 0, frame = 0
  45              		@ frame_needed = 0, uses_anonymous_args = 0
  46              		@ link register save eliminated.
  47 0000 7047     		bx	lr
  49              		.section	.text.HAL_TIMEx_HallSensor_Init,"ax",%progbits
  50              		.align	1
  51              		.global	HAL_TIMEx_HallSensor_Init
  52              		.syntax unified
  53              		.thumb
  54              		.thumb_func
  55              		.fpu softvfp
  57              	HAL_TIMEx_HallSensor_Init:
  58              		@ args = 0, pretend = 0, frame = 32
  59              		@ frame_needed = 0, uses_anonymous_args = 0
  60 0000 70B5     		push	{r4, r5, r6, lr}
  61 0002 0E46     		mov	r6, r1
  62 0004 88B0     		sub	sp, sp, #32
ARM GAS  /tmp/ccu6RlhA.s 			page 2


  63 0006 0546     		mov	r5, r0
  64 0008 0028     		cmp	r0, #0
  65 000a 4ED0     		beq	.L6
  66 000c 90F83D30 		ldrb	r3, [r0, #61]	@ zero_extendqisi2
  67 0010 03F0FF02 		and	r2, r3, #255
  68 0014 1BB9     		cbnz	r3, .L5
  69 0016 80F83C20 		strb	r2, [r0, #60]
  70 001a FFF7FEFF 		bl	HAL_TIMEx_HallSensor_MspInit
  71              	.L5:
  72 001e 0223     		movs	r3, #2
  73 0020 291D     		adds	r1, r5, #4
  74 0022 85F83D30 		strb	r3, [r5, #61]
  75 0026 2868     		ldr	r0, [r5]
  76 0028 FFF7FEFF 		bl	TIM_Base_SetConfig
  77 002c B368     		ldr	r3, [r6, #8]
  78 002e 0322     		movs	r2, #3
  79 0030 3168     		ldr	r1, [r6]
  80 0032 2868     		ldr	r0, [r5]
  81 0034 FFF7FEFF 		bl	TIM_TI1_SetConfig
  82 0038 2868     		ldr	r0, [r5]
  83 003a 7268     		ldr	r2, [r6, #4]
  84 003c 8369     		ldr	r3, [r0, #24]
  85 003e 0024     		movs	r4, #0
  86 0040 23F00C03 		bic	r3, r3, #12
  87 0044 8361     		str	r3, [r0, #24]
  88 0046 8369     		ldr	r3, [r0, #24]
  89 0048 01A9     		add	r1, sp, #4
  90 004a 1343     		orrs	r3, r3, r2
  91 004c 8361     		str	r3, [r0, #24]
  92 004e 4368     		ldr	r3, [r0, #4]
  93 0050 43F08003 		orr	r3, r3, #128
  94 0054 4360     		str	r3, [r0, #4]
  95 0056 8368     		ldr	r3, [r0, #8]
  96 0058 23F07003 		bic	r3, r3, #112
  97 005c 8360     		str	r3, [r0, #8]
  98 005e 8368     		ldr	r3, [r0, #8]
  99 0060 43F04003 		orr	r3, r3, #64
 100 0064 8360     		str	r3, [r0, #8]
 101 0066 8368     		ldr	r3, [r0, #8]
 102 0068 23F00703 		bic	r3, r3, #7
 103 006c 8360     		str	r3, [r0, #8]
 104 006e 8368     		ldr	r3, [r0, #8]
 105 0070 43F00403 		orr	r3, r3, #4
 106 0074 8360     		str	r3, [r0, #8]
 107 0076 7023     		movs	r3, #112
 108 0078 0193     		str	r3, [sp, #4]
 109 007a F368     		ldr	r3, [r6, #12]
 110 007c 0594     		str	r4, [sp, #20]
 111 007e 0293     		str	r3, [sp, #8]
 112 0080 0694     		str	r4, [sp, #24]
 113 0082 0794     		str	r4, [sp, #28]
 114 0084 0494     		str	r4, [sp, #16]
 115 0086 0394     		str	r4, [sp, #12]
 116 0088 FFF7FEFF 		bl	TIM_OC2_SetConfig
 117 008c 2B68     		ldr	r3, [r5]
 118 008e 2046     		mov	r0, r4
 119 0090 5A68     		ldr	r2, [r3, #4]
ARM GAS  /tmp/ccu6RlhA.s 			page 3


 120 0092 22F07002 		bic	r2, r2, #112
 121 0096 5A60     		str	r2, [r3, #4]
 122 0098 5A68     		ldr	r2, [r3, #4]
 123 009a 42F05002 		orr	r2, r2, #80
 124 009e 5A60     		str	r2, [r3, #4]
 125 00a0 0123     		movs	r3, #1
 126 00a2 85F83D30 		strb	r3, [r5, #61]
 127              	.L4:
 128 00a6 08B0     		add	sp, sp, #32
 129              		@ sp needed
 130 00a8 70BD     		pop	{r4, r5, r6, pc}
 131              	.L6:
 132 00aa 0120     		movs	r0, #1
 133 00ac FBE7     		b	.L4
 135              		.section	.text.HAL_TIMEx_HallSensor_MspDeInit,"ax",%progbits
 136              		.align	1
 137              		.weak	HAL_TIMEx_HallSensor_MspDeInit
 138              		.syntax unified
 139              		.thumb
 140              		.thumb_func
 141              		.fpu softvfp
 143              	HAL_TIMEx_HallSensor_MspDeInit:
 144              		@ args = 0, pretend = 0, frame = 0
 145              		@ frame_needed = 0, uses_anonymous_args = 0
 146              		@ link register save eliminated.
 147 0000 7047     		bx	lr
 149              		.section	.text.HAL_TIMEx_HallSensor_DeInit,"ax",%progbits
 150              		.align	1
 151              		.global	HAL_TIMEx_HallSensor_DeInit
 152              		.syntax unified
 153              		.thumb
 154              		.thumb_func
 155              		.fpu softvfp
 157              	HAL_TIMEx_HallSensor_DeInit:
 158              		@ args = 0, pretend = 0, frame = 0
 159              		@ frame_needed = 0, uses_anonymous_args = 0
 160 0000 0223     		movs	r3, #2
 161 0002 41F21112 		movw	r2, #4369
 162 0006 10B5     		push	{r4, lr}
 163 0008 80F83D30 		strb	r3, [r0, #61]
 164 000c 0368     		ldr	r3, [r0]
 165 000e 0446     		mov	r4, r0
 166 0010 196A     		ldr	r1, [r3, #32]
 167 0012 1142     		tst	r1, r2
 168 0014 08D1     		bne	.L9
 169 0016 40F24442 		movw	r2, #1092
 170 001a 196A     		ldr	r1, [r3, #32]
 171 001c 1142     		tst	r1, r2
 172 001e 02BF     		ittt	eq
 173 0020 1A68     		ldreq	r2, [r3]
 174 0022 22F00102 		biceq	r2, r2, #1
 175 0026 1A60     		streq	r2, [r3]
 176              	.L9:
 177 0028 2046     		mov	r0, r4
 178 002a FFF7FEFF 		bl	HAL_TIMEx_HallSensor_MspDeInit
 179 002e 0020     		movs	r0, #0
 180 0030 84F83D00 		strb	r0, [r4, #61]
ARM GAS  /tmp/ccu6RlhA.s 			page 4


 181 0034 84F83C00 		strb	r0, [r4, #60]
 182 0038 10BD     		pop	{r4, pc}
 184              		.section	.text.HAL_TIMEx_HallSensor_Start,"ax",%progbits
 185              		.align	1
 186              		.global	HAL_TIMEx_HallSensor_Start
 187              		.syntax unified
 188              		.thumb
 189              		.thumb_func
 190              		.fpu softvfp
 192              	HAL_TIMEx_HallSensor_Start:
 193              		@ args = 0, pretend = 0, frame = 0
 194              		@ frame_needed = 0, uses_anonymous_args = 0
 195 0000 10B5     		push	{r4, lr}
 196 0002 0446     		mov	r4, r0
 197 0004 0122     		movs	r2, #1
 198 0006 0021     		movs	r1, #0
 199 0008 0068     		ldr	r0, [r0]
 200 000a FFF7FEFF 		bl	TIM_CCxChannelCmd
 201 000e 2368     		ldr	r3, [r4]
 202 0010 0020     		movs	r0, #0
 203 0012 9A68     		ldr	r2, [r3, #8]
 204 0014 02F00702 		and	r2, r2, #7
 205 0018 062A     		cmp	r2, #6
 206 001a 1EBF     		ittt	ne
 207 001c 1A68     		ldrne	r2, [r3]
 208 001e 42F00102 		orrne	r2, r2, #1
 209 0022 1A60     		strne	r2, [r3]
 210 0024 10BD     		pop	{r4, pc}
 212              		.section	.text.HAL_TIMEx_HallSensor_Stop,"ax",%progbits
 213              		.align	1
 214              		.global	HAL_TIMEx_HallSensor_Stop
 215              		.syntax unified
 216              		.thumb
 217              		.thumb_func
 218              		.fpu softvfp
 220              	HAL_TIMEx_HallSensor_Stop:
 221              		@ args = 0, pretend = 0, frame = 0
 222              		@ frame_needed = 0, uses_anonymous_args = 0
 223 0000 0022     		movs	r2, #0
 224 0002 10B5     		push	{r4, lr}
 225 0004 0446     		mov	r4, r0
 226 0006 1146     		mov	r1, r2
 227 0008 0068     		ldr	r0, [r0]
 228 000a FFF7FEFF 		bl	TIM_CCxChannelCmd
 229 000e 41F21112 		movw	r2, #4369
 230 0012 2368     		ldr	r3, [r4]
 231 0014 196A     		ldr	r1, [r3, #32]
 232 0016 1142     		tst	r1, r2
 233 0018 08D1     		bne	.L16
 234 001a 40F24442 		movw	r2, #1092
 235 001e 196A     		ldr	r1, [r3, #32]
 236 0020 1142     		tst	r1, r2
 237 0022 02BF     		ittt	eq
 238 0024 1A68     		ldreq	r2, [r3]
 239 0026 22F00102 		biceq	r2, r2, #1
 240 002a 1A60     		streq	r2, [r3]
 241              	.L16:
ARM GAS  /tmp/ccu6RlhA.s 			page 5


 242 002c 0020     		movs	r0, #0
 243 002e 10BD     		pop	{r4, pc}
 245              		.section	.text.HAL_TIMEx_HallSensor_Start_IT,"ax",%progbits
 246              		.align	1
 247              		.global	HAL_TIMEx_HallSensor_Start_IT
 248              		.syntax unified
 249              		.thumb
 250              		.thumb_func
 251              		.fpu softvfp
 253              	HAL_TIMEx_HallSensor_Start_IT:
 254              		@ args = 0, pretend = 0, frame = 0
 255              		@ frame_needed = 0, uses_anonymous_args = 0
 256 0000 10B5     		push	{r4, lr}
 257 0002 0446     		mov	r4, r0
 258 0004 0068     		ldr	r0, [r0]
 259 0006 0122     		movs	r2, #1
 260 0008 C368     		ldr	r3, [r0, #12]
 261 000a 0021     		movs	r1, #0
 262 000c 43F00203 		orr	r3, r3, #2
 263 0010 C360     		str	r3, [r0, #12]
 264 0012 FFF7FEFF 		bl	TIM_CCxChannelCmd
 265 0016 2368     		ldr	r3, [r4]
 266 0018 0020     		movs	r0, #0
 267 001a 9A68     		ldr	r2, [r3, #8]
 268 001c 02F00702 		and	r2, r2, #7
 269 0020 062A     		cmp	r2, #6
 270 0022 1EBF     		ittt	ne
 271 0024 1A68     		ldrne	r2, [r3]
 272 0026 42F00102 		orrne	r2, r2, #1
 273 002a 1A60     		strne	r2, [r3]
 274 002c 10BD     		pop	{r4, pc}
 276              		.section	.text.HAL_TIMEx_HallSensor_Stop_IT,"ax",%progbits
 277              		.align	1
 278              		.global	HAL_TIMEx_HallSensor_Stop_IT
 279              		.syntax unified
 280              		.thumb
 281              		.thumb_func
 282              		.fpu softvfp
 284              	HAL_TIMEx_HallSensor_Stop_IT:
 285              		@ args = 0, pretend = 0, frame = 0
 286              		@ frame_needed = 0, uses_anonymous_args = 0
 287 0000 0022     		movs	r2, #0
 288 0002 10B5     		push	{r4, lr}
 289 0004 0446     		mov	r4, r0
 290 0006 1146     		mov	r1, r2
 291 0008 0068     		ldr	r0, [r0]
 292 000a FFF7FEFF 		bl	TIM_CCxChannelCmd
 293 000e 2368     		ldr	r3, [r4]
 294 0010 DA68     		ldr	r2, [r3, #12]
 295 0012 22F00202 		bic	r2, r2, #2
 296 0016 DA60     		str	r2, [r3, #12]
 297 0018 41F21112 		movw	r2, #4369
 298 001c 196A     		ldr	r1, [r3, #32]
 299 001e 1142     		tst	r1, r2
 300 0020 08D1     		bne	.L23
 301 0022 40F24442 		movw	r2, #1092
 302 0026 196A     		ldr	r1, [r3, #32]
ARM GAS  /tmp/ccu6RlhA.s 			page 6


 303 0028 1142     		tst	r1, r2
 304 002a 02BF     		ittt	eq
 305 002c 1A68     		ldreq	r2, [r3]
 306 002e 22F00102 		biceq	r2, r2, #1
 307 0032 1A60     		streq	r2, [r3]
 308              	.L23:
 309 0034 0020     		movs	r0, #0
 310 0036 10BD     		pop	{r4, pc}
 312              		.section	.text.HAL_TIMEx_HallSensor_Start_DMA,"ax",%progbits
 313              		.align	1
 314              		.global	HAL_TIMEx_HallSensor_Start_DMA
 315              		.syntax unified
 316              		.thumb
 317              		.thumb_func
 318              		.fpu softvfp
 320              	HAL_TIMEx_HallSensor_Start_DMA:
 321              		@ args = 0, pretend = 0, frame = 0
 322              		@ frame_needed = 0, uses_anonymous_args = 0
 323 0000 70B5     		push	{r4, r5, r6, lr}
 324 0002 0446     		mov	r4, r0
 325 0004 90F83D00 		ldrb	r0, [r0, #61]	@ zero_extendqisi2
 326 0008 0D46     		mov	r5, r1
 327 000a C0B2     		uxtb	r0, r0
 328 000c 0228     		cmp	r0, #2
 329 000e 1646     		mov	r6, r2
 330 0010 2CD0     		beq	.L25
 331 0012 94F83D30 		ldrb	r3, [r4, #61]	@ zero_extendqisi2
 332 0016 012B     		cmp	r3, #1
 333 0018 06D1     		bne	.L26
 334 001a 11B9     		cbnz	r1, .L27
 335 001c 0AB1     		cbz	r2, .L27
 336              	.L28:
 337 001e 0120     		movs	r0, #1
 338 0020 70BD     		pop	{r4, r5, r6, pc}
 339              	.L27:
 340 0022 0223     		movs	r3, #2
 341 0024 84F83D30 		strb	r3, [r4, #61]
 342              	.L26:
 343 0028 0122     		movs	r2, #1
 344 002a 0021     		movs	r1, #0
 345 002c 2068     		ldr	r0, [r4]
 346 002e FFF7FEFF 		bl	TIM_CCxChannelCmd
 347 0032 606A     		ldr	r0, [r4, #36]
 348 0034 0E4B     		ldr	r3, .L36
 349 0036 2168     		ldr	r1, [r4]
 350 0038 8362     		str	r3, [r0, #40]
 351 003a 0E4B     		ldr	r3, .L36+4
 352 003c 2A46     		mov	r2, r5
 353 003e C362     		str	r3, [r0, #44]
 354 0040 0D4B     		ldr	r3, .L36+8
 355 0042 3431     		adds	r1, r1, #52
 356 0044 0363     		str	r3, [r0, #48]
 357 0046 3346     		mov	r3, r6
 358 0048 FFF7FEFF 		bl	HAL_DMA_Start_IT
 359 004c 0028     		cmp	r0, #0
 360 004e E6D1     		bne	.L28
 361 0050 2368     		ldr	r3, [r4]
ARM GAS  /tmp/ccu6RlhA.s 			page 7


 362 0052 DA68     		ldr	r2, [r3, #12]
 363 0054 42F40072 		orr	r2, r2, #512
 364 0058 DA60     		str	r2, [r3, #12]
 365 005a 9A68     		ldr	r2, [r3, #8]
 366 005c 02F00702 		and	r2, r2, #7
 367 0060 062A     		cmp	r2, #6
 368 0062 1EBF     		ittt	ne
 369 0064 1A68     		ldrne	r2, [r3]
 370 0066 42F00102 		orrne	r2, r2, #1
 371 006a 1A60     		strne	r2, [r3]
 372              	.L25:
 373 006c 70BD     		pop	{r4, r5, r6, pc}
 374              	.L37:
 375 006e 00BF     		.align	2
 376              	.L36:
 377 0070 00000000 		.word	TIM_DMACaptureCplt
 378 0074 00000000 		.word	TIM_DMACaptureHalfCplt
 379 0078 00000000 		.word	TIM_DMAError
 381              		.section	.text.HAL_TIMEx_HallSensor_Stop_DMA,"ax",%progbits
 382              		.align	1
 383              		.global	HAL_TIMEx_HallSensor_Stop_DMA
 384              		.syntax unified
 385              		.thumb
 386              		.thumb_func
 387              		.fpu softvfp
 389              	HAL_TIMEx_HallSensor_Stop_DMA:
 390              		@ args = 0, pretend = 0, frame = 0
 391              		@ frame_needed = 0, uses_anonymous_args = 0
 392 0000 0022     		movs	r2, #0
 393 0002 10B5     		push	{r4, lr}
 394 0004 0446     		mov	r4, r0
 395 0006 1146     		mov	r1, r2
 396 0008 0068     		ldr	r0, [r0]
 397 000a FFF7FEFF 		bl	TIM_CCxChannelCmd
 398 000e 2268     		ldr	r2, [r4]
 399 0010 606A     		ldr	r0, [r4, #36]
 400 0012 D368     		ldr	r3, [r2, #12]
 401 0014 23F40073 		bic	r3, r3, #512
 402 0018 D360     		str	r3, [r2, #12]
 403 001a FFF7FEFF 		bl	HAL_DMA_Abort_IT
 404 001e 41F21112 		movw	r2, #4369
 405 0022 2368     		ldr	r3, [r4]
 406 0024 196A     		ldr	r1, [r3, #32]
 407 0026 1142     		tst	r1, r2
 408 0028 08D1     		bne	.L39
 409 002a 40F24442 		movw	r2, #1092
 410 002e 196A     		ldr	r1, [r3, #32]
 411 0030 1142     		tst	r1, r2
 412 0032 02BF     		ittt	eq
 413 0034 1A68     		ldreq	r2, [r3]
 414 0036 22F00102 		biceq	r2, r2, #1
 415 003a 1A60     		streq	r2, [r3]
 416              	.L39:
 417 003c 0020     		movs	r0, #0
 418 003e 10BD     		pop	{r4, pc}
 420              		.section	.text.HAL_TIMEx_PWMN_Start,"ax",%progbits
 421              		.align	1
ARM GAS  /tmp/ccu6RlhA.s 			page 8


 422              		.global	HAL_TIMEx_PWMN_Start
 423              		.syntax unified
 424              		.thumb
 425              		.thumb_func
 426              		.fpu softvfp
 428              	HAL_TIMEx_PWMN_Start:
 429              		@ args = 0, pretend = 0, frame = 0
 430              		@ frame_needed = 0, uses_anonymous_args = 0
 431 0000 10B5     		push	{r4, lr}
 432 0002 0446     		mov	r4, r0
 433 0004 0422     		movs	r2, #4
 434 0006 0068     		ldr	r0, [r0]
 435 0008 FFF7FEFF 		bl	TIM_CCxNChannelCmd
 436 000c 2368     		ldr	r3, [r4]
 437 000e 0020     		movs	r0, #0
 438 0010 5A6C     		ldr	r2, [r3, #68]
 439 0012 42F40042 		orr	r2, r2, #32768
 440 0016 5A64     		str	r2, [r3, #68]
 441 0018 9A68     		ldr	r2, [r3, #8]
 442 001a 02F00702 		and	r2, r2, #7
 443 001e 062A     		cmp	r2, #6
 444 0020 1EBF     		ittt	ne
 445 0022 1A68     		ldrne	r2, [r3]
 446 0024 42F00102 		orrne	r2, r2, #1
 447 0028 1A60     		strne	r2, [r3]
 448 002a 10BD     		pop	{r4, pc}
 450              		.section	.text.HAL_TIMEx_OCN_Start,"ax",%progbits
 451              		.align	1
 452              		.global	HAL_TIMEx_OCN_Start
 453              		.syntax unified
 454              		.thumb
 455              		.thumb_func
 456              		.fpu softvfp
 458              	HAL_TIMEx_OCN_Start:
 459              		@ args = 0, pretend = 0, frame = 0
 460              		@ frame_needed = 0, uses_anonymous_args = 0
 461              		@ link register save eliminated.
 462 0000 FFF7FEBF 		b	HAL_TIMEx_PWMN_Start
 464              		.section	.text.HAL_TIMEx_PWMN_Start_IT,"ax",%progbits
 465              		.align	1
 466              		.global	HAL_TIMEx_PWMN_Start_IT
 467              		.syntax unified
 468              		.thumb
 469              		.thumb_func
 470              		.fpu softvfp
 472              	HAL_TIMEx_PWMN_Start_IT:
 473              		@ args = 0, pretend = 0, frame = 0
 474              		@ frame_needed = 0, uses_anonymous_args = 0
 475 0000 0429     		cmp	r1, #4
 476 0002 10B5     		push	{r4, lr}
 477 0004 0446     		mov	r4, r0
 478 0006 0068     		ldr	r0, [r0]
 479 0008 1DD0     		beq	.L48
 480 000a 0829     		cmp	r1, #8
 481 000c 1FD0     		beq	.L49
 482 000e 19B9     		cbnz	r1, .L47
 483 0010 C368     		ldr	r3, [r0, #12]
ARM GAS  /tmp/ccu6RlhA.s 			page 9


 484 0012 43F00203 		orr	r3, r3, #2
 485              	.L55:
 486 0016 C360     		str	r3, [r0, #12]
 487              	.L47:
 488 0018 C368     		ldr	r3, [r0, #12]
 489 001a 0422     		movs	r2, #4
 490 001c 43F08003 		orr	r3, r3, #128
 491 0020 C360     		str	r3, [r0, #12]
 492 0022 FFF7FEFF 		bl	TIM_CCxNChannelCmd
 493 0026 2368     		ldr	r3, [r4]
 494 0028 0020     		movs	r0, #0
 495 002a 5A6C     		ldr	r2, [r3, #68]
 496 002c 42F40042 		orr	r2, r2, #32768
 497 0030 5A64     		str	r2, [r3, #68]
 498 0032 9A68     		ldr	r2, [r3, #8]
 499 0034 02F00702 		and	r2, r2, #7
 500 0038 062A     		cmp	r2, #6
 501 003a 1EBF     		ittt	ne
 502 003c 1A68     		ldrne	r2, [r3]
 503 003e 42F00102 		orrne	r2, r2, #1
 504 0042 1A60     		strne	r2, [r3]
 505 0044 10BD     		pop	{r4, pc}
 506              	.L48:
 507 0046 C368     		ldr	r3, [r0, #12]
 508 0048 43F00403 		orr	r3, r3, #4
 509 004c E3E7     		b	.L55
 510              	.L49:
 511 004e C368     		ldr	r3, [r0, #12]
 512 0050 43F00803 		orr	r3, r3, #8
 513 0054 DFE7     		b	.L55
 515              		.section	.text.HAL_TIMEx_OCN_Start_IT,"ax",%progbits
 516              		.align	1
 517              		.global	HAL_TIMEx_OCN_Start_IT
 518              		.syntax unified
 519              		.thumb
 520              		.thumb_func
 521              		.fpu softvfp
 523              	HAL_TIMEx_OCN_Start_IT:
 524              		@ args = 0, pretend = 0, frame = 0
 525              		@ frame_needed = 0, uses_anonymous_args = 0
 526              		@ link register save eliminated.
 527 0000 FFF7FEBF 		b	HAL_TIMEx_PWMN_Start_IT
 529              		.section	.text.HAL_TIMEx_PWMN_Stop_IT,"ax",%progbits
 530              		.align	1
 531              		.global	HAL_TIMEx_PWMN_Stop_IT
 532              		.syntax unified
 533              		.thumb
 534              		.thumb_func
 535              		.fpu softvfp
 537              	HAL_TIMEx_PWMN_Stop_IT:
 538              		@ args = 0, pretend = 0, frame = 0
 539              		@ frame_needed = 0, uses_anonymous_args = 0
 540 0000 0429     		cmp	r1, #4
 541 0002 10B5     		push	{r4, lr}
 542 0004 0446     		mov	r4, r0
 543 0006 33D0     		beq	.L59
 544 0008 0829     		cmp	r1, #8
ARM GAS  /tmp/ccu6RlhA.s 			page 10


 545 000a 36D0     		beq	.L60
 546 000c 21B9     		cbnz	r1, .L58
 547 000e 0268     		ldr	r2, [r0]
 548 0010 D368     		ldr	r3, [r2, #12]
 549 0012 23F00203 		bic	r3, r3, #2
 550              	.L65:
 551 0016 D360     		str	r3, [r2, #12]
 552              	.L58:
 553 0018 0022     		movs	r2, #0
 554 001a 2068     		ldr	r0, [r4]
 555 001c FFF7FEFF 		bl	TIM_CCxNChannelCmd
 556 0020 40F24442 		movw	r2, #1092
 557 0024 2368     		ldr	r3, [r4]
 558 0026 196A     		ldr	r1, [r3, #32]
 559 0028 1142     		tst	r1, r2
 560 002a 02BF     		ittt	eq
 561 002c DA68     		ldreq	r2, [r3, #12]
 562 002e 22F08002 		biceq	r2, r2, #128
 563 0032 DA60     		streq	r2, [r3, #12]
 564 0034 41F21112 		movw	r2, #4369
 565 0038 196A     		ldr	r1, [r3, #32]
 566 003a 1142     		tst	r1, r2
 567 003c 08D1     		bne	.L63
 568 003e 40F24442 		movw	r2, #1092
 569 0042 196A     		ldr	r1, [r3, #32]
 570 0044 1142     		tst	r1, r2
 571 0046 02BF     		ittt	eq
 572 0048 5A6C     		ldreq	r2, [r3, #68]
 573 004a 22F40042 		biceq	r2, r2, #32768
 574 004e 5A64     		streq	r2, [r3, #68]
 575              	.L63:
 576 0050 41F21112 		movw	r2, #4369
 577 0054 196A     		ldr	r1, [r3, #32]
 578 0056 1142     		tst	r1, r2
 579 0058 08D1     		bne	.L64
 580 005a 40F24442 		movw	r2, #1092
 581 005e 196A     		ldr	r1, [r3, #32]
 582 0060 1142     		tst	r1, r2
 583 0062 02BF     		ittt	eq
 584 0064 1A68     		ldreq	r2, [r3]
 585 0066 22F00102 		biceq	r2, r2, #1
 586 006a 1A60     		streq	r2, [r3]
 587              	.L64:
 588 006c 0020     		movs	r0, #0
 589 006e 10BD     		pop	{r4, pc}
 590              	.L59:
 591 0070 0268     		ldr	r2, [r0]
 592 0072 D368     		ldr	r3, [r2, #12]
 593 0074 23F00403 		bic	r3, r3, #4
 594 0078 CDE7     		b	.L65
 595              	.L60:
 596 007a 0268     		ldr	r2, [r0]
 597 007c D368     		ldr	r3, [r2, #12]
 598 007e 23F00803 		bic	r3, r3, #8
 599 0082 C8E7     		b	.L65
 601              		.section	.text.HAL_TIMEx_OCN_Stop_IT,"ax",%progbits
 602              		.align	1
ARM GAS  /tmp/ccu6RlhA.s 			page 11


 603              		.global	HAL_TIMEx_OCN_Stop_IT
 604              		.syntax unified
 605              		.thumb
 606              		.thumb_func
 607              		.fpu softvfp
 609              	HAL_TIMEx_OCN_Stop_IT:
 610              		@ args = 0, pretend = 0, frame = 0
 611              		@ frame_needed = 0, uses_anonymous_args = 0
 612              		@ link register save eliminated.
 613 0000 FFF7FEBF 		b	HAL_TIMEx_PWMN_Stop_IT
 615              		.section	.text.HAL_TIMEx_PWMN_Start_DMA,"ax",%progbits
 616              		.align	1
 617              		.global	HAL_TIMEx_PWMN_Start_DMA
 618              		.syntax unified
 619              		.thumb
 620              		.thumb_func
 621              		.fpu softvfp
 623              	HAL_TIMEx_PWMN_Start_DMA:
 624              		@ args = 0, pretend = 0, frame = 0
 625              		@ frame_needed = 0, uses_anonymous_args = 0
 626 0000 38B5     		push	{r3, r4, r5, lr}
 627 0002 0446     		mov	r4, r0
 628 0004 90F83D00 		ldrb	r0, [r0, #61]	@ zero_extendqisi2
 629 0008 0D46     		mov	r5, r1
 630 000a C0B2     		uxtb	r0, r0
 631 000c 0228     		cmp	r0, #2
 632 000e 1146     		mov	r1, r2
 633 0010 35D0     		beq	.L68
 634 0012 94F83D20 		ldrb	r2, [r4, #61]	@ zero_extendqisi2
 635 0016 012A     		cmp	r2, #1
 636 0018 06D1     		bne	.L69
 637 001a 11B9     		cbnz	r1, .L70
 638 001c 0BB1     		cbz	r3, .L70
 639              	.L75:
 640 001e 0120     		movs	r0, #1
 641 0020 38BD     		pop	{r3, r4, r5, pc}
 642              	.L70:
 643 0022 0222     		movs	r2, #2
 644 0024 84F83D20 		strb	r2, [r4, #61]
 645              	.L69:
 646 0028 042D     		cmp	r5, #4
 647 002a 29D0     		beq	.L72
 648 002c 082D     		cmp	r5, #8
 649 002e 39D0     		beq	.L73
 650 0030 8DB9     		cbnz	r5, .L71
 651 0032 606A     		ldr	r0, [r4, #36]
 652 0034 244A     		ldr	r2, .L82
 653 0036 8262     		str	r2, [r0, #40]
 654 0038 244A     		ldr	r2, .L82+4
 655 003a C262     		str	r2, [r0, #44]
 656 003c 244A     		ldr	r2, .L82+8
 657 003e 0263     		str	r2, [r0, #48]
 658 0040 2268     		ldr	r2, [r4]
 659 0042 3432     		adds	r2, r2, #52
 660 0044 FFF7FEFF 		bl	HAL_DMA_Start_IT
 661 0048 0028     		cmp	r0, #0
 662 004a E8D1     		bne	.L75
ARM GAS  /tmp/ccu6RlhA.s 			page 12


 663 004c 2268     		ldr	r2, [r4]
 664 004e D368     		ldr	r3, [r2, #12]
 665 0050 43F40073 		orr	r3, r3, #512
 666              	.L81:
 667 0054 D360     		str	r3, [r2, #12]
 668              	.L71:
 669 0056 0422     		movs	r2, #4
 670 0058 2068     		ldr	r0, [r4]
 671 005a 2946     		mov	r1, r5
 672 005c FFF7FEFF 		bl	TIM_CCxNChannelCmd
 673 0060 0020     		movs	r0, #0
 674 0062 2368     		ldr	r3, [r4]
 675 0064 5A6C     		ldr	r2, [r3, #68]
 676 0066 42F40042 		orr	r2, r2, #32768
 677 006a 5A64     		str	r2, [r3, #68]
 678 006c 9A68     		ldr	r2, [r3, #8]
 679 006e 02F00702 		and	r2, r2, #7
 680 0072 062A     		cmp	r2, #6
 681 0074 1EBF     		ittt	ne
 682 0076 1A68     		ldrne	r2, [r3]
 683 0078 42F00102 		orrne	r2, r2, #1
 684 007c 1A60     		strne	r2, [r3]
 685              	.L68:
 686 007e 38BD     		pop	{r3, r4, r5, pc}
 687              	.L72:
 688 0080 A06A     		ldr	r0, [r4, #40]
 689 0082 114A     		ldr	r2, .L82
 690 0084 8262     		str	r2, [r0, #40]
 691 0086 114A     		ldr	r2, .L82+4
 692 0088 C262     		str	r2, [r0, #44]
 693 008a 114A     		ldr	r2, .L82+8
 694 008c 0263     		str	r2, [r0, #48]
 695 008e 2268     		ldr	r2, [r4]
 696 0090 3832     		adds	r2, r2, #56
 697 0092 FFF7FEFF 		bl	HAL_DMA_Start_IT
 698 0096 0028     		cmp	r0, #0
 699 0098 C1D1     		bne	.L75
 700 009a 2268     		ldr	r2, [r4]
 701 009c D368     		ldr	r3, [r2, #12]
 702 009e 43F48063 		orr	r3, r3, #1024
 703 00a2 D7E7     		b	.L81
 704              	.L73:
 705 00a4 E06A     		ldr	r0, [r4, #44]
 706 00a6 084A     		ldr	r2, .L82
 707 00a8 8262     		str	r2, [r0, #40]
 708 00aa 084A     		ldr	r2, .L82+4
 709 00ac C262     		str	r2, [r0, #44]
 710 00ae 084A     		ldr	r2, .L82+8
 711 00b0 0263     		str	r2, [r0, #48]
 712 00b2 2268     		ldr	r2, [r4]
 713 00b4 3C32     		adds	r2, r2, #60
 714 00b6 FFF7FEFF 		bl	HAL_DMA_Start_IT
 715 00ba 0028     		cmp	r0, #0
 716 00bc AFD1     		bne	.L75
 717 00be 2268     		ldr	r2, [r4]
 718 00c0 D368     		ldr	r3, [r2, #12]
 719 00c2 43F40063 		orr	r3, r3, #2048
ARM GAS  /tmp/ccu6RlhA.s 			page 13


 720 00c6 C5E7     		b	.L81
 721              	.L83:
 722              		.align	2
 723              	.L82:
 724 00c8 00000000 		.word	TIM_DMADelayPulseCplt
 725 00cc 00000000 		.word	TIM_DMADelayPulseHalfCplt
 726 00d0 00000000 		.word	TIM_DMAError
 728              		.section	.text.HAL_TIMEx_OCN_Start_DMA,"ax",%progbits
 729              		.align	1
 730              		.global	HAL_TIMEx_OCN_Start_DMA
 731              		.syntax unified
 732              		.thumb
 733              		.thumb_func
 734              		.fpu softvfp
 736              	HAL_TIMEx_OCN_Start_DMA:
 737              		@ args = 0, pretend = 0, frame = 0
 738              		@ frame_needed = 0, uses_anonymous_args = 0
 739              		@ link register save eliminated.
 740 0000 FFF7FEBF 		b	HAL_TIMEx_PWMN_Start_DMA
 742              		.section	.text.HAL_TIMEx_PWMN_Stop_DMA,"ax",%progbits
 743              		.align	1
 744              		.global	HAL_TIMEx_PWMN_Stop_DMA
 745              		.syntax unified
 746              		.thumb
 747              		.thumb_func
 748              		.fpu softvfp
 750              	HAL_TIMEx_PWMN_Stop_DMA:
 751              		@ args = 0, pretend = 0, frame = 0
 752              		@ frame_needed = 0, uses_anonymous_args = 0
 753 0000 0429     		cmp	r1, #4
 754 0002 38B5     		push	{r3, r4, r5, lr}
 755 0004 0446     		mov	r4, r0
 756 0006 0D46     		mov	r5, r1
 757 0008 31D0     		beq	.L87
 758 000a 0829     		cmp	r1, #8
 759 000c 36D0     		beq	.L88
 760 000e 39B9     		cbnz	r1, .L86
 761 0010 0268     		ldr	r2, [r0]
 762 0012 406A     		ldr	r0, [r0, #36]
 763 0014 D368     		ldr	r3, [r2, #12]
 764 0016 23F40073 		bic	r3, r3, #512
 765 001a D360     		str	r3, [r2, #12]
 766              	.L92:
 767 001c FFF7FEFF 		bl	HAL_DMA_Abort_IT
 768              	.L86:
 769 0020 0022     		movs	r2, #0
 770 0022 2946     		mov	r1, r5
 771 0024 2068     		ldr	r0, [r4]
 772 0026 FFF7FEFF 		bl	TIM_CCxNChannelCmd
 773 002a 41F21112 		movw	r2, #4369
 774 002e 2368     		ldr	r3, [r4]
 775 0030 196A     		ldr	r1, [r3, #32]
 776 0032 1142     		tst	r1, r2
 777 0034 08D1     		bne	.L90
 778 0036 40F24442 		movw	r2, #1092
 779 003a 196A     		ldr	r1, [r3, #32]
 780 003c 1142     		tst	r1, r2
ARM GAS  /tmp/ccu6RlhA.s 			page 14


 781 003e 02BF     		ittt	eq
 782 0040 5A6C     		ldreq	r2, [r3, #68]
 783 0042 22F40042 		biceq	r2, r2, #32768
 784 0046 5A64     		streq	r2, [r3, #68]
 785              	.L90:
 786 0048 41F21112 		movw	r2, #4369
 787 004c 196A     		ldr	r1, [r3, #32]
 788 004e 1142     		tst	r1, r2
 789 0050 08D1     		bne	.L91
 790 0052 40F24442 		movw	r2, #1092
 791 0056 196A     		ldr	r1, [r3, #32]
 792 0058 1142     		tst	r1, r2
 793 005a 02BF     		ittt	eq
 794 005c 1A68     		ldreq	r2, [r3]
 795 005e 22F00102 		biceq	r2, r2, #1
 796 0062 1A60     		streq	r2, [r3]
 797              	.L91:
 798 0064 0123     		movs	r3, #1
 799 0066 0020     		movs	r0, #0
 800 0068 84F83D30 		strb	r3, [r4, #61]
 801 006c 38BD     		pop	{r3, r4, r5, pc}
 802              	.L87:
 803 006e 0268     		ldr	r2, [r0]
 804 0070 806A     		ldr	r0, [r0, #40]
 805 0072 D368     		ldr	r3, [r2, #12]
 806 0074 23F48063 		bic	r3, r3, #1024
 807 0078 D360     		str	r3, [r2, #12]
 808 007a CFE7     		b	.L92
 809              	.L88:
 810 007c 0268     		ldr	r2, [r0]
 811 007e C06A     		ldr	r0, [r0, #44]
 812 0080 D368     		ldr	r3, [r2, #12]
 813 0082 23F40063 		bic	r3, r3, #2048
 814 0086 D360     		str	r3, [r2, #12]
 815 0088 C8E7     		b	.L92
 817              		.section	.text.HAL_TIMEx_OCN_Stop_DMA,"ax",%progbits
 818              		.align	1
 819              		.global	HAL_TIMEx_OCN_Stop_DMA
 820              		.syntax unified
 821              		.thumb
 822              		.thumb_func
 823              		.fpu softvfp
 825              	HAL_TIMEx_OCN_Stop_DMA:
 826              		@ args = 0, pretend = 0, frame = 0
 827              		@ frame_needed = 0, uses_anonymous_args = 0
 828              		@ link register save eliminated.
 829 0000 FFF7FEBF 		b	HAL_TIMEx_PWMN_Stop_DMA
 831              		.section	.text.HAL_TIMEx_OnePulseN_Start,"ax",%progbits
 832              		.align	1
 833              		.global	HAL_TIMEx_OnePulseN_Start
 834              		.syntax unified
 835              		.thumb
 836              		.thumb_func
 837              		.fpu softvfp
 839              	HAL_TIMEx_OnePulseN_Start:
 840              		@ args = 0, pretend = 0, frame = 0
 841              		@ frame_needed = 0, uses_anonymous_args = 0
ARM GAS  /tmp/ccu6RlhA.s 			page 15


 842 0000 10B5     		push	{r4, lr}
 843 0002 0446     		mov	r4, r0
 844 0004 0422     		movs	r2, #4
 845 0006 0068     		ldr	r0, [r0]
 846 0008 FFF7FEFF 		bl	TIM_CCxNChannelCmd
 847 000c 2268     		ldr	r2, [r4]
 848 000e 0020     		movs	r0, #0
 849 0010 536C     		ldr	r3, [r2, #68]
 850 0012 43F40043 		orr	r3, r3, #32768
 851 0016 5364     		str	r3, [r2, #68]
 852 0018 10BD     		pop	{r4, pc}
 854              		.section	.text.HAL_TIMEx_OnePulseN_Stop,"ax",%progbits
 855              		.align	1
 856              		.global	HAL_TIMEx_OnePulseN_Stop
 857              		.syntax unified
 858              		.thumb
 859              		.thumb_func
 860              		.fpu softvfp
 862              	HAL_TIMEx_OnePulseN_Stop:
 863              		@ args = 0, pretend = 0, frame = 0
 864              		@ frame_needed = 0, uses_anonymous_args = 0
 865 0000 10B5     		push	{r4, lr}
 866 0002 0446     		mov	r4, r0
 867 0004 0022     		movs	r2, #0
 868 0006 0068     		ldr	r0, [r0]
 869 0008 FFF7FEFF 		bl	TIM_CCxNChannelCmd
 870 000c 41F21112 		movw	r2, #4369
 871 0010 2368     		ldr	r3, [r4]
 872 0012 196A     		ldr	r1, [r3, #32]
 873 0014 1142     		tst	r1, r2
 874 0016 08D1     		bne	.L96
 875 0018 40F24442 		movw	r2, #1092
 876 001c 196A     		ldr	r1, [r3, #32]
 877 001e 1142     		tst	r1, r2
 878 0020 02BF     		ittt	eq
 879 0022 5A6C     		ldreq	r2, [r3, #68]
 880 0024 22F40042 		biceq	r2, r2, #32768
 881 0028 5A64     		streq	r2, [r3, #68]
 882              	.L96:
 883 002a 41F21112 		movw	r2, #4369
 884 002e 196A     		ldr	r1, [r3, #32]
 885 0030 1142     		tst	r1, r2
 886 0032 08D1     		bne	.L97
 887 0034 40F24442 		movw	r2, #1092
 888 0038 196A     		ldr	r1, [r3, #32]
 889 003a 1142     		tst	r1, r2
 890 003c 02BF     		ittt	eq
 891 003e 1A68     		ldreq	r2, [r3]
 892 0040 22F00102 		biceq	r2, r2, #1
 893 0044 1A60     		streq	r2, [r3]
 894              	.L97:
 895 0046 0020     		movs	r0, #0
 896 0048 10BD     		pop	{r4, pc}
 898              		.section	.text.HAL_TIMEx_PWMN_Stop,"ax",%progbits
 899              		.align	1
 900              		.global	HAL_TIMEx_PWMN_Stop
 901              		.syntax unified
ARM GAS  /tmp/ccu6RlhA.s 			page 16


 902              		.thumb
 903              		.thumb_func
 904              		.fpu softvfp
 906              	HAL_TIMEx_PWMN_Stop:
 907              		@ args = 0, pretend = 0, frame = 0
 908              		@ frame_needed = 0, uses_anonymous_args = 0
 909              		@ link register save eliminated.
 910 0000 FFF7FEBF 		b	HAL_TIMEx_OnePulseN_Stop
 912              		.section	.text.HAL_TIMEx_OCN_Stop,"ax",%progbits
 913              		.align	1
 914              		.global	HAL_TIMEx_OCN_Stop
 915              		.syntax unified
 916              		.thumb
 917              		.thumb_func
 918              		.fpu softvfp
 920              	HAL_TIMEx_OCN_Stop:
 921              		@ args = 0, pretend = 0, frame = 0
 922              		@ frame_needed = 0, uses_anonymous_args = 0
 923              		@ link register save eliminated.
 924 0000 FFF7FEBF 		b	HAL_TIMEx_OnePulseN_Stop
 926              		.section	.text.HAL_TIMEx_OnePulseN_Start_IT,"ax",%progbits
 927              		.align	1
 928              		.global	HAL_TIMEx_OnePulseN_Start_IT
 929              		.syntax unified
 930              		.thumb
 931              		.thumb_func
 932              		.fpu softvfp
 934              	HAL_TIMEx_OnePulseN_Start_IT:
 935              		@ args = 0, pretend = 0, frame = 0
 936              		@ frame_needed = 0, uses_anonymous_args = 0
 937 0000 10B5     		push	{r4, lr}
 938 0002 0446     		mov	r4, r0
 939 0004 0068     		ldr	r0, [r0]
 940 0006 0422     		movs	r2, #4
 941 0008 C368     		ldr	r3, [r0, #12]
 942 000a 43F00203 		orr	r3, r3, #2
 943 000e C360     		str	r3, [r0, #12]
 944 0010 C368     		ldr	r3, [r0, #12]
 945 0012 43F00403 		orr	r3, r3, #4
 946 0016 C360     		str	r3, [r0, #12]
 947 0018 FFF7FEFF 		bl	TIM_CCxNChannelCmd
 948 001c 2268     		ldr	r2, [r4]
 949 001e 0020     		movs	r0, #0
 950 0020 536C     		ldr	r3, [r2, #68]
 951 0022 43F40043 		orr	r3, r3, #32768
 952 0026 5364     		str	r3, [r2, #68]
 953 0028 10BD     		pop	{r4, pc}
 955              		.section	.text.HAL_TIMEx_OnePulseN_Stop_IT,"ax",%progbits
 956              		.align	1
 957              		.global	HAL_TIMEx_OnePulseN_Stop_IT
 958              		.syntax unified
 959              		.thumb
 960              		.thumb_func
 961              		.fpu softvfp
 963              	HAL_TIMEx_OnePulseN_Stop_IT:
 964              		@ args = 0, pretend = 0, frame = 0
 965              		@ frame_needed = 0, uses_anonymous_args = 0
ARM GAS  /tmp/ccu6RlhA.s 			page 17


 966 0000 10B5     		push	{r4, lr}
 967 0002 0446     		mov	r4, r0
 968 0004 0068     		ldr	r0, [r0]
 969 0006 0022     		movs	r2, #0
 970 0008 C368     		ldr	r3, [r0, #12]
 971 000a 23F00203 		bic	r3, r3, #2
 972 000e C360     		str	r3, [r0, #12]
 973 0010 C368     		ldr	r3, [r0, #12]
 974 0012 23F00403 		bic	r3, r3, #4
 975 0016 C360     		str	r3, [r0, #12]
 976 0018 FFF7FEFF 		bl	TIM_CCxNChannelCmd
 977 001c 41F21112 		movw	r2, #4369
 978 0020 2368     		ldr	r3, [r4]
 979 0022 196A     		ldr	r1, [r3, #32]
 980 0024 1142     		tst	r1, r2
 981 0026 08D1     		bne	.L102
 982 0028 40F24442 		movw	r2, #1092
 983 002c 196A     		ldr	r1, [r3, #32]
 984 002e 1142     		tst	r1, r2
 985 0030 02BF     		ittt	eq
 986 0032 5A6C     		ldreq	r2, [r3, #68]
 987 0034 22F40042 		biceq	r2, r2, #32768
 988 0038 5A64     		streq	r2, [r3, #68]
 989              	.L102:
 990 003a 41F21112 		movw	r2, #4369
 991 003e 196A     		ldr	r1, [r3, #32]
 992 0040 1142     		tst	r1, r2
 993 0042 08D1     		bne	.L103
 994 0044 40F24442 		movw	r2, #1092
 995 0048 196A     		ldr	r1, [r3, #32]
 996 004a 1142     		tst	r1, r2
 997 004c 02BF     		ittt	eq
 998 004e 1A68     		ldreq	r2, [r3]
 999 0050 22F00102 		biceq	r2, r2, #1
 1000 0054 1A60     		streq	r2, [r3]
 1001              	.L103:
 1002 0056 0020     		movs	r0, #0
 1003 0058 10BD     		pop	{r4, pc}
 1005              		.section	.text.HAL_TIMEx_ConfigCommutEvent,"ax",%progbits
 1006              		.align	1
 1007              		.global	HAL_TIMEx_ConfigCommutEvent
 1008              		.syntax unified
 1009              		.thumb
 1010              		.thumb_func
 1011              		.fpu softvfp
 1013              	HAL_TIMEx_ConfigCommutEvent:
 1014              		@ args = 0, pretend = 0, frame = 0
 1015              		@ frame_needed = 0, uses_anonymous_args = 0
 1016 0000 90F83C30 		ldrb	r3, [r0, #60]	@ zero_extendqisi2
 1017 0004 10B5     		push	{r4, lr}
 1018 0006 012B     		cmp	r3, #1
 1019 0008 25D0     		beq	.L107
 1020 000a 0123     		movs	r3, #1
 1021 000c 80F83C30 		strb	r3, [r0, #60]
 1022 0010 31F03003 		bics	r3, r1, #48
 1023 0014 0368     		ldr	r3, [r0]
 1024 0016 06D1     		bne	.L106
ARM GAS  /tmp/ccu6RlhA.s 			page 18


 1025 0018 9C68     		ldr	r4, [r3, #8]
 1026 001a 24F07004 		bic	r4, r4, #112
 1027 001e 9C60     		str	r4, [r3, #8]
 1028 0020 9C68     		ldr	r4, [r3, #8]
 1029 0022 2143     		orrs	r1, r1, r4
 1030 0024 9960     		str	r1, [r3, #8]
 1031              	.L106:
 1032 0026 5968     		ldr	r1, [r3, #4]
 1033 0028 41F00101 		orr	r1, r1, #1
 1034 002c 5960     		str	r1, [r3, #4]
 1035 002e 5968     		ldr	r1, [r3, #4]
 1036 0030 21F00401 		bic	r1, r1, #4
 1037 0034 5960     		str	r1, [r3, #4]
 1038 0036 5968     		ldr	r1, [r3, #4]
 1039 0038 0A43     		orrs	r2, r2, r1
 1040 003a 5A60     		str	r2, [r3, #4]
 1041 003c DA68     		ldr	r2, [r3, #12]
 1042 003e 22F02002 		bic	r2, r2, #32
 1043 0042 DA60     		str	r2, [r3, #12]
 1044 0044 DA68     		ldr	r2, [r3, #12]
 1045 0046 22F40052 		bic	r2, r2, #8192
 1046 004a DA60     		str	r2, [r3, #12]
 1047 004c 0023     		movs	r3, #0
 1048 004e 80F83C30 		strb	r3, [r0, #60]
 1049 0052 1846     		mov	r0, r3
 1050 0054 10BD     		pop	{r4, pc}
 1051              	.L107:
 1052 0056 0220     		movs	r0, #2
 1053 0058 10BD     		pop	{r4, pc}
 1055              		.section	.text.HAL_TIMEx_ConfigCommutEvent_IT,"ax",%progbits
 1056              		.align	1
 1057              		.global	HAL_TIMEx_ConfigCommutEvent_IT
 1058              		.syntax unified
 1059              		.thumb
 1060              		.thumb_func
 1061              		.fpu softvfp
 1063              	HAL_TIMEx_ConfigCommutEvent_IT:
 1064              		@ args = 0, pretend = 0, frame = 0
 1065              		@ frame_needed = 0, uses_anonymous_args = 0
 1066 0000 90F83C30 		ldrb	r3, [r0, #60]	@ zero_extendqisi2
 1067 0004 10B5     		push	{r4, lr}
 1068 0006 012B     		cmp	r3, #1
 1069 0008 25D0     		beq	.L111
 1070 000a 0123     		movs	r3, #1
 1071 000c 80F83C30 		strb	r3, [r0, #60]
 1072 0010 31F03003 		bics	r3, r1, #48
 1073 0014 0368     		ldr	r3, [r0]
 1074 0016 06D1     		bne	.L110
 1075 0018 9C68     		ldr	r4, [r3, #8]
 1076 001a 24F07004 		bic	r4, r4, #112
 1077 001e 9C60     		str	r4, [r3, #8]
 1078 0020 9C68     		ldr	r4, [r3, #8]
 1079 0022 2143     		orrs	r1, r1, r4
 1080 0024 9960     		str	r1, [r3, #8]
 1081              	.L110:
 1082 0026 5968     		ldr	r1, [r3, #4]
 1083 0028 41F00101 		orr	r1, r1, #1
ARM GAS  /tmp/ccu6RlhA.s 			page 19


 1084 002c 5960     		str	r1, [r3, #4]
 1085 002e 5968     		ldr	r1, [r3, #4]
 1086 0030 21F00401 		bic	r1, r1, #4
 1087 0034 5960     		str	r1, [r3, #4]
 1088 0036 5968     		ldr	r1, [r3, #4]
 1089 0038 0A43     		orrs	r2, r2, r1
 1090 003a 5A60     		str	r2, [r3, #4]
 1091 003c DA68     		ldr	r2, [r3, #12]
 1092 003e 22F40052 		bic	r2, r2, #8192
 1093 0042 DA60     		str	r2, [r3, #12]
 1094 0044 DA68     		ldr	r2, [r3, #12]
 1095 0046 42F02002 		orr	r2, r2, #32
 1096 004a DA60     		str	r2, [r3, #12]
 1097 004c 0023     		movs	r3, #0
 1098 004e 80F83C30 		strb	r3, [r0, #60]
 1099 0052 1846     		mov	r0, r3
 1100 0054 10BD     		pop	{r4, pc}
 1101              	.L111:
 1102 0056 0220     		movs	r0, #2
 1103 0058 10BD     		pop	{r4, pc}
 1105              		.section	.text.HAL_TIMEx_ConfigCommutEvent_DMA,"ax",%progbits
 1106              		.align	1
 1107              		.global	HAL_TIMEx_ConfigCommutEvent_DMA
 1108              		.syntax unified
 1109              		.thumb
 1110              		.thumb_func
 1111              		.fpu softvfp
 1113              	HAL_TIMEx_ConfigCommutEvent_DMA:
 1114              		@ args = 0, pretend = 0, frame = 0
 1115              		@ frame_needed = 0, uses_anonymous_args = 0
 1116 0000 90F83C30 		ldrb	r3, [r0, #60]	@ zero_extendqisi2
 1117 0004 10B5     		push	{r4, lr}
 1118 0006 012B     		cmp	r3, #1
 1119 0008 2CD0     		beq	.L115
 1120 000a 0123     		movs	r3, #1
 1121 000c 80F83C30 		strb	r3, [r0, #60]
 1122 0010 31F03003 		bics	r3, r1, #48
 1123 0014 0368     		ldr	r3, [r0]
 1124 0016 06D1     		bne	.L114
 1125 0018 9C68     		ldr	r4, [r3, #8]
 1126 001a 24F07004 		bic	r4, r4, #112
 1127 001e 9C60     		str	r4, [r3, #8]
 1128 0020 9C68     		ldr	r4, [r3, #8]
 1129 0022 2143     		orrs	r1, r1, r4
 1130 0024 9960     		str	r1, [r3, #8]
 1131              	.L114:
 1132 0026 5968     		ldr	r1, [r3, #4]
 1133 0028 41F00101 		orr	r1, r1, #1
 1134 002c 5960     		str	r1, [r3, #4]
 1135 002e 5968     		ldr	r1, [r3, #4]
 1136 0030 21F00401 		bic	r1, r1, #4
 1137 0034 5960     		str	r1, [r3, #4]
 1138 0036 5968     		ldr	r1, [r3, #4]
 1139 0038 0A43     		orrs	r2, r2, r1
 1140 003a 5A60     		str	r2, [r3, #4]
 1141 003c 0A49     		ldr	r1, .L116
 1142 003e 426B     		ldr	r2, [r0, #52]
ARM GAS  /tmp/ccu6RlhA.s 			page 20


 1143 0040 9162     		str	r1, [r2, #40]
 1144 0042 0A49     		ldr	r1, .L116+4
 1145 0044 D162     		str	r1, [r2, #44]
 1146 0046 0A49     		ldr	r1, .L116+8
 1147 0048 1163     		str	r1, [r2, #48]
 1148 004a DA68     		ldr	r2, [r3, #12]
 1149 004c 22F02002 		bic	r2, r2, #32
 1150 0050 DA60     		str	r2, [r3, #12]
 1151 0052 DA68     		ldr	r2, [r3, #12]
 1152 0054 42F40052 		orr	r2, r2, #8192
 1153 0058 DA60     		str	r2, [r3, #12]
 1154 005a 0023     		movs	r3, #0
 1155 005c 80F83C30 		strb	r3, [r0, #60]
 1156 0060 1846     		mov	r0, r3
 1157 0062 10BD     		pop	{r4, pc}
 1158              	.L115:
 1159 0064 0220     		movs	r0, #2
 1160 0066 10BD     		pop	{r4, pc}
 1161              	.L117:
 1162              		.align	2
 1163              	.L116:
 1164 0068 00000000 		.word	TIMEx_DMACommutationCplt
 1165 006c 00000000 		.word	TIMEx_DMACommutationHalfCplt
 1166 0070 00000000 		.word	TIM_DMAError
 1168              		.section	.text.HAL_TIMEx_MasterConfigSynchronization,"ax",%progbits
 1169              		.align	1
 1170              		.global	HAL_TIMEx_MasterConfigSynchronization
 1171              		.syntax unified
 1172              		.thumb
 1173              		.thumb_func
 1174              		.fpu softvfp
 1176              	HAL_TIMEx_MasterConfigSynchronization:
 1177              		@ args = 0, pretend = 0, frame = 0
 1178              		@ frame_needed = 0, uses_anonymous_args = 0
 1179 0000 90F83C30 		ldrb	r3, [r0, #60]	@ zero_extendqisi2
 1180 0004 30B5     		push	{r4, r5, lr}
 1181 0006 012B     		cmp	r3, #1
 1182 0008 4FF00203 		mov	r3, #2
 1183 000c 14D0     		beq	.L120
 1184 000e 0468     		ldr	r4, [r0]
 1185 0010 80F83D30 		strb	r3, [r0, #61]
 1186 0014 6268     		ldr	r2, [r4, #4]
 1187 0016 A368     		ldr	r3, [r4, #8]
 1188 0018 0D68     		ldr	r5, [r1]
 1189 001a 4968     		ldr	r1, [r1, #4]
 1190 001c 22F07002 		bic	r2, r2, #112
 1191 0020 23F08003 		bic	r3, r3, #128
 1192 0024 0B43     		orrs	r3, r3, r1
 1193 0026 2A43     		orrs	r2, r2, r5
 1194 0028 6260     		str	r2, [r4, #4]
 1195 002a A360     		str	r3, [r4, #8]
 1196 002c 0123     		movs	r3, #1
 1197 002e 80F83D30 		strb	r3, [r0, #61]
 1198 0032 0023     		movs	r3, #0
 1199 0034 80F83C30 		strb	r3, [r0, #60]
 1200              	.L120:
 1201 0038 1846     		mov	r0, r3
ARM GAS  /tmp/ccu6RlhA.s 			page 21


 1202 003a 30BD     		pop	{r4, r5, pc}
 1204              		.section	.text.HAL_TIMEx_ConfigBreakDeadTime,"ax",%progbits
 1205              		.align	1
 1206              		.global	HAL_TIMEx_ConfigBreakDeadTime
 1207              		.syntax unified
 1208              		.thumb
 1209              		.thumb_func
 1210              		.fpu softvfp
 1212              	HAL_TIMEx_ConfigBreakDeadTime:
 1213              		@ args = 0, pretend = 0, frame = 0
 1214              		@ frame_needed = 0, uses_anonymous_args = 0
 1215              		@ link register save eliminated.
 1216 0000 90F83C30 		ldrb	r3, [r0, #60]	@ zero_extendqisi2
 1217 0004 012B     		cmp	r3, #1
 1218 0006 1FD0     		beq	.L123
 1219 0008 CB68     		ldr	r3, [r1, #12]
 1220 000a 8A68     		ldr	r2, [r1, #8]
 1221 000c 23F44073 		bic	r3, r3, #768
 1222 0010 1343     		orrs	r3, r3, r2
 1223 0012 4A68     		ldr	r2, [r1, #4]
 1224 0014 23F48063 		bic	r3, r3, #1024
 1225 0018 1343     		orrs	r3, r3, r2
 1226 001a 0A68     		ldr	r2, [r1]
 1227 001c 23F40063 		bic	r3, r3, #2048
 1228 0020 1343     		orrs	r3, r3, r2
 1229 0022 0A69     		ldr	r2, [r1, #16]
 1230 0024 23F48053 		bic	r3, r3, #4096
 1231 0028 1343     		orrs	r3, r3, r2
 1232 002a 4A69     		ldr	r2, [r1, #20]
 1233 002c 23F40053 		bic	r3, r3, #8192
 1234 0030 1343     		orrs	r3, r3, r2
 1235 0032 CA69     		ldr	r2, [r1, #28]
 1236 0034 23F48043 		bic	r3, r3, #16384
 1237 0038 1343     		orrs	r3, r3, r2
 1238 003a 0268     		ldr	r2, [r0]
 1239 003c 5364     		str	r3, [r2, #68]
 1240 003e 0023     		movs	r3, #0
 1241 0040 80F83C30 		strb	r3, [r0, #60]
 1242 0044 1846     		mov	r0, r3
 1243 0046 7047     		bx	lr
 1244              	.L123:
 1245 0048 0220     		movs	r0, #2
 1246 004a 7047     		bx	lr
 1248              		.section	.text.HAL_TIMEx_RemapConfig,"ax",%progbits
 1249              		.align	1
 1250              		.global	HAL_TIMEx_RemapConfig
 1251              		.syntax unified
 1252              		.thumb
 1253              		.thumb_func
 1254              		.fpu softvfp
 1256              	HAL_TIMEx_RemapConfig:
 1257              		@ args = 0, pretend = 0, frame = 0
 1258              		@ frame_needed = 0, uses_anonymous_args = 0
 1259              		@ link register save eliminated.
 1260 0000 0020     		movs	r0, #0
 1261 0002 7047     		bx	lr
 1263              		.section	.text.HAL_TIMEx_CommutCallback,"ax",%progbits
ARM GAS  /tmp/ccu6RlhA.s 			page 22


 1264              		.align	1
 1265              		.weak	HAL_TIMEx_CommutCallback
 1266              		.syntax unified
 1267              		.thumb
 1268              		.thumb_func
 1269              		.fpu softvfp
 1271              	HAL_TIMEx_CommutCallback:
 1272              		@ args = 0, pretend = 0, frame = 0
 1273              		@ frame_needed = 0, uses_anonymous_args = 0
 1274              		@ link register save eliminated.
 1275 0000 7047     		bx	lr
 1277              		.section	.text.TIMEx_DMACommutationCplt,"ax",%progbits
 1278              		.align	1
 1279              		.global	TIMEx_DMACommutationCplt
 1280              		.syntax unified
 1281              		.thumb
 1282              		.thumb_func
 1283              		.fpu softvfp
 1285              	TIMEx_DMACommutationCplt:
 1286              		@ args = 0, pretend = 0, frame = 0
 1287              		@ frame_needed = 0, uses_anonymous_args = 0
 1288 0000 08B5     		push	{r3, lr}
 1289 0002 0123     		movs	r3, #1
 1290 0004 406A     		ldr	r0, [r0, #36]
 1291 0006 80F83D30 		strb	r3, [r0, #61]
 1292 000a FFF7FEFF 		bl	HAL_TIMEx_CommutCallback
 1293 000e 08BD     		pop	{r3, pc}
 1295              		.section	.text.HAL_TIMEx_CommutHalfCpltCallback,"ax",%progbits
 1296              		.align	1
 1297              		.weak	HAL_TIMEx_CommutHalfCpltCallback
 1298              		.syntax unified
 1299              		.thumb
 1300              		.thumb_func
 1301              		.fpu softvfp
 1303              	HAL_TIMEx_CommutHalfCpltCallback:
 1304              		@ args = 0, pretend = 0, frame = 0
 1305              		@ frame_needed = 0, uses_anonymous_args = 0
 1306              		@ link register save eliminated.
 1307 0000 7047     		bx	lr
 1309              		.section	.text.TIMEx_DMACommutationHalfCplt,"ax",%progbits
 1310              		.align	1
 1311              		.global	TIMEx_DMACommutationHalfCplt
 1312              		.syntax unified
 1313              		.thumb
 1314              		.thumb_func
 1315              		.fpu softvfp
 1317              	TIMEx_DMACommutationHalfCplt:
 1318              		@ args = 0, pretend = 0, frame = 0
 1319              		@ frame_needed = 0, uses_anonymous_args = 0
 1320 0000 08B5     		push	{r3, lr}
 1321 0002 0123     		movs	r3, #1
 1322 0004 406A     		ldr	r0, [r0, #36]
 1323 0006 80F83D30 		strb	r3, [r0, #61]
 1324 000a FFF7FEFF 		bl	HAL_TIMEx_CommutHalfCpltCallback
 1325 000e 08BD     		pop	{r3, pc}
 1327              		.section	.text.HAL_TIMEx_BreakCallback,"ax",%progbits
 1328              		.align	1
ARM GAS  /tmp/ccu6RlhA.s 			page 23


 1329              		.weak	HAL_TIMEx_BreakCallback
 1330              		.syntax unified
 1331              		.thumb
 1332              		.thumb_func
 1333              		.fpu softvfp
 1335              	HAL_TIMEx_BreakCallback:
 1336              		@ args = 0, pretend = 0, frame = 0
 1337              		@ frame_needed = 0, uses_anonymous_args = 0
 1338              		@ link register save eliminated.
 1339 0000 7047     		bx	lr
 1341              		.section	.text.HAL_TIMEx_HallSensor_GetState,"ax",%progbits
 1342              		.align	1
 1343              		.global	HAL_TIMEx_HallSensor_GetState
 1344              		.syntax unified
 1345              		.thumb
 1346              		.thumb_func
 1347              		.fpu softvfp
 1349              	HAL_TIMEx_HallSensor_GetState:
 1350              		@ args = 0, pretend = 0, frame = 0
 1351              		@ frame_needed = 0, uses_anonymous_args = 0
 1352              		@ link register save eliminated.
 1353 0000 90F83D00 		ldrb	r0, [r0, #61]	@ zero_extendqisi2
 1354 0004 7047     		bx	lr
 1356              		.ident	"GCC: (15:6.3.1+svn253039-1build1) 6.3.1 20170620"
ARM GAS  /tmp/ccu6RlhA.s 			page 24

