ARM GAS  /tmp/ccXBlZmM.s 			page 1


   1              		.syntax unified
   2              		.cpu cortex-m3
   3              		.fpu softvfp
   4              		.eabi_attribute 20, 1
   5              		.eabi_attribute 21, 1
   6              		.eabi_attribute 23, 3
   7              		.eabi_attribute 24, 1
   8              		.eabi_attribute 25, 1
   9              		.eabi_attribute 26, 1
  10              		.eabi_attribute 30, 4
  11              		.eabi_attribute 34, 1
  12              		.eabi_attribute 18, 4
  13              		.thumb
  14              		.file	"stm32f1xx_hal_dac.c"
  15              		.section	.text.HAL_DAC_MspInit,"ax",%progbits
  16              		.align	1
  17              		.weak	HAL_DAC_MspInit
  18              		.thumb
  19              		.thumb_func
  21              	HAL_DAC_MspInit:
  22              		@ args = 0, pretend = 0, frame = 0
  23              		@ frame_needed = 0, uses_anonymous_args = 0
  24              		@ link register save eliminated.
  25 0000 7047     		bx	lr
  27              		.section	.text.HAL_DAC_Init,"ax",%progbits
  28              		.align	1
  29              		.global	HAL_DAC_Init
  30              		.thumb
  31              		.thumb_func
  33              	HAL_DAC_Init:
  34              		@ args = 0, pretend = 0, frame = 0
  35              		@ frame_needed = 0, uses_anonymous_args = 0
  36 0000 10B5     		push	{r4, lr}
  37 0002 0446     		mov	r4, r0
  38 0004 68B1     		cbz	r0, .L5
  39 0006 0379     		ldrb	r3, [r0, #4]	@ zero_extendqisi2
  40 0008 03F0FF02 		and	r2, r3, #255
  41 000c 13B9     		cbnz	r3, .L4
  42 000e 4271     		strb	r2, [r0, #5]
  43 0010 FFF7FEFF 		bl	HAL_DAC_MspInit
  44              	.L4:
  45 0014 0223     		movs	r3, #2
  46 0016 2371     		strb	r3, [r4, #4]
  47 0018 0020     		movs	r0, #0
  48 001a 0123     		movs	r3, #1
  49 001c 2061     		str	r0, [r4, #16]
  50 001e 2371     		strb	r3, [r4, #4]
  51 0020 10BD     		pop	{r4, pc}
  52              	.L5:
  53 0022 0120     		movs	r0, #1
  54 0024 10BD     		pop	{r4, pc}
  56              		.section	.text.HAL_DAC_MspDeInit,"ax",%progbits
  57              		.align	1
  58              		.weak	HAL_DAC_MspDeInit
  59              		.thumb
  60              		.thumb_func
  62              	HAL_DAC_MspDeInit:
ARM GAS  /tmp/ccXBlZmM.s 			page 2


  63              		@ args = 0, pretend = 0, frame = 0
  64              		@ frame_needed = 0, uses_anonymous_args = 0
  65              		@ link register save eliminated.
  66 0000 7047     		bx	lr
  68              		.section	.text.HAL_DAC_DeInit,"ax",%progbits
  69              		.align	1
  70              		.global	HAL_DAC_DeInit
  71              		.thumb
  72              		.thumb_func
  74              	HAL_DAC_DeInit:
  75              		@ args = 0, pretend = 0, frame = 0
  76              		@ frame_needed = 0, uses_anonymous_args = 0
  77 0000 10B5     		push	{r4, lr}
  78 0002 0446     		mov	r4, r0
  79 0004 40B1     		cbz	r0, .L10
  80 0006 0223     		movs	r3, #2
  81 0008 0371     		strb	r3, [r0, #4]
  82 000a FFF7FEFF 		bl	HAL_DAC_MspDeInit
  83 000e 0020     		movs	r0, #0
  84 0010 2061     		str	r0, [r4, #16]
  85 0012 6071     		strb	r0, [r4, #5]
  86 0014 2071     		strb	r0, [r4, #4]
  87 0016 10BD     		pop	{r4, pc}
  88              	.L10:
  89 0018 0120     		movs	r0, #1
  90 001a 10BD     		pop	{r4, pc}
  92              		.section	.text.HAL_DAC_Start,"ax",%progbits
  93              		.align	1
  94              		.global	HAL_DAC_Start
  95              		.thumb
  96              		.thumb_func
  98              	HAL_DAC_Start:
  99              		@ args = 0, pretend = 0, frame = 0
 100              		@ frame_needed = 0, uses_anonymous_args = 0
 101 0000 4379     		ldrb	r3, [r0, #5]	@ zero_extendqisi2
 102 0002 30B5     		push	{r4, r5, lr}
 103 0004 012B     		cmp	r3, #1
 104 0006 4FF00203 		mov	r3, #2
 105 000a 22D0     		beq	.L15
 106 000c 0371     		strb	r3, [r0, #4]
 107 000e 0368     		ldr	r3, [r0]
 108 0010 0122     		movs	r2, #1
 109 0012 1C68     		ldr	r4, [r3]
 110 0014 01F01005 		and	r5, r1, #16
 111 0018 4271     		strb	r2, [r0, #5]
 112 001a AA40     		lsls	r2, r2, r5
 113 001c 2243     		orrs	r2, r2, r4
 114 001e 1A60     		str	r2, [r3]
 115 0020 41B9     		cbnz	r1, .L13
 116 0022 1A68     		ldr	r2, [r3]
 117 0024 02F03C02 		and	r2, r2, #60
 118 0028 3C2A     		cmp	r2, #60
 119 002a 0ED1     		bne	.L14
 120 002c 5A68     		ldr	r2, [r3, #4]
 121 002e 42F00102 		orr	r2, r2, #1
 122 0032 09E0     		b	.L16
 123              	.L13:
ARM GAS  /tmp/ccXBlZmM.s 			page 3


 124 0034 1968     		ldr	r1, [r3]
 125 0036 3C22     		movs	r2, #60
 126 0038 01F47011 		and	r1, r1, #3932160
 127 003c AA40     		lsls	r2, r2, r5
 128 003e 9142     		cmp	r1, r2
 129 0040 03D1     		bne	.L14
 130 0042 5A68     		ldr	r2, [r3, #4]
 131 0044 42F00202 		orr	r2, r2, #2
 132              	.L16:
 133 0048 5A60     		str	r2, [r3, #4]
 134              	.L14:
 135 004a 0123     		movs	r3, #1
 136 004c 0371     		strb	r3, [r0, #4]
 137 004e 0023     		movs	r3, #0
 138 0050 4371     		strb	r3, [r0, #5]
 139              	.L15:
 140 0052 1846     		mov	r0, r3
 141 0054 30BD     		pop	{r4, r5, pc}
 143              		.section	.text.HAL_DAC_Stop,"ax",%progbits
 144              		.align	1
 145              		.global	HAL_DAC_Stop
 146              		.thumb
 147              		.thumb_func
 149              	HAL_DAC_Stop:
 150              		@ args = 0, pretend = 0, frame = 0
 151              		@ frame_needed = 0, uses_anonymous_args = 0
 152 0000 10B5     		push	{r4, lr}
 153 0002 0468     		ldr	r4, [r0]
 154 0004 0122     		movs	r2, #1
 155 0006 2368     		ldr	r3, [r4]
 156 0008 01F01001 		and	r1, r1, #16
 157 000c 02FA01F1 		lsl	r1, r2, r1
 158 0010 23EA0103 		bic	r3, r3, r1
 159 0014 2360     		str	r3, [r4]
 160 0016 0271     		strb	r2, [r0, #4]
 161 0018 0020     		movs	r0, #0
 162 001a 10BD     		pop	{r4, pc}
 164              		.section	.text.HAL_DAC_Start_DMA,"ax",%progbits
 165              		.align	1
 166              		.global	HAL_DAC_Start_DMA
 167              		.thumb
 168              		.thumb_func
 170              	HAL_DAC_Start_DMA:
 171              		@ args = 4, pretend = 0, frame = 0
 172              		@ frame_needed = 0, uses_anonymous_args = 0
 173 0000 F8B5     		push	{r3, r4, r5, r6, r7, lr}
 174 0002 0F46     		mov	r7, r1
 175 0004 1146     		mov	r1, r2
 176 0006 4279     		ldrb	r2, [r0, #5]	@ zero_extendqisi2
 177 0008 0546     		mov	r5, r0
 178 000a 012A     		cmp	r2, #1
 179 000c 069E     		ldr	r6, [sp, #24]
 180 000e 4FF00200 		mov	r0, #2
 181 0012 53D0     		beq	.L36
 182 0014 0122     		movs	r2, #1
 183 0016 6A71     		strb	r2, [r5, #5]
 184 0018 2871     		strb	r0, [r5, #4]
ARM GAS  /tmp/ccXBlZmM.s 			page 4


 185 001a 2C68     		ldr	r4, [r5]
 186 001c C7B9     		cbnz	r7, .L20
 187 001e A868     		ldr	r0, [r5, #8]
 188 0020 274A     		ldr	r2, .L38
 189 0022 042E     		cmp	r6, #4
 190 0024 8262     		str	r2, [r0, #40]
 191 0026 274A     		ldr	r2, .L38+4
 192 0028 C262     		str	r2, [r0, #44]
 193 002a 274A     		ldr	r2, .L38+8
 194 002c 0263     		str	r2, [r0, #48]
 195 002e 2268     		ldr	r2, [r4]
 196 0030 42F48052 		orr	r2, r2, #4096
 197 0034 2260     		str	r2, [r4]
 198 0036 05D0     		beq	.L22
 199 0038 082E     		cmp	r6, #8
 200 003a 06D0     		beq	.L23
 201 003c 36BB     		cbnz	r6, .L34
 202 003e 04F10802 		add	r2, r4, #8
 203 0042 24E0     		b	.L21
 204              	.L22:
 205 0044 04F10C02 		add	r2, r4, #12
 206 0048 21E0     		b	.L21
 207              	.L23:
 208 004a 04F11002 		add	r2, r4, #16
 209 004e 1EE0     		b	.L21
 210              	.L20:
 211 0050 E868     		ldr	r0, [r5, #12]
 212 0052 1E4A     		ldr	r2, .L38+12
 213 0054 042E     		cmp	r6, #4
 214 0056 8262     		str	r2, [r0, #40]
 215 0058 1D4A     		ldr	r2, .L38+16
 216 005a C262     		str	r2, [r0, #44]
 217 005c 1D4A     		ldr	r2, .L38+20
 218 005e 0263     		str	r2, [r0, #48]
 219 0060 2268     		ldr	r2, [r4]
 220 0062 42F08052 		orr	r2, r2, #268435456
 221 0066 2260     		str	r2, [r4]
 222 0068 05D0     		beq	.L26
 223 006a 082E     		cmp	r6, #8
 224 006c 06D0     		beq	.L27
 225 006e 46B9     		cbnz	r6, .L35
 226 0070 04F11402 		add	r2, r4, #20
 227 0074 06E0     		b	.L25
 228              	.L26:
 229 0076 04F11802 		add	r2, r4, #24
 230 007a 03E0     		b	.L25
 231              	.L27:
 232 007c 04F11C02 		add	r2, r4, #28
 233 0080 00E0     		b	.L25
 234              	.L35:
 235 0082 0022     		movs	r2, #0
 236              	.L25:
 237 0084 2668     		ldr	r6, [r4]
 238 0086 46F00056 		orr	r6, r6, #536870912
 239 008a 03E0     		b	.L37
 240              	.L34:
 241 008c 3A46     		mov	r2, r7
ARM GAS  /tmp/ccXBlZmM.s 			page 5


 242              	.L21:
 243 008e 2668     		ldr	r6, [r4]
 244 0090 46F40056 		orr	r6, r6, #8192
 245              	.L37:
 246 0094 2660     		str	r6, [r4]
 247 0096 FFF7FEFF 		bl	HAL_DMA_Start_IT
 248 009a 0023     		movs	r3, #0
 249 009c 6B71     		strb	r3, [r5, #5]
 250 009e 40B9     		cbnz	r0, .L29
 251 00a0 2968     		ldr	r1, [r5]
 252 00a2 07F01007 		and	r7, r7, #16
 253 00a6 0A68     		ldr	r2, [r1]
 254 00a8 0123     		movs	r3, #1
 255 00aa BB40     		lsls	r3, r3, r7
 256 00ac 1343     		orrs	r3, r3, r2
 257 00ae 0B60     		str	r3, [r1]
 258 00b0 F8BD     		pop	{r3, r4, r5, r6, r7, pc}
 259              	.L29:
 260 00b2 2B69     		ldr	r3, [r5, #16]
 261 00b4 43F00403 		orr	r3, r3, #4
 262 00b8 2B61     		str	r3, [r5, #16]
 263 00ba F8BD     		pop	{r3, r4, r5, r6, r7, pc}
 264              	.L36:
 265 00bc F8BD     		pop	{r3, r4, r5, r6, r7, pc}
 266              	.L39:
 267 00be 00BF     		.align	2
 268              	.L38:
 269 00c0 00000000 		.word	DAC_DMAConvCpltCh1
 270 00c4 00000000 		.word	DAC_DMAHalfConvCpltCh1
 271 00c8 00000000 		.word	DAC_DMAErrorCh1
 272 00cc 00000000 		.word	DAC_DMAConvCpltCh2
 273 00d0 00000000 		.word	DAC_DMAHalfConvCpltCh2
 274 00d4 00000000 		.word	DAC_DMAErrorCh2
 276              		.section	.text.HAL_DAC_Stop_DMA,"ax",%progbits
 277              		.align	1
 278              		.global	HAL_DAC_Stop_DMA
 279              		.thumb
 280              		.thumb_func
 282              	HAL_DAC_Stop_DMA:
 283              		@ args = 0, pretend = 0, frame = 0
 284              		@ frame_needed = 0, uses_anonymous_args = 0
 285 0000 38B5     		push	{r3, r4, r5, lr}
 286 0002 0368     		ldr	r3, [r0]
 287 0004 01F01005 		and	r5, r1, #16
 288 0008 0446     		mov	r4, r0
 289 000a 4FF48052 		mov	r2, #4096
 290 000e 1868     		ldr	r0, [r3]
 291 0010 AA40     		lsls	r2, r2, r5
 292 0012 20EA0202 		bic	r2, r0, r2
 293 0016 1A60     		str	r2, [r3]
 294 0018 1868     		ldr	r0, [r3]
 295 001a 0122     		movs	r2, #1
 296 001c AA40     		lsls	r2, r2, r5
 297 001e 20EA0202 		bic	r2, r0, r2
 298 0022 1A60     		str	r2, [r3]
 299 0024 39B9     		cbnz	r1, .L41
 300 0026 A068     		ldr	r0, [r4, #8]
ARM GAS  /tmp/ccXBlZmM.s 			page 6


 301 0028 FFF7FEFF 		bl	HAL_DMA_Abort
 302 002c 2268     		ldr	r2, [r4]
 303 002e 1368     		ldr	r3, [r2]
 304 0030 23F40053 		bic	r3, r3, #8192
 305 0034 06E0     		b	.L45
 306              	.L41:
 307 0036 E068     		ldr	r0, [r4, #12]
 308 0038 FFF7FEFF 		bl	HAL_DMA_Abort
 309 003c 2268     		ldr	r2, [r4]
 310 003e 1368     		ldr	r3, [r2]
 311 0040 23F00053 		bic	r3, r3, #536870912
 312              	.L45:
 313 0044 1360     		str	r3, [r2]
 314 0046 08B1     		cbz	r0, .L43
 315 0048 0423     		movs	r3, #4
 316 004a 00E0     		b	.L46
 317              	.L43:
 318 004c 0123     		movs	r3, #1
 319              	.L46:
 320 004e 2371     		strb	r3, [r4, #4]
 321 0050 38BD     		pop	{r3, r4, r5, pc}
 323              		.section	.text.HAL_DAC_SetValue,"ax",%progbits
 324              		.align	1
 325              		.global	HAL_DAC_SetValue
 326              		.thumb
 327              		.thumb_func
 329              	HAL_DAC_SetValue:
 330              		@ args = 0, pretend = 0, frame = 8
 331              		@ frame_needed = 0, uses_anonymous_args = 0
 332 0000 13B5     		push	{r0, r1, r4, lr}
 333 0002 0068     		ldr	r0, [r0]
 334 0004 0024     		movs	r4, #0
 335 0006 0194     		str	r4, [sp, #4]
 336 0008 0190     		str	r0, [sp, #4]
 337 000a 11B9     		cbnz	r1, .L48
 338 000c 0199     		ldr	r1, [sp, #4]
 339 000e 0831     		adds	r1, r1, #8
 340 0010 01E0     		b	.L50
 341              	.L48:
 342 0012 0199     		ldr	r1, [sp, #4]
 343 0014 1431     		adds	r1, r1, #20
 344              	.L50:
 345 0016 0A44     		add	r2, r2, r1
 346 0018 0192     		str	r2, [sp, #4]
 347 001a 019A     		ldr	r2, [sp, #4]
 348 001c 0020     		movs	r0, #0
 349 001e 1360     		str	r3, [r2]
 350 0020 02B0     		add	sp, sp, #8
 351              		@ sp needed
 352 0022 10BD     		pop	{r4, pc}
 354              		.section	.text.HAL_DAC_ConvCpltCallbackCh1,"ax",%progbits
 355              		.align	1
 356              		.weak	HAL_DAC_ConvCpltCallbackCh1
 357              		.thumb
 358              		.thumb_func
 360              	HAL_DAC_ConvCpltCallbackCh1:
 361              		@ args = 0, pretend = 0, frame = 0
ARM GAS  /tmp/ccXBlZmM.s 			page 7


 362              		@ frame_needed = 0, uses_anonymous_args = 0
 363              		@ link register save eliminated.
 364 0000 7047     		bx	lr
 366              		.section	.text.DAC_DMAConvCpltCh1,"ax",%progbits
 367              		.align	1
 368              		.global	DAC_DMAConvCpltCh1
 369              		.thumb
 370              		.thumb_func
 372              	DAC_DMAConvCpltCh1:
 373              		@ args = 0, pretend = 0, frame = 0
 374              		@ frame_needed = 0, uses_anonymous_args = 0
 375 0000 10B5     		push	{r4, lr}
 376 0002 446A     		ldr	r4, [r0, #36]
 377 0004 2046     		mov	r0, r4
 378 0006 FFF7FEFF 		bl	HAL_DAC_ConvCpltCallbackCh1
 379 000a 0123     		movs	r3, #1
 380 000c 2371     		strb	r3, [r4, #4]
 381 000e 10BD     		pop	{r4, pc}
 383              		.section	.text.HAL_DAC_ConvHalfCpltCallbackCh1,"ax",%progbits
 384              		.align	1
 385              		.weak	HAL_DAC_ConvHalfCpltCallbackCh1
 386              		.thumb
 387              		.thumb_func
 389              	HAL_DAC_ConvHalfCpltCallbackCh1:
 390              		@ args = 0, pretend = 0, frame = 0
 391              		@ frame_needed = 0, uses_anonymous_args = 0
 392              		@ link register save eliminated.
 393 0000 7047     		bx	lr
 395              		.section	.text.DAC_DMAHalfConvCpltCh1,"ax",%progbits
 396              		.align	1
 397              		.global	DAC_DMAHalfConvCpltCh1
 398              		.thumb
 399              		.thumb_func
 401              	DAC_DMAHalfConvCpltCh1:
 402              		@ args = 0, pretend = 0, frame = 0
 403              		@ frame_needed = 0, uses_anonymous_args = 0
 404 0000 08B5     		push	{r3, lr}
 405 0002 406A     		ldr	r0, [r0, #36]
 406 0004 FFF7FEFF 		bl	HAL_DAC_ConvHalfCpltCallbackCh1
 407 0008 08BD     		pop	{r3, pc}
 409              		.section	.text.HAL_DAC_ErrorCallbackCh1,"ax",%progbits
 410              		.align	1
 411              		.weak	HAL_DAC_ErrorCallbackCh1
 412              		.thumb
 413              		.thumb_func
 415              	HAL_DAC_ErrorCallbackCh1:
 416              		@ args = 0, pretend = 0, frame = 0
 417              		@ frame_needed = 0, uses_anonymous_args = 0
 418              		@ link register save eliminated.
 419 0000 7047     		bx	lr
 421              		.section	.text.DAC_DMAErrorCh1,"ax",%progbits
 422              		.align	1
 423              		.global	DAC_DMAErrorCh1
 424              		.thumb
 425              		.thumb_func
 427              	DAC_DMAErrorCh1:
 428              		@ args = 0, pretend = 0, frame = 0
ARM GAS  /tmp/ccXBlZmM.s 			page 8


 429              		@ frame_needed = 0, uses_anonymous_args = 0
 430 0000 10B5     		push	{r4, lr}
 431 0002 446A     		ldr	r4, [r0, #36]
 432 0004 2369     		ldr	r3, [r4, #16]
 433 0006 2046     		mov	r0, r4
 434 0008 43F00403 		orr	r3, r3, #4
 435 000c 2361     		str	r3, [r4, #16]
 436 000e FFF7FEFF 		bl	HAL_DAC_ErrorCallbackCh1
 437 0012 0123     		movs	r3, #1
 438 0014 2371     		strb	r3, [r4, #4]
 439 0016 10BD     		pop	{r4, pc}
 441              		.section	.text.HAL_DAC_DMAUnderrunCallbackCh1,"ax",%progbits
 442              		.align	1
 443              		.weak	HAL_DAC_DMAUnderrunCallbackCh1
 444              		.thumb
 445              		.thumb_func
 447              	HAL_DAC_DMAUnderrunCallbackCh1:
 448              		@ args = 0, pretend = 0, frame = 0
 449              		@ frame_needed = 0, uses_anonymous_args = 0
 450              		@ link register save eliminated.
 451 0000 7047     		bx	lr
 453              		.section	.text.HAL_DAC_IRQHandler,"ax",%progbits
 454              		.align	1
 455              		.global	HAL_DAC_IRQHandler
 456              		.thumb
 457              		.thumb_func
 459              	HAL_DAC_IRQHandler:
 460              		@ args = 0, pretend = 0, frame = 0
 461              		@ frame_needed = 0, uses_anonymous_args = 0
 462 0000 0368     		ldr	r3, [r0]
 463 0002 10B5     		push	{r4, lr}
 464 0004 1A68     		ldr	r2, [r3]
 465 0006 0446     		mov	r4, r0
 466 0008 9104     		lsls	r1, r2, #18
 467 000a 11D5     		bpl	.L59
 468 000c 5A6B     		ldr	r2, [r3, #52]
 469 000e 9204     		lsls	r2, r2, #18
 470 0010 0ED5     		bpl	.L59
 471 0012 0422     		movs	r2, #4
 472 0014 0271     		strb	r2, [r0, #4]
 473 0016 0269     		ldr	r2, [r0, #16]
 474 0018 42F00102 		orr	r2, r2, #1
 475 001c 0261     		str	r2, [r0, #16]
 476 001e 4FF40052 		mov	r2, #8192
 477 0022 5A63     		str	r2, [r3, #52]
 478 0024 1A68     		ldr	r2, [r3]
 479 0026 22F48052 		bic	r2, r2, #4096
 480 002a 1A60     		str	r2, [r3]
 481 002c FFF7FEFF 		bl	HAL_DAC_DMAUnderrunCallbackCh1
 482              	.L59:
 483 0030 2368     		ldr	r3, [r4]
 484 0032 1A68     		ldr	r2, [r3]
 485 0034 9100     		lsls	r1, r2, #2
 486 0036 14D5     		bpl	.L58
 487 0038 5A6B     		ldr	r2, [r3, #52]
 488 003a 9200     		lsls	r2, r2, #2
 489 003c 11D5     		bpl	.L58
ARM GAS  /tmp/ccXBlZmM.s 			page 9


 490 003e 0422     		movs	r2, #4
 491 0040 2271     		strb	r2, [r4, #4]
 492 0042 2269     		ldr	r2, [r4, #16]
 493 0044 2046     		mov	r0, r4
 494 0046 42F00202 		orr	r2, r2, #2
 495 004a 2261     		str	r2, [r4, #16]
 496 004c 4FF00052 		mov	r2, #536870912
 497 0050 5A63     		str	r2, [r3, #52]
 498 0052 1A68     		ldr	r2, [r3]
 499 0054 BDE81040 		pop	{r4, lr}
 500 0058 22F08052 		bic	r2, r2, #268435456
 501 005c 1A60     		str	r2, [r3]
 502 005e FFF7FEBF 		b	HAL_DACEx_DMAUnderrunCallbackCh2
 503              	.L58:
 504 0062 10BD     		pop	{r4, pc}
 506              		.section	.text.HAL_DAC_GetValue,"ax",%progbits
 507              		.align	1
 508              		.global	HAL_DAC_GetValue
 509              		.thumb
 510              		.thumb_func
 512              	HAL_DAC_GetValue:
 513              		@ args = 0, pretend = 0, frame = 0
 514              		@ frame_needed = 0, uses_anonymous_args = 0
 515              		@ link register save eliminated.
 516 0000 0368     		ldr	r3, [r0]
 517 0002 09B9     		cbnz	r1, .L74
 518 0004 D86A     		ldr	r0, [r3, #44]
 519 0006 7047     		bx	lr
 520              	.L74:
 521 0008 186B     		ldr	r0, [r3, #48]
 522 000a 7047     		bx	lr
 524              		.section	.text.HAL_DAC_ConfigChannel,"ax",%progbits
 525              		.align	1
 526              		.global	HAL_DAC_ConfigChannel
 527              		.thumb
 528              		.thumb_func
 530              	HAL_DAC_ConfigChannel:
 531              		@ args = 0, pretend = 0, frame = 0
 532              		@ frame_needed = 0, uses_anonymous_args = 0
 533 0000 4379     		ldrb	r3, [r0, #5]	@ zero_extendqisi2
 534 0002 70B5     		push	{r4, r5, r6, lr}
 535 0004 012B     		cmp	r3, #1
 536 0006 4FF00203 		mov	r3, #2
 537 000a 1CD0     		beq	.L78
 538 000c 0371     		strb	r3, [r0, #4]
 539 000e 40F6FE73 		movw	r3, #4094
 540 0012 0468     		ldr	r4, [r0]
 541 0014 02F01002 		and	r2, r2, #16
 542 0018 2668     		ldr	r6, [r4]
 543 001a 9340     		lsls	r3, r3, r2
 544 001c 26EA0305 		bic	r5, r6, r3
 545 0020 0AC9     		ldmia	r1, {r1, r3}
 546 0022 0B43     		orrs	r3, r3, r1
 547 0024 9340     		lsls	r3, r3, r2
 548 0026 2B43     		orrs	r3, r3, r5
 549 0028 2360     		str	r3, [r4]
 550 002a C023     		movs	r3, #192
ARM GAS  /tmp/ccXBlZmM.s 			page 10


 551 002c 9340     		lsls	r3, r3, r2
 552 002e DB43     		mvns	r3, r3
 553 0030 2168     		ldr	r1, [r4]
 554 0032 03EA0102 		and	r2, r3, r1
 555 0036 2260     		str	r2, [r4]
 556 0038 2268     		ldr	r2, [r4]
 557 003a 1340     		ands	r3, r3, r2
 558 003c 2360     		str	r3, [r4]
 559 003e 0123     		movs	r3, #1
 560 0040 0371     		strb	r3, [r0, #4]
 561 0042 0023     		movs	r3, #0
 562 0044 4371     		strb	r3, [r0, #5]
 563              	.L78:
 564 0046 1846     		mov	r0, r3
 565 0048 70BD     		pop	{r4, r5, r6, pc}
 567              		.section	.text.HAL_DAC_GetState,"ax",%progbits
 568              		.align	1
 569              		.global	HAL_DAC_GetState
 570              		.thumb
 571              		.thumb_func
 573              	HAL_DAC_GetState:
 574              		@ args = 0, pretend = 0, frame = 0
 575              		@ frame_needed = 0, uses_anonymous_args = 0
 576              		@ link register save eliminated.
 577 0000 0079     		ldrb	r0, [r0, #4]	@ zero_extendqisi2
 578 0002 7047     		bx	lr
 580              		.section	.text.HAL_DAC_GetError,"ax",%progbits
 581              		.align	1
 582              		.global	HAL_DAC_GetError
 583              		.thumb
 584              		.thumb_func
 586              	HAL_DAC_GetError:
 587              		@ args = 0, pretend = 0, frame = 0
 588              		@ frame_needed = 0, uses_anonymous_args = 0
 589              		@ link register save eliminated.
 590 0000 0069     		ldr	r0, [r0, #16]
 591 0002 7047     		bx	lr
 593              		.ident	"GCC: (15:4.9.3+svn231177-1) 4.9.3 20150529 (prerelease)"
ARM GAS  /tmp/ccXBlZmM.s 			page 11

