ARM GAS  /tmp/ccmGLz0K.s 			page 1


   1              		.syntax unified
   2              		.cpu cortex-m3
   3              		.fpu softvfp
   4              		.eabi_attribute 20, 1
   5              		.eabi_attribute 21, 1
   6              		.eabi_attribute 23, 3
   7              		.eabi_attribute 24, 1
   8              		.eabi_attribute 25, 1
   9              		.eabi_attribute 26, 1
  10              		.eabi_attribute 30, 4
  11              		.eabi_attribute 34, 1
  12              		.eabi_attribute 18, 4
  13              		.thumb
  14              		.file	"stm32f1xx_hal_adc.c"
  15              		.section	.text.HAL_ADC_MspInit,"ax",%progbits
  16              		.align	1
  17              		.weak	HAL_ADC_MspInit
  18              		.thumb
  19              		.thumb_func
  21              	HAL_ADC_MspInit:
  22              		@ args = 0, pretend = 0, frame = 0
  23              		@ frame_needed = 0, uses_anonymous_args = 0
  24              		@ link register save eliminated.
  25 0000 7047     		bx	lr
  27              		.section	.text.HAL_ADC_MspDeInit,"ax",%progbits
  28              		.align	1
  29              		.weak	HAL_ADC_MspDeInit
  30              		.thumb
  31              		.thumb_func
  33              	HAL_ADC_MspDeInit:
  34              		@ args = 0, pretend = 0, frame = 0
  35              		@ frame_needed = 0, uses_anonymous_args = 0
  36              		@ link register save eliminated.
  37 0000 7047     		bx	lr
  39              		.section	.text.HAL_ADC_PollForConversion,"ax",%progbits
  40              		.align	1
  41              		.global	HAL_ADC_PollForConversion
  42              		.thumb
  43              		.thumb_func
  45              	HAL_ADC_PollForConversion:
  46              		@ args = 0, pretend = 0, frame = 8
  47              		@ frame_needed = 0, uses_anonymous_args = 0
  48 0000 F7B5     		push	{r0, r1, r2, r4, r5, r6, r7, lr}
  49 0002 0446     		mov	r4, r0
  50 0004 0026     		movs	r6, #0
  51 0006 0D46     		mov	r5, r1
  52 0008 0196     		str	r6, [sp, #4]
  53 000a FFF7FEFF 		bl	HAL_GetTick
  54 000e 2368     		ldr	r3, [r4]
  55 0010 0746     		mov	r7, r0
  56 0012 9A68     		ldr	r2, [r3, #8]
  57 0014 D205     		lsls	r2, r2, #23
  58 0016 07D5     		bpl	.L4
  59 0018 A36A     		ldr	r3, [r4, #40]
  60 001a 84F82460 		strb	r6, [r4, #36]
  61 001e 43F02003 		orr	r3, r3, #32
  62 0022 A362     		str	r3, [r4, #40]
ARM GAS  /tmp/ccmGLz0K.s 			page 2


  63 0024 0120     		movs	r0, #1
  64 0026 83E0     		b	.L5
  65              	.L4:
  66 0028 5A68     		ldr	r2, [r3, #4]
  67 002a D605     		lsls	r6, r2, #23
  68 002c 11D4     		bmi	.L6
  69 002e DB6A     		ldr	r3, [r3, #44]
  70 0030 13F4700F 		tst	r3, #15728640
  71 0034 0DD1     		bne	.L6
  72              	.L7:
  73 0036 2268     		ldr	r2, [r4]
  74              	.L8:
  75 0038 1368     		ldr	r3, [r2]
  76 003a 9907     		lsls	r1, r3, #30
  77 003c 2AD4     		bmi	.L22
  78 003e 681C     		adds	r0, r5, #1
  79 0040 FAD0     		beq	.L8
  80 0042 002D     		cmp	r5, #0
  81 0044 52D0     		beq	.L20
  82 0046 FFF7FEFF 		bl	HAL_GetTick
  83 004a C01B     		subs	r0, r0, r7
  84 004c A842     		cmp	r0, r5
  85 004e F2D9     		bls	.L7
  86 0050 4CE0     		b	.L20
  87              	.L6:
  88 0052 384B     		ldr	r3, .L39
  89 0054 0220     		movs	r0, #2
  90 0056 1E68     		ldr	r6, [r3]
  91 0058 FFF7FEFF 		bl	HAL_RCCEx_GetPeriphCLKFreq
  92 005c 2368     		ldr	r3, [r4]
  93 005e 364A     		ldr	r2, .L39+4
  94 0060 1969     		ldr	r1, [r3, #16]
  95 0062 B6FBF0F0 		udiv	r0, r6, r0
  96 0066 0A40     		ands	r2, r2, r1
  97 0068 1ABB     		cbnz	r2, .L14
  98 006a D968     		ldr	r1, [r3, #12]
  99 006c 334A     		ldr	r2, .L39+8
 100 006e 0A40     		ands	r2, r2, r1
 101 0070 FAB9     		cbnz	r2, .L14
 102 0072 1969     		ldr	r1, [r3, #16]
 103 0074 324A     		ldr	r2, .L39+12
 104 0076 0A40     		ands	r2, r2, r1
 105 0078 002A     		cmp	r2, #0
 106 007a 2ED1     		bne	.L23
 107 007c DA68     		ldr	r2, [r3, #12]
 108 007e 314B     		ldr	r3, .L39+16
 109 0080 1340     		ands	r3, r3, r2
 110 0082 002B     		cmp	r3, #0
 111 0084 14BF     		ite	ne
 112 0086 2923     		movne	r3, #41
 113 0088 1423     		moveq	r3, #20
 114              	.L15:
 115 008a 00FB03F6 		mul	r6, r0, r3
 116              	.L17:
 117 008e 019B     		ldr	r3, [sp, #4]
 118 0090 B342     		cmp	r3, r6
 119 0092 28D3     		bcc	.L21
ARM GAS  /tmp/ccmGLz0K.s 			page 3


 120              	.L22:
 121 0094 2268     		ldr	r2, [r4]
 122 0096 6FF01203 		mvn	r3, #18
 123 009a 1360     		str	r3, [r2]
 124 009c A36A     		ldr	r3, [r4, #40]
 125 009e 43F40073 		orr	r3, r3, #512
 126 00a2 A362     		str	r3, [r4, #40]
 127 00a4 9368     		ldr	r3, [r2, #8]
 128 00a6 03F46023 		and	r3, r3, #917504
 129 00aa B3F5602F 		cmp	r3, #917504
 130 00ae 31D1     		bne	.L13
 131 00b0 2EE0     		b	.L37
 132              	.L14:
 133 00b2 1969     		ldr	r1, [r3, #16]
 134 00b4 224A     		ldr	r2, .L39+12
 135 00b6 0A40     		ands	r2, r2, r1
 136 00b8 1AB9     		cbnz	r2, .L16
 137 00ba D968     		ldr	r1, [r3, #12]
 138 00bc 214A     		ldr	r2, .L39+16
 139 00be 0A40     		ands	r2, r2, r1
 140 00c0 6AB1     		cbz	r2, .L25
 141              	.L16:
 142 00c2 1969     		ldr	r1, [r3, #16]
 143 00c4 204A     		ldr	r2, .L39+20
 144 00c6 0A40     		ands	r2, r2, r1
 145 00c8 5AB9     		cbnz	r2, .L26
 146 00ca DA68     		ldr	r2, [r3, #12]
 147 00cc 1E4B     		ldr	r3, .L39+20
 148 00ce 1340     		ands	r3, r3, r2
 149 00d0 002B     		cmp	r3, #0
 150 00d2 14BF     		ite	ne
 151 00d4 FC23     		movne	r3, #252
 152 00d6 5423     		moveq	r3, #84
 153 00d8 D7E7     		b	.L15
 154              	.L23:
 155 00da 2923     		movs	r3, #41
 156 00dc D5E7     		b	.L15
 157              	.L25:
 158 00de 5423     		movs	r3, #84
 159 00e0 D3E7     		b	.L15
 160              	.L26:
 161 00e2 FC23     		movs	r3, #252
 162 00e4 D1E7     		b	.L15
 163              	.L21:
 164 00e6 6B1C     		adds	r3, r5, #1
 165 00e8 0ED0     		beq	.L28
 166 00ea 45B9     		cbnz	r5, .L19
 167              	.L20:
 168 00ec A36A     		ldr	r3, [r4, #40]
 169 00ee 0320     		movs	r0, #3
 170 00f0 43F00403 		orr	r3, r3, #4
 171 00f4 A362     		str	r3, [r4, #40]
 172 00f6 0023     		movs	r3, #0
 173 00f8 84F82430 		strb	r3, [r4, #36]
 174 00fc 18E0     		b	.L5
 175              	.L19:
 176 00fe FFF7FEFF 		bl	HAL_GetTick
ARM GAS  /tmp/ccmGLz0K.s 			page 4


 177 0102 C01B     		subs	r0, r0, r7
 178 0104 A842     		cmp	r0, r5
 179 0106 F1D8     		bhi	.L20
 180              	.L28:
 181 0108 019B     		ldr	r3, [sp, #4]
 182 010a 0133     		adds	r3, r3, #1
 183 010c 0193     		str	r3, [sp, #4]
 184 010e BEE7     		b	.L17
 185              	.L37:
 186 0110 237B     		ldrb	r3, [r4, #12]	@ zero_extendqisi2
 187 0112 0BB1     		cbz	r3, .L38
 188              	.L13:
 189 0114 0020     		movs	r0, #0
 190 0116 0BE0     		b	.L5
 191              	.L38:
 192 0118 A36A     		ldr	r3, [r4, #40]
 193 011a 23F48073 		bic	r3, r3, #256
 194 011e A362     		str	r3, [r4, #40]
 195 0120 A06A     		ldr	r0, [r4, #40]
 196 0122 10F48050 		ands	r0, r0, #4096
 197 0126 F5D1     		bne	.L13
 198 0128 A36A     		ldr	r3, [r4, #40]
 199 012a 43F00103 		orr	r3, r3, #1
 200 012e A362     		str	r3, [r4, #40]
 201              	.L5:
 202 0130 03B0     		add	sp, sp, #12
 203              		@ sp needed
 204 0132 F0BD     		pop	{r4, r5, r6, r7, pc}
 205              	.L40:
 206              		.align	2
 207              	.L39:
 208 0134 00000000 		.word	SystemCoreClock
 209 0138 24499224 		.word	613566756
 210 013c 24499200 		.word	9586980
 211 0140 92244912 		.word	306783378
 212 0144 92244900 		.word	4793490
 213 0148 49922400 		.word	2396745
 215              		.section	.text.HAL_ADC_PollForEvent,"ax",%progbits
 216              		.align	1
 217              		.global	HAL_ADC_PollForEvent
 218              		.thumb
 219              		.thumb_func
 221              	HAL_ADC_PollForEvent:
 222              		@ args = 0, pretend = 0, frame = 0
 223              		@ frame_needed = 0, uses_anonymous_args = 0
 224 0000 F8B5     		push	{r3, r4, r5, r6, r7, lr}
 225 0002 0446     		mov	r4, r0
 226 0004 0E46     		mov	r6, r1
 227 0006 1546     		mov	r5, r2
 228 0008 FFF7FEFF 		bl	HAL_GetTick
 229 000c 0746     		mov	r7, r0
 230              	.L42:
 231 000e 2268     		ldr	r2, [r4]
 232              	.L43:
 233 0010 1368     		ldr	r3, [r2]
 234 0012 3340     		ands	r3, r3, r6
 235 0014 B342     		cmp	r3, r6
ARM GAS  /tmp/ccmGLz0K.s 			page 5


 236 0016 11D0     		beq	.L50
 237 0018 6B1C     		adds	r3, r5, #1
 238 001a F9D0     		beq	.L43
 239 001c 45B9     		cbnz	r5, .L44
 240              	.L46:
 241 001e A36A     		ldr	r3, [r4, #40]
 242 0020 0320     		movs	r0, #3
 243 0022 43F00403 		orr	r3, r3, #4
 244 0026 A362     		str	r3, [r4, #40]
 245 0028 0023     		movs	r3, #0
 246 002a 84F82430 		strb	r3, [r4, #36]
 247 002e F8BD     		pop	{r3, r4, r5, r6, r7, pc}
 248              	.L44:
 249 0030 FFF7FEFF 		bl	HAL_GetTick
 250 0034 C01B     		subs	r0, r0, r7
 251 0036 A842     		cmp	r0, r5
 252 0038 E9D9     		bls	.L42
 253 003a F0E7     		b	.L46
 254              	.L50:
 255 003c A36A     		ldr	r3, [r4, #40]
 256 003e 0020     		movs	r0, #0
 257 0040 43F48033 		orr	r3, r3, #65536
 258 0044 A362     		str	r3, [r4, #40]
 259 0046 6FF00103 		mvn	r3, #1
 260 004a 1360     		str	r3, [r2]
 261 004c F8BD     		pop	{r3, r4, r5, r6, r7, pc}
 263              		.section	.text.HAL_ADC_GetValue,"ax",%progbits
 264              		.align	1
 265              		.global	HAL_ADC_GetValue
 266              		.thumb
 267              		.thumb_func
 269              	HAL_ADC_GetValue:
 270              		@ args = 0, pretend = 0, frame = 0
 271              		@ frame_needed = 0, uses_anonymous_args = 0
 272              		@ link register save eliminated.
 273 0000 0368     		ldr	r3, [r0]
 274 0002 D86C     		ldr	r0, [r3, #76]
 275 0004 7047     		bx	lr
 277              		.section	.text.HAL_ADC_ConvCpltCallback,"ax",%progbits
 278              		.align	1
 279              		.weak	HAL_ADC_ConvCpltCallback
 280              		.thumb
 281              		.thumb_func
 283              	HAL_ADC_ConvCpltCallback:
 284              		@ args = 0, pretend = 0, frame = 0
 285              		@ frame_needed = 0, uses_anonymous_args = 0
 286              		@ link register save eliminated.
 287 0000 7047     		bx	lr
 289              		.section	.text.ADC_DMAConvCplt,"ax",%progbits
 290              		.align	1
 291              		.global	ADC_DMAConvCplt
 292              		.thumb
 293              		.thumb_func
 295              	ADC_DMAConvCplt:
 296              		@ args = 0, pretend = 0, frame = 0
 297              		@ frame_needed = 0, uses_anonymous_args = 0
 298 0000 436A     		ldr	r3, [r0, #36]
ARM GAS  /tmp/ccmGLz0K.s 			page 6


 299 0002 10B5     		push	{r4, lr}
 300 0004 9A6A     		ldr	r2, [r3, #40]
 301 0006 12F0500F 		tst	r2, #80
 302 000a 1BD1     		bne	.L54
 303 000c 9A6A     		ldr	r2, [r3, #40]
 304 000e 42F40072 		orr	r2, r2, #512
 305 0012 9A62     		str	r2, [r3, #40]
 306 0014 1A68     		ldr	r2, [r3]
 307 0016 9268     		ldr	r2, [r2, #8]
 308 0018 02F46022 		and	r2, r2, #917504
 309 001c B2F5602F 		cmp	r2, #917504
 310 0020 0CD1     		bne	.L56
 311 0022 1A7B     		ldrb	r2, [r3, #12]	@ zero_extendqisi2
 312 0024 52B9     		cbnz	r2, .L56
 313 0026 9A6A     		ldr	r2, [r3, #40]
 314 0028 22F48072 		bic	r2, r2, #256
 315 002c 9A62     		str	r2, [r3, #40]
 316 002e 9A6A     		ldr	r2, [r3, #40]
 317 0030 D204     		lsls	r2, r2, #19
 318 0032 5EBF     		ittt	pl
 319 0034 9A6A     		ldrpl	r2, [r3, #40]
 320 0036 42F00102 		orrpl	r2, r2, #1
 321 003a 9A62     		strpl	r2, [r3, #40]
 322              	.L56:
 323 003c 1846     		mov	r0, r3
 324 003e FFF7FEFF 		bl	HAL_ADC_ConvCpltCallback
 325 0042 10BD     		pop	{r4, pc}
 326              	.L54:
 327 0044 1B6A     		ldr	r3, [r3, #32]
 328 0046 BDE81040 		pop	{r4, lr}
 329 004a 1B6B     		ldr	r3, [r3, #48]
 330 004c 1847     		bx	r3	@ indirect register sibling call
 332              		.section	.text.HAL_ADC_ConvHalfCpltCallback,"ax",%progbits
 333              		.align	1
 334              		.weak	HAL_ADC_ConvHalfCpltCallback
 335              		.thumb
 336              		.thumb_func
 338              	HAL_ADC_ConvHalfCpltCallback:
 339              		@ args = 0, pretend = 0, frame = 0
 340              		@ frame_needed = 0, uses_anonymous_args = 0
 341              		@ link register save eliminated.
 342 0000 7047     		bx	lr
 344              		.section	.text.ADC_DMAHalfConvCplt,"ax",%progbits
 345              		.align	1
 346              		.global	ADC_DMAHalfConvCplt
 347              		.thumb
 348              		.thumb_func
 350              	ADC_DMAHalfConvCplt:
 351              		@ args = 0, pretend = 0, frame = 0
 352              		@ frame_needed = 0, uses_anonymous_args = 0
 353 0000 08B5     		push	{r3, lr}
 354 0002 406A     		ldr	r0, [r0, #36]
 355 0004 FFF7FEFF 		bl	HAL_ADC_ConvHalfCpltCallback
 356 0008 08BD     		pop	{r3, pc}
 358              		.section	.text.HAL_ADC_LevelOutOfWindowCallback,"ax",%progbits
 359              		.align	1
 360              		.weak	HAL_ADC_LevelOutOfWindowCallback
ARM GAS  /tmp/ccmGLz0K.s 			page 7


 361              		.thumb
 362              		.thumb_func
 364              	HAL_ADC_LevelOutOfWindowCallback:
 365              		@ args = 0, pretend = 0, frame = 0
 366              		@ frame_needed = 0, uses_anonymous_args = 0
 367              		@ link register save eliminated.
 368 0000 7047     		bx	lr
 370              		.section	.text.HAL_ADC_IRQHandler,"ax",%progbits
 371              		.align	1
 372              		.global	HAL_ADC_IRQHandler
 373              		.thumb
 374              		.thumb_func
 376              	HAL_ADC_IRQHandler:
 377              		@ args = 0, pretend = 0, frame = 0
 378              		@ frame_needed = 0, uses_anonymous_args = 0
 379 0000 0368     		ldr	r3, [r0]
 380 0002 10B5     		push	{r4, lr}
 381 0004 5A68     		ldr	r2, [r3, #4]
 382 0006 0446     		mov	r4, r0
 383 0008 9006     		lsls	r0, r2, #26
 384 000a 27D5     		bpl	.L64
 385 000c 1A68     		ldr	r2, [r3]
 386 000e 9107     		lsls	r1, r2, #30
 387 0010 24D5     		bpl	.L64
 388 0012 A26A     		ldr	r2, [r4, #40]
 389 0014 D206     		lsls	r2, r2, #27
 390 0016 5EBF     		ittt	pl
 391 0018 A26A     		ldrpl	r2, [r4, #40]
 392 001a 42F40072 		orrpl	r2, r2, #512
 393 001e A262     		strpl	r2, [r4, #40]
 394 0020 9A68     		ldr	r2, [r3, #8]
 395 0022 02F46022 		and	r2, r2, #917504
 396 0026 B2F5602F 		cmp	r2, #917504
 397 002a 10D1     		bne	.L67
 398 002c 227B     		ldrb	r2, [r4, #12]	@ zero_extendqisi2
 399 002e 72B9     		cbnz	r2, .L67
 400 0030 5A68     		ldr	r2, [r3, #4]
 401 0032 22F02002 		bic	r2, r2, #32
 402 0036 5A60     		str	r2, [r3, #4]
 403 0038 A36A     		ldr	r3, [r4, #40]
 404 003a 23F48073 		bic	r3, r3, #256
 405 003e A362     		str	r3, [r4, #40]
 406 0040 A36A     		ldr	r3, [r4, #40]
 407 0042 DB04     		lsls	r3, r3, #19
 408 0044 5EBF     		ittt	pl
 409 0046 A36A     		ldrpl	r3, [r4, #40]
 410 0048 43F00103 		orrpl	r3, r3, #1
 411 004c A362     		strpl	r3, [r4, #40]
 412              	.L67:
 413 004e 2046     		mov	r0, r4
 414 0050 FFF7FEFF 		bl	HAL_ADC_ConvCpltCallback
 415 0054 2368     		ldr	r3, [r4]
 416 0056 6FF01202 		mvn	r2, #18
 417 005a 1A60     		str	r2, [r3]
 418              	.L64:
 419 005c 2368     		ldr	r3, [r4]
 420 005e 5A68     		ldr	r2, [r3, #4]
ARM GAS  /tmp/ccmGLz0K.s 			page 8


 421 0060 1006     		lsls	r0, r2, #24
 422 0062 30D5     		bpl	.L69
 423 0064 1A68     		ldr	r2, [r3]
 424 0066 5107     		lsls	r1, r2, #29
 425 0068 2DD5     		bpl	.L69
 426 006a A26A     		ldr	r2, [r4, #40]
 427 006c D206     		lsls	r2, r2, #27
 428 006e 5EBF     		ittt	pl
 429 0070 A26A     		ldrpl	r2, [r4, #40]
 430 0072 42F40052 		orrpl	r2, r2, #8192
 431 0076 A262     		strpl	r2, [r4, #40]
 432 0078 9A68     		ldr	r2, [r3, #8]
 433 007a 02F4E042 		and	r2, r2, #28672
 434 007e B2F5E04F 		cmp	r2, #28672
 435 0082 0AD0     		beq	.L71
 436 0084 5A68     		ldr	r2, [r3, #4]
 437 0086 5005     		lsls	r0, r2, #21
 438 0088 16D4     		bmi	.L73
 439 008a 9A68     		ldr	r2, [r3, #8]
 440 008c 02F46022 		and	r2, r2, #917504
 441 0090 B2F5602F 		cmp	r2, #917504
 442 0094 10D1     		bne	.L73
 443 0096 227B     		ldrb	r2, [r4, #12]	@ zero_extendqisi2
 444 0098 72B9     		cbnz	r2, .L73
 445              	.L71:
 446 009a 5A68     		ldr	r2, [r3, #4]
 447 009c 22F08002 		bic	r2, r2, #128
 448 00a0 5A60     		str	r2, [r3, #4]
 449 00a2 A36A     		ldr	r3, [r4, #40]
 450 00a4 23F48053 		bic	r3, r3, #4096
 451 00a8 A362     		str	r3, [r4, #40]
 452 00aa A36A     		ldr	r3, [r4, #40]
 453 00ac D905     		lsls	r1, r3, #23
 454 00ae 5EBF     		ittt	pl
 455 00b0 A36A     		ldrpl	r3, [r4, #40]
 456 00b2 43F00103 		orrpl	r3, r3, #1
 457 00b6 A362     		strpl	r3, [r4, #40]
 458              	.L73:
 459 00b8 2046     		mov	r0, r4
 460 00ba FFF7FEFF 		bl	HAL_ADCEx_InjectedConvCpltCallback
 461 00be 2368     		ldr	r3, [r4]
 462 00c0 6FF00C02 		mvn	r2, #12
 463 00c4 1A60     		str	r2, [r3]
 464              	.L69:
 465 00c6 2368     		ldr	r3, [r4]
 466 00c8 5A68     		ldr	r2, [r3, #4]
 467 00ca 5206     		lsls	r2, r2, #25
 468 00cc 0DD5     		bpl	.L63
 469 00ce 1B68     		ldr	r3, [r3]
 470 00d0 DB07     		lsls	r3, r3, #31
 471 00d2 0AD5     		bpl	.L63
 472 00d4 A36A     		ldr	r3, [r4, #40]
 473 00d6 2046     		mov	r0, r4
 474 00d8 43F48033 		orr	r3, r3, #65536
 475 00dc A362     		str	r3, [r4, #40]
 476 00de FFF7FEFF 		bl	HAL_ADC_LevelOutOfWindowCallback
 477 00e2 2368     		ldr	r3, [r4]
ARM GAS  /tmp/ccmGLz0K.s 			page 9


 478 00e4 6FF00102 		mvn	r2, #1
 479 00e8 1A60     		str	r2, [r3]
 480              	.L63:
 481 00ea 10BD     		pop	{r4, pc}
 483              		.section	.text.HAL_ADC_ErrorCallback,"ax",%progbits
 484              		.align	1
 485              		.weak	HAL_ADC_ErrorCallback
 486              		.thumb
 487              		.thumb_func
 489              	HAL_ADC_ErrorCallback:
 490              		@ args = 0, pretend = 0, frame = 0
 491              		@ frame_needed = 0, uses_anonymous_args = 0
 492              		@ link register save eliminated.
 493 0000 7047     		bx	lr
 495              		.section	.text.ADC_DMAError,"ax",%progbits
 496              		.align	1
 497              		.global	ADC_DMAError
 498              		.thumb
 499              		.thumb_func
 501              	ADC_DMAError:
 502              		@ args = 0, pretend = 0, frame = 0
 503              		@ frame_needed = 0, uses_anonymous_args = 0
 504 0000 406A     		ldr	r0, [r0, #36]
 505 0002 08B5     		push	{r3, lr}
 506 0004 836A     		ldr	r3, [r0, #40]
 507 0006 43F04003 		orr	r3, r3, #64
 508 000a 8362     		str	r3, [r0, #40]
 509 000c C36A     		ldr	r3, [r0, #44]
 510 000e 43F00403 		orr	r3, r3, #4
 511 0012 C362     		str	r3, [r0, #44]
 512 0014 FFF7FEFF 		bl	HAL_ADC_ErrorCallback
 513 0018 08BD     		pop	{r3, pc}
 515              		.section	.text.HAL_ADC_ConfigChannel,"ax",%progbits
 516              		.align	1
 517              		.global	HAL_ADC_ConfigChannel
 518              		.thumb
 519              		.thumb_func
 521              	HAL_ADC_ConfigChannel:
 522              		@ args = 0, pretend = 0, frame = 8
 523              		@ frame_needed = 0, uses_anonymous_args = 0
 524 0000 73B5     		push	{r0, r1, r4, r5, r6, lr}
 525 0002 0023     		movs	r3, #0
 526 0004 0193     		str	r3, [sp, #4]
 527 0006 90F82430 		ldrb	r3, [r0, #36]	@ zero_extendqisi2
 528 000a 012B     		cmp	r3, #1
 529 000c 71D0     		beq	.L112
 530 000e 0123     		movs	r3, #1
 531 0010 80F82430 		strb	r3, [r0, #36]
 532 0014 4B68     		ldr	r3, [r1, #4]
 533 0016 0268     		ldr	r2, [r0]
 534 0018 062B     		cmp	r3, #6
 535 001a 4FEA8304 		lsl	r4, r3, #2
 536 001e 0D68     		ldr	r5, [r1]
 537 0020 0BD8     		bhi	.L101
 538 0022 2344     		add	r3, r3, r4
 539 0024 566B     		ldr	r6, [r2, #52]
 540 0026 053B     		subs	r3, r3, #5
ARM GAS  /tmp/ccmGLz0K.s 			page 10


 541 0028 1F24     		movs	r4, #31
 542 002a 9C40     		lsls	r4, r4, r3
 543 002c 26EA0404 		bic	r4, r6, r4
 544 0030 05FA03F3 		lsl	r3, r5, r3
 545 0034 2343     		orrs	r3, r3, r4
 546 0036 5363     		str	r3, [r2, #52]
 547 0038 18E0     		b	.L102
 548              	.L101:
 549 003a 0C2B     		cmp	r3, #12
 550 003c 0BD8     		bhi	.L103
 551 003e 2344     		add	r3, r3, r4
 552 0040 166B     		ldr	r6, [r2, #48]
 553 0042 233B     		subs	r3, r3, #35
 554 0044 1F24     		movs	r4, #31
 555 0046 9C40     		lsls	r4, r4, r3
 556 0048 26EA0404 		bic	r4, r6, r4
 557 004c 05FA03F3 		lsl	r3, r5, r3
 558 0050 2343     		orrs	r3, r3, r4
 559 0052 1363     		str	r3, [r2, #48]
 560 0054 0AE0     		b	.L102
 561              	.L103:
 562 0056 2344     		add	r3, r3, r4
 563 0058 D66A     		ldr	r6, [r2, #44]
 564 005a 413B     		subs	r3, r3, #65
 565 005c 1F24     		movs	r4, #31
 566 005e 9C40     		lsls	r4, r4, r3
 567 0060 26EA0404 		bic	r4, r6, r4
 568 0064 05FA03F3 		lsl	r3, r5, r3
 569 0068 2343     		orrs	r3, r3, r4
 570 006a D362     		str	r3, [r2, #44]
 571              	.L102:
 572 006c 092D     		cmp	r5, #9
 573 006e 4FEA4504 		lsl	r4, r5, #1
 574 0072 8B68     		ldr	r3, [r1, #8]
 575 0074 0AD9     		bls	.L104
 576 0076 6119     		adds	r1, r4, r5
 577 0078 D668     		ldr	r6, [r2, #12]
 578 007a 1E39     		subs	r1, r1, #30
 579 007c 0724     		movs	r4, #7
 580 007e 8C40     		lsls	r4, r4, r1
 581 0080 26EA0404 		bic	r4, r6, r4
 582 0084 8B40     		lsls	r3, r3, r1
 583 0086 2343     		orrs	r3, r3, r4
 584 0088 D360     		str	r3, [r2, #12]
 585 008a 08E0     		b	.L105
 586              	.L104:
 587 008c 6119     		adds	r1, r4, r5
 588 008e 1669     		ldr	r6, [r2, #16]
 589 0090 0724     		movs	r4, #7
 590 0092 8C40     		lsls	r4, r4, r1
 591 0094 26EA0404 		bic	r4, r6, r4
 592 0098 8B40     		lsls	r3, r3, r1
 593 009a 2343     		orrs	r3, r3, r4
 594 009c 1361     		str	r3, [r2, #16]
 595              	.L105:
 596 009e A5F11003 		sub	r3, r5, #16
 597 00a2 012B     		cmp	r3, #1
ARM GAS  /tmp/ccmGLz0K.s 			page 11


 598 00a4 01D9     		bls	.L106
 599              	.L109:
 600 00a6 0023     		movs	r3, #0
 601 00a8 1EE0     		b	.L107
 602              	.L106:
 603 00aa 134B     		ldr	r3, .L114
 604 00ac 9A42     		cmp	r2, r3
 605 00ae 16D1     		bne	.L108
 606 00b0 9368     		ldr	r3, [r2, #8]
 607 00b2 1B02     		lsls	r3, r3, #8
 608 00b4 F7D4     		bmi	.L109
 609 00b6 9368     		ldr	r3, [r2, #8]
 610 00b8 102D     		cmp	r5, #16
 611 00ba 43F40003 		orr	r3, r3, #8388608
 612 00be 9360     		str	r3, [r2, #8]
 613 00c0 F1D1     		bne	.L109
 614 00c2 0E4B     		ldr	r3, .L114+4
 615 00c4 0E4A     		ldr	r2, .L114+8
 616 00c6 1B68     		ldr	r3, [r3]
 617 00c8 B3FBF2F2 		udiv	r2, r3, r2
 618 00cc 0A23     		movs	r3, #10
 619 00ce 5343     		muls	r3, r2, r3
 620              	.L113:
 621 00d0 0193     		str	r3, [sp, #4]
 622 00d2 019B     		ldr	r3, [sp, #4]
 623 00d4 002B     		cmp	r3, #0
 624 00d6 E6D0     		beq	.L109
 625 00d8 019B     		ldr	r3, [sp, #4]
 626 00da 013B     		subs	r3, r3, #1
 627 00dc F8E7     		b	.L113
 628              	.L108:
 629 00de 836A     		ldr	r3, [r0, #40]
 630 00e0 43F02003 		orr	r3, r3, #32
 631 00e4 8362     		str	r3, [r0, #40]
 632 00e6 0123     		movs	r3, #1
 633              	.L107:
 634 00e8 0022     		movs	r2, #0
 635 00ea 80F82420 		strb	r2, [r0, #36]
 636 00ee 1846     		mov	r0, r3
 637 00f0 00E0     		b	.L100
 638              	.L112:
 639 00f2 0220     		movs	r0, #2
 640              	.L100:
 641 00f4 02B0     		add	sp, sp, #8
 642              		@ sp needed
 643 00f6 70BD     		pop	{r4, r5, r6, pc}
 644              	.L115:
 645              		.align	2
 646              	.L114:
 647 00f8 00240140 		.word	1073816576
 648 00fc 00000000 		.word	SystemCoreClock
 649 0100 40420F00 		.word	1000000
 651              		.section	.text.HAL_ADC_AnalogWDGConfig,"ax",%progbits
 652              		.align	1
 653              		.global	HAL_ADC_AnalogWDGConfig
 654              		.thumb
 655              		.thumb_func
ARM GAS  /tmp/ccmGLz0K.s 			page 12


 657              	HAL_ADC_AnalogWDGConfig:
 658              		@ args = 0, pretend = 0, frame = 0
 659              		@ frame_needed = 0, uses_anonymous_args = 0
 660 0000 90F82430 		ldrb	r3, [r0, #36]	@ zero_extendqisi2
 661 0004 30B5     		push	{r4, r5, lr}
 662 0006 012B     		cmp	r3, #1
 663 0008 0C68     		ldr	r4, [r1]
 664 000a 1CD0     		beq	.L120
 665 000c 0123     		movs	r3, #1
 666 000e 80F82430 		strb	r3, [r0, #36]
 667 0012 0B7A     		ldrb	r3, [r1, #8]	@ zero_extendqisi2
 668 0014 012B     		cmp	r3, #1
 669 0016 0368     		ldr	r3, [r0]
 670 0018 5D68     		ldr	r5, [r3, #4]
 671 001a 0CBF     		ite	eq
 672 001c 45F04005 		orreq	r5, r5, #64
 673 0020 25F04005 		bicne	r5, r5, #64
 674 0024 5D60     		str	r5, [r3, #4]
 675 0026 4A68     		ldr	r2, [r1, #4]
 676 0028 5D68     		ldr	r5, [r3, #4]
 677 002a 1443     		orrs	r4, r4, r2
 678 002c 074A     		ldr	r2, .L122
 679 002e 2A40     		ands	r2, r2, r5
 680 0030 2243     		orrs	r2, r2, r4
 681 0032 5A60     		str	r2, [r3, #4]
 682 0034 CA68     		ldr	r2, [r1, #12]
 683 0036 5A62     		str	r2, [r3, #36]
 684 0038 0A69     		ldr	r2, [r1, #16]
 685 003a 9A62     		str	r2, [r3, #40]
 686 003c 0023     		movs	r3, #0
 687 003e 80F82430 		strb	r3, [r0, #36]
 688 0042 1846     		mov	r0, r3
 689 0044 30BD     		pop	{r4, r5, pc}
 690              	.L120:
 691 0046 0220     		movs	r0, #2
 692 0048 30BD     		pop	{r4, r5, pc}
 693              	.L123:
 694 004a 00BF     		.align	2
 695              	.L122:
 696 004c E0FD3FFF 		.word	-12583456
 698              		.section	.text.HAL_ADC_GetState,"ax",%progbits
 699              		.align	1
 700              		.global	HAL_ADC_GetState
 701              		.thumb
 702              		.thumb_func
 704              	HAL_ADC_GetState:
 705              		@ args = 0, pretend = 0, frame = 0
 706              		@ frame_needed = 0, uses_anonymous_args = 0
 707              		@ link register save eliminated.
 708 0000 806A     		ldr	r0, [r0, #40]
 709 0002 7047     		bx	lr
 711              		.section	.text.HAL_ADC_GetError,"ax",%progbits
 712              		.align	1
 713              		.global	HAL_ADC_GetError
 714              		.thumb
 715              		.thumb_func
 717              	HAL_ADC_GetError:
ARM GAS  /tmp/ccmGLz0K.s 			page 13


 718              		@ args = 0, pretend = 0, frame = 0
 719              		@ frame_needed = 0, uses_anonymous_args = 0
 720              		@ link register save eliminated.
 721 0000 C06A     		ldr	r0, [r0, #44]
 722 0002 7047     		bx	lr
 724              		.section	.text.ADC_Enable,"ax",%progbits
 725              		.align	1
 726              		.global	ADC_Enable
 727              		.thumb
 728              		.thumb_func
 730              	ADC_Enable:
 731              		@ args = 0, pretend = 0, frame = 8
 732              		@ frame_needed = 0, uses_anonymous_args = 0
 733 0000 73B5     		push	{r0, r1, r4, r5, r6, lr}
 734 0002 0023     		movs	r3, #0
 735 0004 0193     		str	r3, [sp, #4]
 736 0006 0368     		ldr	r3, [r0]
 737 0008 0446     		mov	r4, r0
 738 000a 9A68     		ldr	r2, [r3, #8]
 739 000c D207     		lsls	r2, r2, #31
 740 000e 01D5     		bpl	.L127
 741              	.L133:
 742 0010 0020     		movs	r0, #0
 743 0012 26E0     		b	.L128
 744              	.L127:
 745 0014 9A68     		ldr	r2, [r3, #8]
 746 0016 42F00102 		orr	r2, r2, #1
 747 001a 9A60     		str	r2, [r3, #8]
 748 001c 124B     		ldr	r3, .L137
 749 001e 134A     		ldr	r2, .L137+4
 750 0020 1B68     		ldr	r3, [r3]
 751 0022 B3FBF2F3 		udiv	r3, r3, r2
 752              	.L135:
 753 0026 0193     		str	r3, [sp, #4]
 754 0028 019B     		ldr	r3, [sp, #4]
 755 002a 13B1     		cbz	r3, .L136
 756 002c 019B     		ldr	r3, [sp, #4]
 757 002e 013B     		subs	r3, r3, #1
 758 0030 F9E7     		b	.L135
 759              	.L136:
 760 0032 FFF7FEFF 		bl	HAL_GetTick
 761 0036 0646     		mov	r6, r0
 762              	.L131:
 763 0038 2368     		ldr	r3, [r4]
 764 003a 9B68     		ldr	r3, [r3, #8]
 765 003c 13F00105 		ands	r5, r3, #1
 766 0040 E6D1     		bne	.L133
 767 0042 FFF7FEFF 		bl	HAL_GetTick
 768 0046 801B     		subs	r0, r0, r6
 769 0048 0228     		cmp	r0, #2
 770 004a F5D9     		bls	.L131
 771 004c A36A     		ldr	r3, [r4, #40]
 772 004e 84F82450 		strb	r5, [r4, #36]
 773 0052 43F01003 		orr	r3, r3, #16
 774 0056 A362     		str	r3, [r4, #40]
 775 0058 E36A     		ldr	r3, [r4, #44]
 776 005a 0120     		movs	r0, #1
ARM GAS  /tmp/ccmGLz0K.s 			page 14


 777 005c 43F00103 		orr	r3, r3, #1
 778 0060 E362     		str	r3, [r4, #44]
 779              	.L128:
 780 0062 02B0     		add	sp, sp, #8
 781              		@ sp needed
 782 0064 70BD     		pop	{r4, r5, r6, pc}
 783              	.L138:
 784 0066 00BF     		.align	2
 785              	.L137:
 786 0068 00000000 		.word	SystemCoreClock
 787 006c 40420F00 		.word	1000000
 789              		.section	.text.HAL_ADC_Start,"ax",%progbits
 790              		.align	1
 791              		.global	HAL_ADC_Start
 792              		.thumb
 793              		.thumb_func
 795              	HAL_ADC_Start:
 796              		@ args = 0, pretend = 0, frame = 0
 797              		@ frame_needed = 0, uses_anonymous_args = 0
 798 0000 90F82430 		ldrb	r3, [r0, #36]	@ zero_extendqisi2
 799 0004 10B5     		push	{r4, lr}
 800 0006 012B     		cmp	r3, #1
 801 0008 0446     		mov	r4, r0
 802 000a 3BD0     		beq	.L146
 803 000c 0123     		movs	r3, #1
 804 000e 80F82430 		strb	r3, [r0, #36]
 805 0012 FFF7FEFF 		bl	ADC_Enable
 806 0016 0028     		cmp	r0, #0
 807 0018 30D1     		bne	.L141
 808 001a A36A     		ldr	r3, [r4, #40]
 809 001c 0020     		movs	r0, #0
 810 001e 23F44073 		bic	r3, r3, #768
 811 0022 23F00103 		bic	r3, r3, #1
 812 0026 43F48073 		orr	r3, r3, #256
 813 002a A362     		str	r3, [r4, #40]
 814 002c A36A     		ldr	r3, [r4, #40]
 815 002e 23F48013 		bic	r3, r3, #1048576
 816 0032 A362     		str	r3, [r4, #40]
 817 0034 2368     		ldr	r3, [r4]
 818 0036 5A68     		ldr	r2, [r3, #4]
 819 0038 84F82400 		strb	r0, [r4, #36]
 820 003c 5205     		lsls	r2, r2, #21
 821 003e 41BF     		itttt	mi
 822 0040 A26A     		ldrmi	r2, [r4, #40]
 823 0042 22F44052 		bicmi	r2, r2, #12288
 824 0046 42F48052 		orrmi	r2, r2, #4096
 825 004a A262     		strmi	r2, [r4, #40]
 826 004c A26A     		ldr	r2, [r4, #40]
 827 004e 12F48052 		ands	r2, r2, #4096
 828 0052 1CBF     		itt	ne
 829 0054 E26A     		ldrne	r2, [r4, #44]
 830 0056 22F00602 		bicne	r2, r2, #6
 831 005a E262     		str	r2, [r4, #44]
 832 005c 6FF00202 		mvn	r2, #2
 833 0060 1A60     		str	r2, [r3]
 834 0062 9A68     		ldr	r2, [r3, #8]
 835 0064 02F46022 		and	r2, r2, #917504
ARM GAS  /tmp/ccmGLz0K.s 			page 15


 836 0068 B2F5602F 		cmp	r2, #917504
 837 006c 9A68     		ldr	r2, [r3, #8]
 838 006e 0CBF     		ite	eq
 839 0070 42F4A002 		orreq	r2, r2, #5242880
 840 0074 42F48012 		orrne	r2, r2, #1048576
 841 0078 9A60     		str	r2, [r3, #8]
 842 007a 10BD     		pop	{r4, pc}
 843              	.L141:
 844 007c 0023     		movs	r3, #0
 845 007e 84F82430 		strb	r3, [r4, #36]
 846 0082 10BD     		pop	{r4, pc}
 847              	.L146:
 848 0084 0220     		movs	r0, #2
 849 0086 10BD     		pop	{r4, pc}
 851              		.section	.text.HAL_ADC_Start_IT,"ax",%progbits
 852              		.align	1
 853              		.global	HAL_ADC_Start_IT
 854              		.thumb
 855              		.thumb_func
 857              	HAL_ADC_Start_IT:
 858              		@ args = 0, pretend = 0, frame = 0
 859              		@ frame_needed = 0, uses_anonymous_args = 0
 860 0000 90F82430 		ldrb	r3, [r0, #36]	@ zero_extendqisi2
 861 0004 10B5     		push	{r4, lr}
 862 0006 012B     		cmp	r3, #1
 863 0008 0446     		mov	r4, r0
 864 000a 3FD0     		beq	.L158
 865 000c 0123     		movs	r3, #1
 866 000e 80F82430 		strb	r3, [r0, #36]
 867 0012 FFF7FEFF 		bl	ADC_Enable
 868 0016 0028     		cmp	r0, #0
 869 0018 34D1     		bne	.L153
 870 001a A36A     		ldr	r3, [r4, #40]
 871 001c 0020     		movs	r0, #0
 872 001e 23F47063 		bic	r3, r3, #3840
 873 0022 23F00103 		bic	r3, r3, #1
 874 0026 43F48073 		orr	r3, r3, #256
 875 002a A362     		str	r3, [r4, #40]
 876 002c A36A     		ldr	r3, [r4, #40]
 877 002e 23F48013 		bic	r3, r3, #1048576
 878 0032 A362     		str	r3, [r4, #40]
 879 0034 2368     		ldr	r3, [r4]
 880 0036 5A68     		ldr	r2, [r3, #4]
 881 0038 84F82400 		strb	r0, [r4, #36]
 882 003c 5205     		lsls	r2, r2, #21
 883 003e 41BF     		itttt	mi
 884 0040 A26A     		ldrmi	r2, [r4, #40]
 885 0042 22F44052 		bicmi	r2, r2, #12288
 886 0046 42F48052 		orrmi	r2, r2, #4096
 887 004a A262     		strmi	r2, [r4, #40]
 888 004c A26A     		ldr	r2, [r4, #40]
 889 004e 12F48052 		ands	r2, r2, #4096
 890 0052 1CBF     		itt	ne
 891 0054 E26A     		ldrne	r2, [r4, #44]
 892 0056 22F00602 		bicne	r2, r2, #6
 893 005a E262     		str	r2, [r4, #44]
 894 005c 6FF00202 		mvn	r2, #2
ARM GAS  /tmp/ccmGLz0K.s 			page 16


 895 0060 1A60     		str	r2, [r3]
 896 0062 5A68     		ldr	r2, [r3, #4]
 897 0064 42F02002 		orr	r2, r2, #32
 898 0068 5A60     		str	r2, [r3, #4]
 899 006a 9A68     		ldr	r2, [r3, #8]
 900 006c 02F46022 		and	r2, r2, #917504
 901 0070 B2F5602F 		cmp	r2, #917504
 902 0074 9A68     		ldr	r2, [r3, #8]
 903 0076 0CBF     		ite	eq
 904 0078 42F4A002 		orreq	r2, r2, #5242880
 905 007c 42F48012 		orrne	r2, r2, #1048576
 906 0080 9A60     		str	r2, [r3, #8]
 907 0082 10BD     		pop	{r4, pc}
 908              	.L153:
 909 0084 0023     		movs	r3, #0
 910 0086 84F82430 		strb	r3, [r4, #36]
 911 008a 10BD     		pop	{r4, pc}
 912              	.L158:
 913 008c 0220     		movs	r0, #2
 914 008e 10BD     		pop	{r4, pc}
 916              		.section	.text.HAL_ADC_Start_DMA,"ax",%progbits
 917              		.align	1
 918              		.global	HAL_ADC_Start_DMA
 919              		.thumb
 920              		.thumb_func
 922              	HAL_ADC_Start_DMA:
 923              		@ args = 0, pretend = 0, frame = 0
 924              		@ frame_needed = 0, uses_anonymous_args = 0
 925 0000 F8B5     		push	{r3, r4, r5, r6, r7, lr}
 926 0002 90F82430 		ldrb	r3, [r0, #36]	@ zero_extendqisi2
 927 0006 0446     		mov	r4, r0
 928 0008 012B     		cmp	r3, #1
 929 000a 0F46     		mov	r7, r1
 930 000c 1646     		mov	r6, r2
 931 000e 53D0     		beq	.L170
 932 0010 0123     		movs	r3, #1
 933 0012 80F82430 		strb	r3, [r0, #36]
 934 0016 FFF7FEFF 		bl	ADC_Enable
 935 001a 0028     		cmp	r0, #0
 936 001c 48D1     		bne	.L165
 937 001e A26A     		ldr	r2, [r4, #40]
 938 0020 2168     		ldr	r1, [r4]
 939 0022 22F47062 		bic	r2, r2, #3840
 940 0026 22F00102 		bic	r2, r2, #1
 941 002a 42F48072 		orr	r2, r2, #256
 942 002e A262     		str	r2, [r4, #40]
 943 0030 A36A     		ldr	r3, [r4, #40]
 944 0032 206A     		ldr	r0, [r4, #32]
 945 0034 23F48013 		bic	r3, r3, #1048576
 946 0038 A362     		str	r3, [r4, #40]
 947 003a 4B68     		ldr	r3, [r1, #4]
 948 003c 0025     		movs	r5, #0
 949 003e 5B05     		lsls	r3, r3, #21
 950 0040 48BF     		it	mi
 951 0042 A26A     		ldrmi	r2, [r4, #40]
 952 0044 84F82450 		strb	r5, [r4, #36]
 953 0048 42BF     		ittt	mi
ARM GAS  /tmp/ccmGLz0K.s 			page 17


 954 004a 22F44052 		bicmi	r2, r2, #12288
 955 004e 42F48052 		orrmi	r2, r2, #4096
 956 0052 A262     		strmi	r2, [r4, #40]
 957 0054 A36A     		ldr	r3, [r4, #40]
 958 0056 3A46     		mov	r2, r7
 959 0058 13F48053 		ands	r3, r3, #4096
 960 005c 18BF     		it	ne
 961 005e E36A     		ldrne	r3, [r4, #44]
 962 0060 01F14C01 		add	r1, r1, #76
 963 0064 18BF     		it	ne
 964 0066 23F00603 		bicne	r3, r3, #6
 965 006a E362     		str	r3, [r4, #44]
 966 006c 134B     		ldr	r3, .L175
 967 006e 8362     		str	r3, [r0, #40]
 968 0070 134B     		ldr	r3, .L175+4
 969 0072 C362     		str	r3, [r0, #44]
 970 0074 134B     		ldr	r3, .L175+8
 971 0076 0363     		str	r3, [r0, #48]
 972 0078 6FF00203 		mvn	r3, #2
 973 007c 41F84C3C 		str	r3, [r1, #-76]
 974 0080 51F8443C 		ldr	r3, [r1, #-68]
 975 0084 43F48073 		orr	r3, r3, #256
 976 0088 41F8443C 		str	r3, [r1, #-68]
 977 008c 3346     		mov	r3, r6
 978 008e FFF7FEFF 		bl	HAL_DMA_Start_IT
 979 0092 2368     		ldr	r3, [r4]
 980 0094 2846     		mov	r0, r5
 981 0096 9A68     		ldr	r2, [r3, #8]
 982 0098 02F46022 		and	r2, r2, #917504
 983 009c B2F5602F 		cmp	r2, #917504
 984 00a0 9A68     		ldr	r2, [r3, #8]
 985 00a2 0CBF     		ite	eq
 986 00a4 42F4A002 		orreq	r2, r2, #5242880
 987 00a8 42F48012 		orrne	r2, r2, #1048576
 988 00ac 9A60     		str	r2, [r3, #8]
 989 00ae F8BD     		pop	{r3, r4, r5, r6, r7, pc}
 990              	.L165:
 991 00b0 0023     		movs	r3, #0
 992 00b2 84F82430 		strb	r3, [r4, #36]
 993 00b6 F8BD     		pop	{r3, r4, r5, r6, r7, pc}
 994              	.L170:
 995 00b8 0220     		movs	r0, #2
 996 00ba F8BD     		pop	{r3, r4, r5, r6, r7, pc}
 997              	.L176:
 998              		.align	2
 999              	.L175:
 1000 00bc 00000000 		.word	ADC_DMAConvCplt
 1001 00c0 00000000 		.word	ADC_DMAHalfConvCplt
 1002 00c4 00000000 		.word	ADC_DMAError
 1004              		.section	.text.ADC_ConversionStop_Disable,"ax",%progbits
 1005              		.align	1
 1006              		.global	ADC_ConversionStop_Disable
 1007              		.thumb
 1008              		.thumb_func
 1010              	ADC_ConversionStop_Disable:
 1011              		@ args = 0, pretend = 0, frame = 0
 1012              		@ frame_needed = 0, uses_anonymous_args = 0
ARM GAS  /tmp/ccmGLz0K.s 			page 18


 1013 0000 38B5     		push	{r3, r4, r5, lr}
 1014 0002 0368     		ldr	r3, [r0]
 1015 0004 0446     		mov	r4, r0
 1016 0006 9A68     		ldr	r2, [r3, #8]
 1017 0008 D207     		lsls	r2, r2, #31
 1018 000a 01D4     		bmi	.L178
 1019              	.L182:
 1020 000c 0020     		movs	r0, #0
 1021 000e 38BD     		pop	{r3, r4, r5, pc}
 1022              	.L178:
 1023 0010 9A68     		ldr	r2, [r3, #8]
 1024 0012 22F00102 		bic	r2, r2, #1
 1025 0016 9A60     		str	r2, [r3, #8]
 1026 0018 FFF7FEFF 		bl	HAL_GetTick
 1027 001c 0546     		mov	r5, r0
 1028              	.L180:
 1029 001e 2368     		ldr	r3, [r4]
 1030 0020 9B68     		ldr	r3, [r3, #8]
 1031 0022 DB07     		lsls	r3, r3, #31
 1032 0024 F2D5     		bpl	.L182
 1033 0026 FFF7FEFF 		bl	HAL_GetTick
 1034 002a 401B     		subs	r0, r0, r5
 1035 002c 0228     		cmp	r0, #2
 1036 002e F6D9     		bls	.L180
 1037 0030 A36A     		ldr	r3, [r4, #40]
 1038 0032 0120     		movs	r0, #1
 1039 0034 43F01003 		orr	r3, r3, #16
 1040 0038 A362     		str	r3, [r4, #40]
 1041 003a E36A     		ldr	r3, [r4, #44]
 1042 003c 43F00103 		orr	r3, r3, #1
 1043 0040 E362     		str	r3, [r4, #44]
 1044 0042 38BD     		pop	{r3, r4, r5, pc}
 1046              		.section	.text.HAL_ADC_Init,"ax",%progbits
 1047              		.align	1
 1048              		.global	HAL_ADC_Init
 1049              		.thumb
 1050              		.thumb_func
 1052              	HAL_ADC_Init:
 1053              		@ args = 0, pretend = 0, frame = 0
 1054              		@ frame_needed = 0, uses_anonymous_args = 0
 1055 0000 38B5     		push	{r3, r4, r5, lr}
 1056 0002 0446     		mov	r4, r0
 1057 0004 0028     		cmp	r0, #0
 1058 0006 74D0     		beq	.L194
 1059 0008 836A     		ldr	r3, [r0, #40]
 1060 000a 23B9     		cbnz	r3, .L186
 1061 000c C362     		str	r3, [r0, #44]
 1062 000e 80F82430 		strb	r3, [r0, #36]
 1063 0012 FFF7FEFF 		bl	HAL_ADC_MspInit
 1064              	.L186:
 1065 0016 2046     		mov	r0, r4
 1066 0018 FFF7FEFF 		bl	ADC_ConversionStop_Disable
 1067 001c A36A     		ldr	r3, [r4, #40]
 1068 001e 13F0100F 		tst	r3, #16
 1069 0022 A36A     		ldr	r3, [r4, #40]
 1070 0024 62D1     		bne	.L187
 1071 0026 0028     		cmp	r0, #0
ARM GAS  /tmp/ccmGLz0K.s 			page 19


 1072 0028 60D1     		bne	.L187
 1073 002a 23F48853 		bic	r3, r3, #4352
 1074 002e 23F00203 		bic	r3, r3, #2
 1075 0032 43F00203 		orr	r3, r3, #2
 1076 0036 A362     		str	r3, [r4, #40]
 1077 0038 E269     		ldr	r2, [r4, #28]
 1078 003a 6368     		ldr	r3, [r4, #4]
 1079 003c A168     		ldr	r1, [r4, #8]
 1080 003e 257B     		ldrb	r5, [r4, #12]	@ zero_extendqisi2
 1081 0040 1A43     		orrs	r2, r2, r3
 1082 0042 B1F5807F 		cmp	r1, #256
 1083 0046 42EA4502 		orr	r2, r2, r5, lsl #1
 1084 004a 05D0     		beq	.L195
 1085 004c 0129     		cmp	r1, #1
 1086 004e 0CBF     		ite	eq
 1087 0050 4FF48070 		moveq	r0, #256
 1088 0054 0020     		movne	r0, #0
 1089 0056 00E0     		b	.L188
 1090              	.L195:
 1091 0058 0846     		mov	r0, r1
 1092              	.L188:
 1093 005a 237D     		ldrb	r3, [r4, #20]	@ zero_extendqisi2
 1094 005c 012B     		cmp	r3, #1
 1095 005e 0FD1     		bne	.L189
 1096 0060 35B9     		cbnz	r5, .L190
 1097 0062 A369     		ldr	r3, [r4, #24]
 1098 0064 013B     		subs	r3, r3, #1
 1099 0066 40EA4330 		orr	r0, r0, r3, lsl #13
 1100 006a 40F40060 		orr	r0, r0, #2048
 1101 006e 07E0     		b	.L189
 1102              	.L190:
 1103 0070 A36A     		ldr	r3, [r4, #40]
 1104 0072 43F02003 		orr	r3, r3, #32
 1105 0076 A362     		str	r3, [r4, #40]
 1106 0078 E36A     		ldr	r3, [r4, #44]
 1107 007a 43F00103 		orr	r3, r3, #1
 1108 007e E362     		str	r3, [r4, #44]
 1109              	.L189:
 1110 0080 2368     		ldr	r3, [r4]
 1111 0082 B1F5807F 		cmp	r1, #256
 1112 0086 5D68     		ldr	r5, [r3, #4]
 1113 0088 25F46945 		bic	r5, r5, #59648
 1114 008c 40EA0500 		orr	r0, r0, r5
 1115 0090 5860     		str	r0, [r3, #4]
 1116 0092 9D68     		ldr	r5, [r3, #8]
 1117 0094 1848     		ldr	r0, .L201
 1118 0096 00EA0500 		and	r0, r0, r5
 1119 009a 40EA0200 		orr	r0, r0, r2
 1120 009e 9860     		str	r0, [r3, #8]
 1121 00a0 01D0     		beq	.L191
 1122 00a2 0129     		cmp	r1, #1
 1123 00a4 03D1     		bne	.L197
 1124              	.L191:
 1125 00a6 2169     		ldr	r1, [r4, #16]
 1126 00a8 0139     		subs	r1, r1, #1
 1127 00aa 0905     		lsls	r1, r1, #20
 1128 00ac 00E0     		b	.L192
ARM GAS  /tmp/ccmGLz0K.s 			page 20


 1129              	.L197:
 1130 00ae 0021     		movs	r1, #0
 1131              	.L192:
 1132 00b0 D86A     		ldr	r0, [r3, #44]
 1133 00b2 20F47000 		bic	r0, r0, #15728640
 1134 00b6 0143     		orrs	r1, r1, r0
 1135 00b8 D962     		str	r1, [r3, #44]
 1136 00ba 9968     		ldr	r1, [r3, #8]
 1137 00bc 0F4B     		ldr	r3, .L201+4
 1138 00be 0B40     		ands	r3, r3, r1
 1139 00c0 9342     		cmp	r3, r2
 1140 00c2 08D1     		bne	.L193
 1141 00c4 0020     		movs	r0, #0
 1142 00c6 E062     		str	r0, [r4, #44]
 1143 00c8 A36A     		ldr	r3, [r4, #40]
 1144 00ca 23F00303 		bic	r3, r3, #3
 1145 00ce 43F00103 		orr	r3, r3, #1
 1146 00d2 A362     		str	r3, [r4, #40]
 1147 00d4 38BD     		pop	{r3, r4, r5, pc}
 1148              	.L193:
 1149 00d6 A36A     		ldr	r3, [r4, #40]
 1150 00d8 23F01203 		bic	r3, r3, #18
 1151 00dc 43F01003 		orr	r3, r3, #16
 1152 00e0 A362     		str	r3, [r4, #40]
 1153 00e2 E36A     		ldr	r3, [r4, #44]
 1154 00e4 43F00103 		orr	r3, r3, #1
 1155 00e8 E362     		str	r3, [r4, #44]
 1156 00ea 02E0     		b	.L194
 1157              	.L187:
 1158 00ec 43F01003 		orr	r3, r3, #16
 1159 00f0 A362     		str	r3, [r4, #40]
 1160              	.L194:
 1161 00f2 0120     		movs	r0, #1
 1162 00f4 38BD     		pop	{r3, r4, r5, pc}
 1163              	.L202:
 1164 00f6 00BF     		.align	2
 1165              	.L201:
 1166 00f8 FDF7E1FF 		.word	-1968131
 1167 00fc FE0E1FFF 		.word	-14741762
 1169              		.section	.text.HAL_ADC_DeInit,"ax",%progbits
 1170              		.align	1
 1171              		.global	HAL_ADC_DeInit
 1172              		.thumb
 1173              		.thumb_func
 1175              	HAL_ADC_DeInit:
 1176              		@ args = 0, pretend = 0, frame = 0
 1177              		@ frame_needed = 0, uses_anonymous_args = 0
 1178 0000 38B5     		push	{r3, r4, r5, lr}
 1179 0002 0546     		mov	r5, r0
 1180 0004 0028     		cmp	r0, #0
 1181 0006 62D0     		beq	.L206
 1182 0008 836A     		ldr	r3, [r0, #40]
 1183 000a 43F00203 		orr	r3, r3, #2
 1184 000e 8362     		str	r3, [r0, #40]
 1185 0010 FFF7FEFF 		bl	ADC_ConversionStop_Disable
 1186 0014 0446     		mov	r4, r0
 1187 0016 0028     		cmp	r0, #0
ARM GAS  /tmp/ccmGLz0K.s 			page 21


 1188 0018 54D1     		bne	.L205
 1189 001a 2B68     		ldr	r3, [r5]
 1190 001c 6FF01F02 		mvn	r2, #31
 1191 0020 1A60     		str	r2, [r3]
 1192 0022 5968     		ldr	r1, [r3, #4]
 1193 0024 2B4A     		ldr	r2, .L207
 1194 0026 2846     		mov	r0, r5
 1195 0028 0A40     		ands	r2, r2, r1
 1196 002a 5A60     		str	r2, [r3, #4]
 1197 002c 9968     		ldr	r1, [r3, #8]
 1198 002e 2A4A     		ldr	r2, .L207+4
 1199 0030 0A40     		ands	r2, r2, r1
 1200 0032 9A60     		str	r2, [r3, #8]
 1201 0034 DA68     		ldr	r2, [r3, #12]
 1202 0036 02F07F42 		and	r2, r2, #-16777216
 1203 003a DA60     		str	r2, [r3, #12]
 1204 003c 1A69     		ldr	r2, [r3, #16]
 1205 003e 02F04042 		and	r2, r2, #-1073741824
 1206 0042 1A61     		str	r2, [r3, #16]
 1207 0044 5A69     		ldr	r2, [r3, #20]
 1208 0046 22F47F62 		bic	r2, r2, #4080
 1209 004a 22F00F02 		bic	r2, r2, #15
 1210 004e 5A61     		str	r2, [r3, #20]
 1211 0050 9A69     		ldr	r2, [r3, #24]
 1212 0052 22F47F62 		bic	r2, r2, #4080
 1213 0056 22F00F02 		bic	r2, r2, #15
 1214 005a 9A61     		str	r2, [r3, #24]
 1215 005c DA69     		ldr	r2, [r3, #28]
 1216 005e 22F47F62 		bic	r2, r2, #4080
 1217 0062 22F00F02 		bic	r2, r2, #15
 1218 0066 DA61     		str	r2, [r3, #28]
 1219 0068 1A6A     		ldr	r2, [r3, #32]
 1220 006a 22F47F62 		bic	r2, r2, #4080
 1221 006e 22F00F02 		bic	r2, r2, #15
 1222 0072 1A62     		str	r2, [r3, #32]
 1223 0074 5A6A     		ldr	r2, [r3, #36]
 1224 0076 22F47F62 		bic	r2, r2, #4080
 1225 007a 22F00F02 		bic	r2, r2, #15
 1226 007e 5A62     		str	r2, [r3, #36]
 1227 0080 9A6A     		ldr	r2, [r3, #40]
 1228 0082 22F47F62 		bic	r2, r2, #4080
 1229 0086 22F00F02 		bic	r2, r2, #15
 1230 008a 9A62     		str	r2, [r3, #40]
 1231 008c DA6A     		ldr	r2, [r3, #44]
 1232 008e 02F07F42 		and	r2, r2, #-16777216
 1233 0092 DA62     		str	r2, [r3, #44]
 1234 0094 DA6A     		ldr	r2, [r3, #44]
 1235 0096 02F07F42 		and	r2, r2, #-16777216
 1236 009a DA62     		str	r2, [r3, #44]
 1237 009c 1A6B     		ldr	r2, [r3, #48]
 1238 009e 02F04042 		and	r2, r2, #-1073741824
 1239 00a2 1A63     		str	r2, [r3, #48]
 1240 00a4 5A6B     		ldr	r2, [r3, #52]
 1241 00a6 02F04042 		and	r2, r2, #-1073741824
 1242 00aa 5A63     		str	r2, [r3, #52]
 1243 00ac 9A6B     		ldr	r2, [r3, #56]
 1244 00ae 920D     		lsrs	r2, r2, #22
ARM GAS  /tmp/ccmGLz0K.s 			page 22


 1245 00b0 9205     		lsls	r2, r2, #22
 1246 00b2 9A63     		str	r2, [r3, #56]
 1247 00b4 9A6B     		ldr	r2, [r3, #56]
 1248 00b6 920D     		lsrs	r2, r2, #22
 1249 00b8 9205     		lsls	r2, r2, #22
 1250 00ba 9A63     		str	r2, [r3, #56]
 1251 00bc FFF7FEFF 		bl	HAL_ADC_MspDeInit
 1252 00c0 EC62     		str	r4, [r5, #44]
 1253 00c2 AC62     		str	r4, [r5, #40]
 1254              	.L205:
 1255 00c4 0023     		movs	r3, #0
 1256 00c6 85F82430 		strb	r3, [r5, #36]
 1257 00ca 2046     		mov	r0, r4
 1258 00cc 38BD     		pop	{r3, r4, r5, pc}
 1259              	.L206:
 1260 00ce 0120     		movs	r0, #1
 1261 00d0 38BD     		pop	{r3, r4, r5, pc}
 1262              	.L208:
 1263 00d2 00BF     		.align	2
 1264              	.L207:
 1265 00d4 00003FFF 		.word	-12648448
 1266 00d8 F00601FF 		.word	-16709904
 1268              		.section	.text.HAL_ADC_Stop,"ax",%progbits
 1269              		.align	1
 1270              		.global	HAL_ADC_Stop
 1271              		.thumb
 1272              		.thumb_func
 1274              	HAL_ADC_Stop:
 1275              		@ args = 0, pretend = 0, frame = 0
 1276              		@ frame_needed = 0, uses_anonymous_args = 0
 1277 0000 90F82430 		ldrb	r3, [r0, #36]	@ zero_extendqisi2
 1278 0004 10B5     		push	{r4, lr}
 1279 0006 012B     		cmp	r3, #1
 1280 0008 0446     		mov	r4, r0
 1281 000a 11D0     		beq	.L212
 1282 000c 0123     		movs	r3, #1
 1283 000e 80F82430 		strb	r3, [r0, #36]
 1284 0012 FFF7FEFF 		bl	ADC_ConversionStop_Disable
 1285 0016 38B9     		cbnz	r0, .L211
 1286 0018 A36A     		ldr	r3, [r4, #40]
 1287 001a 23F48853 		bic	r3, r3, #4352
 1288 001e 23F00103 		bic	r3, r3, #1
 1289 0022 43F00103 		orr	r3, r3, #1
 1290 0026 A362     		str	r3, [r4, #40]
 1291              	.L211:
 1292 0028 0023     		movs	r3, #0
 1293 002a 84F82430 		strb	r3, [r4, #36]
 1294 002e 10BD     		pop	{r4, pc}
 1295              	.L212:
 1296 0030 0220     		movs	r0, #2
 1297 0032 10BD     		pop	{r4, pc}
 1299              		.section	.text.HAL_ADC_Stop_IT,"ax",%progbits
 1300              		.align	1
 1301              		.global	HAL_ADC_Stop_IT
 1302              		.thumb
 1303              		.thumb_func
 1305              	HAL_ADC_Stop_IT:
ARM GAS  /tmp/ccmGLz0K.s 			page 23


 1306              		@ args = 0, pretend = 0, frame = 0
 1307              		@ frame_needed = 0, uses_anonymous_args = 0
 1308 0000 90F82430 		ldrb	r3, [r0, #36]	@ zero_extendqisi2
 1309 0004 10B5     		push	{r4, lr}
 1310 0006 012B     		cmp	r3, #1
 1311 0008 0446     		mov	r4, r0
 1312 000a 16D0     		beq	.L216
 1313 000c 0123     		movs	r3, #1
 1314 000e 80F82430 		strb	r3, [r0, #36]
 1315 0012 FFF7FEFF 		bl	ADC_ConversionStop_Disable
 1316 0016 60B9     		cbnz	r0, .L215
 1317 0018 2268     		ldr	r2, [r4]
 1318 001a 5368     		ldr	r3, [r2, #4]
 1319 001c 23F02003 		bic	r3, r3, #32
 1320 0020 5360     		str	r3, [r2, #4]
 1321 0022 A36A     		ldr	r3, [r4, #40]
 1322 0024 23F48853 		bic	r3, r3, #4352
 1323 0028 23F00103 		bic	r3, r3, #1
 1324 002c 43F00103 		orr	r3, r3, #1
 1325 0030 A362     		str	r3, [r4, #40]
 1326              	.L215:
 1327 0032 0023     		movs	r3, #0
 1328 0034 84F82430 		strb	r3, [r4, #36]
 1329 0038 10BD     		pop	{r4, pc}
 1330              	.L216:
 1331 003a 0220     		movs	r0, #2
 1332 003c 10BD     		pop	{r4, pc}
 1334              		.section	.text.HAL_ADC_Stop_DMA,"ax",%progbits
 1335              		.align	1
 1336              		.global	HAL_ADC_Stop_DMA
 1337              		.thumb
 1338              		.thumb_func
 1340              	HAL_ADC_Stop_DMA:
 1341              		@ args = 0, pretend = 0, frame = 0
 1342              		@ frame_needed = 0, uses_anonymous_args = 0
 1343 0000 90F82430 		ldrb	r3, [r0, #36]	@ zero_extendqisi2
 1344 0004 10B5     		push	{r4, lr}
 1345 0006 012B     		cmp	r3, #1
 1346 0008 0446     		mov	r4, r0
 1347 000a 1DD0     		beq	.L221
 1348 000c 0123     		movs	r3, #1
 1349 000e 80F82430 		strb	r3, [r0, #36]
 1350 0012 FFF7FEFF 		bl	ADC_ConversionStop_Disable
 1351 0016 98B9     		cbnz	r0, .L219
 1352 0018 2268     		ldr	r2, [r4]
 1353 001a 206A     		ldr	r0, [r4, #32]
 1354 001c 9368     		ldr	r3, [r2, #8]
 1355 001e 23F48073 		bic	r3, r3, #256
 1356 0022 9360     		str	r3, [r2, #8]
 1357 0024 FFF7FEFF 		bl	HAL_DMA_Abort
 1358 0028 A36A     		ldr	r3, [r4, #40]
 1359 002a 30B9     		cbnz	r0, .L220
 1360 002c 23F48853 		bic	r3, r3, #4352
 1361 0030 23F00103 		bic	r3, r3, #1
 1362 0034 43F00103 		orr	r3, r3, #1
 1363 0038 01E0     		b	.L222
 1364              	.L220:
ARM GAS  /tmp/ccmGLz0K.s 			page 24


 1365 003a 43F04003 		orr	r3, r3, #64
 1366              	.L222:
 1367 003e A362     		str	r3, [r4, #40]
 1368              	.L219:
 1369 0040 0023     		movs	r3, #0
 1370 0042 84F82430 		strb	r3, [r4, #36]
 1371 0046 10BD     		pop	{r4, pc}
 1372              	.L221:
 1373 0048 0220     		movs	r0, #2
 1374 004a 10BD     		pop	{r4, pc}
 1376              		.ident	"GCC: (15:4.9.3+svn231177-1) 4.9.3 20150529 (prerelease)"
ARM GAS  /tmp/ccmGLz0K.s 			page 25

