ARM GAS  /tmp/ccetMXGP.s 			page 1


   1              		.cpu cortex-m3
   2              		.eabi_attribute 20, 1
   3              		.eabi_attribute 21, 1
   4              		.eabi_attribute 23, 3
   5              		.eabi_attribute 24, 1
   6              		.eabi_attribute 25, 1
   7              		.eabi_attribute 26, 1
   8              		.eabi_attribute 30, 4
   9              		.eabi_attribute 34, 1
  10              		.eabi_attribute 18, 4
  11              		.file	"stm32f1xx_hal_adc.c"
  12              		.section	.text.HAL_ADC_MspInit,"ax",%progbits
  13              		.align	1
  14              		.weak	HAL_ADC_MspInit
  15              		.syntax unified
  16              		.thumb
  17              		.thumb_func
  18              		.fpu softvfp
  20              	HAL_ADC_MspInit:
  21              		@ args = 0, pretend = 0, frame = 0
  22              		@ frame_needed = 0, uses_anonymous_args = 0
  23              		@ link register save eliminated.
  24 0000 7047     		bx	lr
  26              		.section	.text.HAL_ADC_MspDeInit,"ax",%progbits
  27              		.align	1
  28              		.weak	HAL_ADC_MspDeInit
  29              		.syntax unified
  30              		.thumb
  31              		.thumb_func
  32              		.fpu softvfp
  34              	HAL_ADC_MspDeInit:
  35              		@ args = 0, pretend = 0, frame = 0
  36              		@ frame_needed = 0, uses_anonymous_args = 0
  37              		@ link register save eliminated.
  38 0000 7047     		bx	lr
  40              		.section	.text.HAL_ADC_PollForConversion,"ax",%progbits
  41              		.align	1
  42              		.global	HAL_ADC_PollForConversion
  43              		.syntax unified
  44              		.thumb
  45              		.thumb_func
  46              		.fpu softvfp
  48              	HAL_ADC_PollForConversion:
  49              		@ args = 0, pretend = 0, frame = 8
  50              		@ frame_needed = 0, uses_anonymous_args = 0
  51 0000 F7B5     		push	{r0, r1, r2, r4, r5, r6, r7, lr}
  52 0002 0026     		movs	r6, #0
  53 0004 0446     		mov	r4, r0
  54 0006 0D46     		mov	r5, r1
  55 0008 0196     		str	r6, [sp, #4]
  56 000a FFF7FEFF 		bl	HAL_GetTick
  57 000e 2368     		ldr	r3, [r4]
  58 0010 0746     		mov	r7, r0
  59 0012 9A68     		ldr	r2, [r3, #8]
  60 0014 D205     		lsls	r2, r2, #23
  61 0016 08D5     		bpl	.L4
  62 0018 0120     		movs	r0, #1
ARM GAS  /tmp/ccetMXGP.s 			page 2


  63 001a A36A     		ldr	r3, [r4, #40]
  64 001c 84F82460 		strb	r6, [r4, #36]
  65 0020 43F02003 		orr	r3, r3, #32
  66 0024 A362     		str	r3, [r4, #40]
  67              	.L5:
  68 0026 03B0     		add	sp, sp, #12
  69              		@ sp needed
  70 0028 F0BD     		pop	{r4, r5, r6, r7, pc}
  71              	.L4:
  72 002a 5A68     		ldr	r2, [r3, #4]
  73 002c D605     		lsls	r6, r2, #23
  74 002e 03D4     		bmi	.L6
  75 0030 DB6A     		ldr	r3, [r3, #44]
  76 0032 13F4700F 		tst	r3, #15728640
  77 0036 3BD0     		beq	.L7
  78              	.L6:
  79 0038 3A4B     		ldr	r3, .L35
  80 003a 0220     		movs	r0, #2
  81 003c 1E68     		ldr	r6, [r3]
  82 003e FFF7FEFF 		bl	HAL_RCCEx_GetPeriphCLKFreq
  83 0042 2368     		ldr	r3, [r4]
  84 0044 384A     		ldr	r2, .L35+4
  85 0046 1969     		ldr	r1, [r3, #16]
  86 0048 B6FBF0F0 		udiv	r0, r6, r0
  87 004c 1142     		tst	r1, r2
  88 004e 374A     		ldr	r2, .L35+8
  89 0050 4FD1     		bne	.L14
  90 0052 DE68     		ldr	r6, [r3, #12]
  91 0054 3649     		ldr	r1, .L35+12
  92 0056 0E42     		tst	r6, r1
  93 0058 4BD1     		bne	.L14
  94 005a 1969     		ldr	r1, [r3, #16]
  95 005c 1142     		tst	r1, r2
  96 005e 59D1     		bne	.L23
  97 0060 DA68     		ldr	r2, [r3, #12]
  98 0062 344B     		ldr	r3, .L35+16
  99 0064 1A42     		tst	r2, r3
 100 0066 14BF     		ite	ne
 101 0068 2923     		movne	r3, #41
 102 006a 1423     		moveq	r3, #20
 103              	.L15:
 104 006c 00FB03F6 		mul	r6, r0, r3
 105              	.L17:
 106 0070 019B     		ldr	r3, [sp, #4]
 107 0072 9E42     		cmp	r6, r3
 108 0074 20D9     		bls	.L22
 109 0076 6B1C     		adds	r3, r5, #1
 110 0078 05D0     		beq	.L18
 111 007a 5DB1     		cbz	r5, .L20
 112 007c FFF7FEFF 		bl	HAL_GetTick
 113 0080 C01B     		subs	r0, r0, r7
 114 0082 8542     		cmp	r5, r0
 115 0084 06D3     		bcc	.L20
 116              	.L18:
 117 0086 019B     		ldr	r3, [sp, #4]
 118 0088 0133     		adds	r3, r3, #1
 119 008a 0193     		str	r3, [sp, #4]
ARM GAS  /tmp/ccetMXGP.s 			page 3


 120 008c F0E7     		b	.L17
 121              	.L11:
 122 008e 681C     		adds	r0, r5, #1
 123 0090 0FD0     		beq	.L8
 124 0092 45B9     		cbnz	r5, .L9
 125              	.L20:
 126 0094 A36A     		ldr	r3, [r4, #40]
 127 0096 0320     		movs	r0, #3
 128 0098 43F00403 		orr	r3, r3, #4
 129 009c A362     		str	r3, [r4, #40]
 130 009e 0023     		movs	r3, #0
 131 00a0 84F82430 		strb	r3, [r4, #36]
 132 00a4 BFE7     		b	.L5
 133              	.L9:
 134 00a6 FFF7FEFF 		bl	HAL_GetTick
 135 00aa C01B     		subs	r0, r0, r7
 136 00ac 8542     		cmp	r5, r0
 137 00ae F1D3     		bcc	.L20
 138              	.L7:
 139 00b0 2268     		ldr	r2, [r4]
 140              	.L8:
 141 00b2 1368     		ldr	r3, [r2]
 142 00b4 9907     		lsls	r1, r3, #30
 143 00b6 EAD5     		bpl	.L11
 144              	.L22:
 145 00b8 6FF01203 		mvn	r3, #18
 146 00bc 2268     		ldr	r2, [r4]
 147 00be 1360     		str	r3, [r2]
 148 00c0 A36A     		ldr	r3, [r4, #40]
 149 00c2 43F40073 		orr	r3, r3, #512
 150 00c6 A362     		str	r3, [r4, #40]
 151 00c8 9368     		ldr	r3, [r2, #8]
 152 00ca 03F46023 		and	r3, r3, #917504
 153 00ce B3F5602F 		cmp	r3, #917504
 154 00d2 25D1     		bne	.L13
 155 00d4 237B     		ldrb	r3, [r4, #12]	@ zero_extendqisi2
 156 00d6 1BBB     		cbnz	r3, .L13
 157 00d8 A36A     		ldr	r3, [r4, #40]
 158 00da 23F48073 		bic	r3, r3, #256
 159 00de A362     		str	r3, [r4, #40]
 160 00e0 A06A     		ldr	r0, [r4, #40]
 161 00e2 10F48050 		ands	r0, r0, #4096
 162 00e6 1BD1     		bne	.L13
 163 00e8 A36A     		ldr	r3, [r4, #40]
 164 00ea 43F00103 		orr	r3, r3, #1
 165 00ee A362     		str	r3, [r4, #40]
 166 00f0 99E7     		b	.L5
 167              	.L14:
 168 00f2 1969     		ldr	r1, [r3, #16]
 169 00f4 1142     		tst	r1, r2
 170 00f6 03D1     		bne	.L16
 171 00f8 D968     		ldr	r1, [r3, #12]
 172 00fa 0E4A     		ldr	r2, .L35+16
 173 00fc 1142     		tst	r1, r2
 174 00fe 0BD0     		beq	.L25
 175              	.L16:
 176 0100 1969     		ldr	r1, [r3, #16]
ARM GAS  /tmp/ccetMXGP.s 			page 4


 177 0102 0D4A     		ldr	r2, .L35+20
 178 0104 1142     		tst	r1, r2
 179 0106 09D1     		bne	.L26
 180 0108 DB68     		ldr	r3, [r3, #12]
 181 010a 1342     		tst	r3, r2
 182 010c 14BF     		ite	ne
 183 010e FC23     		movne	r3, #252
 184 0110 5423     		moveq	r3, #84
 185 0112 ABE7     		b	.L15
 186              	.L23:
 187 0114 2923     		movs	r3, #41
 188 0116 A9E7     		b	.L15
 189              	.L25:
 190 0118 5423     		movs	r3, #84
 191 011a A7E7     		b	.L15
 192              	.L26:
 193 011c FC23     		movs	r3, #252
 194 011e A5E7     		b	.L15
 195              	.L13:
 196 0120 0020     		movs	r0, #0
 197 0122 80E7     		b	.L5
 198              	.L36:
 199              		.align	2
 200              	.L35:
 201 0124 00000000 		.word	SystemCoreClock
 202 0128 24499224 		.word	613566756
 203 012c 92244912 		.word	306783378
 204 0130 24499200 		.word	9586980
 205 0134 92244900 		.word	4793490
 206 0138 49922400 		.word	2396745
 208              		.section	.text.HAL_ADC_PollForEvent,"ax",%progbits
 209              		.align	1
 210              		.global	HAL_ADC_PollForEvent
 211              		.syntax unified
 212              		.thumb
 213              		.thumb_func
 214              		.fpu softvfp
 216              	HAL_ADC_PollForEvent:
 217              		@ args = 0, pretend = 0, frame = 0
 218              		@ frame_needed = 0, uses_anonymous_args = 0
 219 0000 F8B5     		push	{r3, r4, r5, r6, r7, lr}
 220 0002 0446     		mov	r4, r0
 221 0004 0E46     		mov	r6, r1
 222 0006 1546     		mov	r5, r2
 223 0008 FFF7FEFF 		bl	HAL_GetTick
 224 000c 0746     		mov	r7, r0
 225              	.L38:
 226 000e 2268     		ldr	r2, [r4]
 227              	.L39:
 228 0010 1368     		ldr	r3, [r2]
 229 0012 36EA0303 		bics	r3, r6, r3
 230 0016 08D1     		bne	.L43
 231 0018 A36A     		ldr	r3, [r4, #40]
 232 001a 0020     		movs	r0, #0
 233 001c 43F48033 		orr	r3, r3, #65536
 234 0020 A362     		str	r3, [r4, #40]
 235 0022 6FF00103 		mvn	r3, #1
ARM GAS  /tmp/ccetMXGP.s 			page 5


 236 0026 1360     		str	r3, [r2]
 237 0028 F8BD     		pop	{r3, r4, r5, r6, r7, pc}
 238              	.L43:
 239 002a 6B1C     		adds	r3, r5, #1
 240 002c F0D0     		beq	.L39
 241 002e 45B9     		cbnz	r5, .L40
 242              	.L42:
 243 0030 A36A     		ldr	r3, [r4, #40]
 244 0032 0320     		movs	r0, #3
 245 0034 43F00403 		orr	r3, r3, #4
 246 0038 A362     		str	r3, [r4, #40]
 247 003a 0023     		movs	r3, #0
 248 003c 84F82430 		strb	r3, [r4, #36]
 249 0040 F8BD     		pop	{r3, r4, r5, r6, r7, pc}
 250              	.L40:
 251 0042 FFF7FEFF 		bl	HAL_GetTick
 252 0046 C01B     		subs	r0, r0, r7
 253 0048 8542     		cmp	r5, r0
 254 004a E0D2     		bcs	.L38
 255 004c F0E7     		b	.L42
 257              		.section	.text.HAL_ADC_GetValue,"ax",%progbits
 258              		.align	1
 259              		.global	HAL_ADC_GetValue
 260              		.syntax unified
 261              		.thumb
 262              		.thumb_func
 263              		.fpu softvfp
 265              	HAL_ADC_GetValue:
 266              		@ args = 0, pretend = 0, frame = 0
 267              		@ frame_needed = 0, uses_anonymous_args = 0
 268              		@ link register save eliminated.
 269 0000 0368     		ldr	r3, [r0]
 270 0002 D86C     		ldr	r0, [r3, #76]
 271 0004 7047     		bx	lr
 273              		.section	.text.HAL_ADC_ConvCpltCallback,"ax",%progbits
 274              		.align	1
 275              		.weak	HAL_ADC_ConvCpltCallback
 276              		.syntax unified
 277              		.thumb
 278              		.thumb_func
 279              		.fpu softvfp
 281              	HAL_ADC_ConvCpltCallback:
 282              		@ args = 0, pretend = 0, frame = 0
 283              		@ frame_needed = 0, uses_anonymous_args = 0
 284              		@ link register save eliminated.
 285 0000 7047     		bx	lr
 287              		.section	.text.ADC_DMAConvCplt,"ax",%progbits
 288              		.align	1
 289              		.global	ADC_DMAConvCplt
 290              		.syntax unified
 291              		.thumb
 292              		.thumb_func
 293              		.fpu softvfp
 295              	ADC_DMAConvCplt:
 296              		@ args = 0, pretend = 0, frame = 0
 297              		@ frame_needed = 0, uses_anonymous_args = 0
 298 0000 436A     		ldr	r3, [r0, #36]
ARM GAS  /tmp/ccetMXGP.s 			page 6


 299 0002 10B5     		push	{r4, lr}
 300 0004 9A6A     		ldr	r2, [r3, #40]
 301 0006 12F0500F 		tst	r2, #80
 302 000a 1BD1     		bne	.L49
 303 000c 9A6A     		ldr	r2, [r3, #40]
 304 000e 42F40072 		orr	r2, r2, #512
 305 0012 9A62     		str	r2, [r3, #40]
 306 0014 1A68     		ldr	r2, [r3]
 307 0016 9268     		ldr	r2, [r2, #8]
 308 0018 02F46022 		and	r2, r2, #917504
 309 001c B2F5602F 		cmp	r2, #917504
 310 0020 0CD1     		bne	.L51
 311 0022 1A7B     		ldrb	r2, [r3, #12]	@ zero_extendqisi2
 312 0024 52B9     		cbnz	r2, .L51
 313 0026 9A6A     		ldr	r2, [r3, #40]
 314 0028 22F48072 		bic	r2, r2, #256
 315 002c 9A62     		str	r2, [r3, #40]
 316 002e 9A6A     		ldr	r2, [r3, #40]
 317 0030 D204     		lsls	r2, r2, #19
 318 0032 5EBF     		ittt	pl
 319 0034 9A6A     		ldrpl	r2, [r3, #40]
 320 0036 42F00102 		orrpl	r2, r2, #1
 321 003a 9A62     		strpl	r2, [r3, #40]
 322              	.L51:
 323 003c 1846     		mov	r0, r3
 324 003e FFF7FEFF 		bl	HAL_ADC_ConvCpltCallback
 325 0042 10BD     		pop	{r4, pc}
 326              	.L49:
 327 0044 1B6A     		ldr	r3, [r3, #32]
 328 0046 BDE81040 		pop	{r4, lr}
 329 004a 1B6B     		ldr	r3, [r3, #48]
 330 004c 1847     		bx	r3	@ indirect register sibling call
 332              		.section	.text.HAL_ADC_ConvHalfCpltCallback,"ax",%progbits
 333              		.align	1
 334              		.weak	HAL_ADC_ConvHalfCpltCallback
 335              		.syntax unified
 336              		.thumb
 337              		.thumb_func
 338              		.fpu softvfp
 340              	HAL_ADC_ConvHalfCpltCallback:
 341              		@ args = 0, pretend = 0, frame = 0
 342              		@ frame_needed = 0, uses_anonymous_args = 0
 343              		@ link register save eliminated.
 344 0000 7047     		bx	lr
 346              		.section	.text.ADC_DMAHalfConvCplt,"ax",%progbits
 347              		.align	1
 348              		.global	ADC_DMAHalfConvCplt
 349              		.syntax unified
 350              		.thumb
 351              		.thumb_func
 352              		.fpu softvfp
 354              	ADC_DMAHalfConvCplt:
 355              		@ args = 0, pretend = 0, frame = 0
 356              		@ frame_needed = 0, uses_anonymous_args = 0
 357 0000 08B5     		push	{r3, lr}
 358 0002 406A     		ldr	r0, [r0, #36]
 359 0004 FFF7FEFF 		bl	HAL_ADC_ConvHalfCpltCallback
ARM GAS  /tmp/ccetMXGP.s 			page 7


 360 0008 08BD     		pop	{r3, pc}
 362              		.section	.text.HAL_ADC_LevelOutOfWindowCallback,"ax",%progbits
 363              		.align	1
 364              		.weak	HAL_ADC_LevelOutOfWindowCallback
 365              		.syntax unified
 366              		.thumb
 367              		.thumb_func
 368              		.fpu softvfp
 370              	HAL_ADC_LevelOutOfWindowCallback:
 371              		@ args = 0, pretend = 0, frame = 0
 372              		@ frame_needed = 0, uses_anonymous_args = 0
 373              		@ link register save eliminated.
 374 0000 7047     		bx	lr
 376              		.section	.text.HAL_ADC_IRQHandler,"ax",%progbits
 377              		.align	1
 378              		.global	HAL_ADC_IRQHandler
 379              		.syntax unified
 380              		.thumb
 381              		.thumb_func
 382              		.fpu softvfp
 384              	HAL_ADC_IRQHandler:
 385              		@ args = 0, pretend = 0, frame = 0
 386              		@ frame_needed = 0, uses_anonymous_args = 0
 387 0000 0368     		ldr	r3, [r0]
 388 0002 10B5     		push	{r4, lr}
 389 0004 5A68     		ldr	r2, [r3, #4]
 390 0006 0446     		mov	r4, r0
 391 0008 9006     		lsls	r0, r2, #26
 392 000a 27D5     		bpl	.L59
 393 000c 1A68     		ldr	r2, [r3]
 394 000e 9107     		lsls	r1, r2, #30
 395 0010 24D5     		bpl	.L59
 396 0012 A26A     		ldr	r2, [r4, #40]
 397 0014 D206     		lsls	r2, r2, #27
 398 0016 5EBF     		ittt	pl
 399 0018 A26A     		ldrpl	r2, [r4, #40]
 400 001a 42F40072 		orrpl	r2, r2, #512
 401 001e A262     		strpl	r2, [r4, #40]
 402 0020 9A68     		ldr	r2, [r3, #8]
 403 0022 02F46022 		and	r2, r2, #917504
 404 0026 B2F5602F 		cmp	r2, #917504
 405 002a 10D1     		bne	.L62
 406 002c 227B     		ldrb	r2, [r4, #12]	@ zero_extendqisi2
 407 002e 72B9     		cbnz	r2, .L62
 408 0030 5A68     		ldr	r2, [r3, #4]
 409 0032 22F02002 		bic	r2, r2, #32
 410 0036 5A60     		str	r2, [r3, #4]
 411 0038 A36A     		ldr	r3, [r4, #40]
 412 003a 23F48073 		bic	r3, r3, #256
 413 003e A362     		str	r3, [r4, #40]
 414 0040 A36A     		ldr	r3, [r4, #40]
 415 0042 DB04     		lsls	r3, r3, #19
 416 0044 5EBF     		ittt	pl
 417 0046 A36A     		ldrpl	r3, [r4, #40]
 418 0048 43F00103 		orrpl	r3, r3, #1
 419 004c A362     		strpl	r3, [r4, #40]
 420              	.L62:
ARM GAS  /tmp/ccetMXGP.s 			page 8


 421 004e 2046     		mov	r0, r4
 422 0050 FFF7FEFF 		bl	HAL_ADC_ConvCpltCallback
 423 0054 6FF01202 		mvn	r2, #18
 424 0058 2368     		ldr	r3, [r4]
 425 005a 1A60     		str	r2, [r3]
 426              	.L59:
 427 005c 2368     		ldr	r3, [r4]
 428 005e 5A68     		ldr	r2, [r3, #4]
 429 0060 1006     		lsls	r0, r2, #24
 430 0062 30D5     		bpl	.L64
 431 0064 1A68     		ldr	r2, [r3]
 432 0066 5107     		lsls	r1, r2, #29
 433 0068 2DD5     		bpl	.L64
 434 006a A26A     		ldr	r2, [r4, #40]
 435 006c D206     		lsls	r2, r2, #27
 436 006e 5EBF     		ittt	pl
 437 0070 A26A     		ldrpl	r2, [r4, #40]
 438 0072 42F40052 		orrpl	r2, r2, #8192
 439 0076 A262     		strpl	r2, [r4, #40]
 440 0078 9A68     		ldr	r2, [r3, #8]
 441 007a 02F4E042 		and	r2, r2, #28672
 442 007e B2F5E04F 		cmp	r2, #28672
 443 0082 0AD0     		beq	.L66
 444 0084 5A68     		ldr	r2, [r3, #4]
 445 0086 5005     		lsls	r0, r2, #21
 446 0088 16D4     		bmi	.L68
 447 008a 9A68     		ldr	r2, [r3, #8]
 448 008c 02F46022 		and	r2, r2, #917504
 449 0090 B2F5602F 		cmp	r2, #917504
 450 0094 10D1     		bne	.L68
 451 0096 227B     		ldrb	r2, [r4, #12]	@ zero_extendqisi2
 452 0098 72B9     		cbnz	r2, .L68
 453              	.L66:
 454 009a 5A68     		ldr	r2, [r3, #4]
 455 009c 22F08002 		bic	r2, r2, #128
 456 00a0 5A60     		str	r2, [r3, #4]
 457 00a2 A36A     		ldr	r3, [r4, #40]
 458 00a4 23F48053 		bic	r3, r3, #4096
 459 00a8 A362     		str	r3, [r4, #40]
 460 00aa A36A     		ldr	r3, [r4, #40]
 461 00ac D905     		lsls	r1, r3, #23
 462 00ae 5EBF     		ittt	pl
 463 00b0 A36A     		ldrpl	r3, [r4, #40]
 464 00b2 43F00103 		orrpl	r3, r3, #1
 465 00b6 A362     		strpl	r3, [r4, #40]
 466              	.L68:
 467 00b8 2046     		mov	r0, r4
 468 00ba FFF7FEFF 		bl	HAL_ADCEx_InjectedConvCpltCallback
 469 00be 6FF00C02 		mvn	r2, #12
 470 00c2 2368     		ldr	r3, [r4]
 471 00c4 1A60     		str	r2, [r3]
 472              	.L64:
 473 00c6 2368     		ldr	r3, [r4]
 474 00c8 5A68     		ldr	r2, [r3, #4]
 475 00ca 5206     		lsls	r2, r2, #25
 476 00cc 0DD5     		bpl	.L58
 477 00ce 1B68     		ldr	r3, [r3]
ARM GAS  /tmp/ccetMXGP.s 			page 9


 478 00d0 DB07     		lsls	r3, r3, #31
 479 00d2 0AD5     		bpl	.L58
 480 00d4 A36A     		ldr	r3, [r4, #40]
 481 00d6 2046     		mov	r0, r4
 482 00d8 43F48033 		orr	r3, r3, #65536
 483 00dc A362     		str	r3, [r4, #40]
 484 00de FFF7FEFF 		bl	HAL_ADC_LevelOutOfWindowCallback
 485 00e2 6FF00102 		mvn	r2, #1
 486 00e6 2368     		ldr	r3, [r4]
 487 00e8 1A60     		str	r2, [r3]
 488              	.L58:
 489 00ea 10BD     		pop	{r4, pc}
 491              		.section	.text.HAL_ADC_ErrorCallback,"ax",%progbits
 492              		.align	1
 493              		.weak	HAL_ADC_ErrorCallback
 494              		.syntax unified
 495              		.thumb
 496              		.thumb_func
 497              		.fpu softvfp
 499              	HAL_ADC_ErrorCallback:
 500              		@ args = 0, pretend = 0, frame = 0
 501              		@ frame_needed = 0, uses_anonymous_args = 0
 502              		@ link register save eliminated.
 503 0000 7047     		bx	lr
 505              		.section	.text.ADC_DMAError,"ax",%progbits
 506              		.align	1
 507              		.global	ADC_DMAError
 508              		.syntax unified
 509              		.thumb
 510              		.thumb_func
 511              		.fpu softvfp
 513              	ADC_DMAError:
 514              		@ args = 0, pretend = 0, frame = 0
 515              		@ frame_needed = 0, uses_anonymous_args = 0
 516 0000 406A     		ldr	r0, [r0, #36]
 517 0002 08B5     		push	{r3, lr}
 518 0004 836A     		ldr	r3, [r0, #40]
 519 0006 43F04003 		orr	r3, r3, #64
 520 000a 8362     		str	r3, [r0, #40]
 521 000c C36A     		ldr	r3, [r0, #44]
 522 000e 43F00403 		orr	r3, r3, #4
 523 0012 C362     		str	r3, [r0, #44]
 524 0014 FFF7FEFF 		bl	HAL_ADC_ErrorCallback
 525 0018 08BD     		pop	{r3, pc}
 527              		.section	.text.HAL_ADC_ConfigChannel,"ax",%progbits
 528              		.align	1
 529              		.global	HAL_ADC_ConfigChannel
 530              		.syntax unified
 531              		.thumb
 532              		.thumb_func
 533              		.fpu softvfp
 535              	HAL_ADC_ConfigChannel:
 536              		@ args = 0, pretend = 0, frame = 8
 537              		@ frame_needed = 0, uses_anonymous_args = 0
 538 0000 0023     		movs	r3, #0
 539 0002 73B5     		push	{r0, r1, r4, r5, r6, lr}
 540 0004 0193     		str	r3, [sp, #4]
ARM GAS  /tmp/ccetMXGP.s 			page 10


 541 0006 90F82430 		ldrb	r3, [r0, #36]	@ zero_extendqisi2
 542 000a 012B     		cmp	r3, #1
 543 000c 74D0     		beq	.L107
 544 000e 0123     		movs	r3, #1
 545 0010 4D68     		ldr	r5, [r1, #4]
 546 0012 80F82430 		strb	r3, [r0, #36]
 547 0016 062D     		cmp	r5, #6
 548 0018 0268     		ldr	r2, [r0]
 549 001a 4FEA8503 		lsl	r3, r5, #2
 550 001e 0C68     		ldr	r4, [r1]
 551 0020 25D8     		bhi	.L96
 552 0022 2B44     		add	r3, r3, r5
 553 0024 1F25     		movs	r5, #31
 554 0026 566B     		ldr	r6, [r2, #52]
 555 0028 053B     		subs	r3, r3, #5
 556 002a 9D40     		lsls	r5, r5, r3
 557 002c 26EA0505 		bic	r5, r6, r5
 558 0030 04FA03F3 		lsl	r3, r4, r3
 559 0034 2B43     		orrs	r3, r3, r5
 560 0036 5363     		str	r3, [r2, #52]
 561              	.L97:
 562 0038 092C     		cmp	r4, #9
 563 003a 4FEA4403 		lsl	r3, r4, #1
 564 003e 8D68     		ldr	r5, [r1, #8]
 565 0040 2FD9     		bls	.L99
 566 0042 0726     		movs	r6, #7
 567 0044 2344     		add	r3, r3, r4
 568 0046 D168     		ldr	r1, [r2, #12]
 569 0048 1E3B     		subs	r3, r3, #30
 570 004a 9E40     		lsls	r6, r6, r3
 571 004c 21EA0601 		bic	r1, r1, r6
 572 0050 05FA03F3 		lsl	r3, r5, r3
 573 0054 0B43     		orrs	r3, r3, r1
 574 0056 D360     		str	r3, [r2, #12]
 575              	.L100:
 576 0058 A4F11003 		sub	r3, r4, #16
 577 005c 012B     		cmp	r3, #1
 578 005e 2BD9     		bls	.L101
 579              	.L104:
 580 0060 0023     		movs	r3, #0
 581              	.L102:
 582 0062 0022     		movs	r2, #0
 583 0064 80F82420 		strb	r2, [r0, #36]
 584              	.L95:
 585 0068 1846     		mov	r0, r3
 586 006a 02B0     		add	sp, sp, #8
 587              		@ sp needed
 588 006c 70BD     		pop	{r4, r5, r6, pc}
 589              	.L96:
 590 006e 0C2D     		cmp	r5, #12
 591 0070 0BD8     		bhi	.L98
 592 0072 2B44     		add	r3, r3, r5
 593 0074 1F25     		movs	r5, #31
 594 0076 166B     		ldr	r6, [r2, #48]
 595 0078 233B     		subs	r3, r3, #35
 596 007a 9D40     		lsls	r5, r5, r3
 597 007c 26EA0505 		bic	r5, r6, r5
ARM GAS  /tmp/ccetMXGP.s 			page 11


 598 0080 04FA03F3 		lsl	r3, r4, r3
 599 0084 2B43     		orrs	r3, r3, r5
 600 0086 1363     		str	r3, [r2, #48]
 601 0088 D6E7     		b	.L97
 602              	.L98:
 603 008a 2B44     		add	r3, r3, r5
 604 008c 1F25     		movs	r5, #31
 605 008e D66A     		ldr	r6, [r2, #44]
 606 0090 413B     		subs	r3, r3, #65
 607 0092 9D40     		lsls	r5, r5, r3
 608 0094 26EA0505 		bic	r5, r6, r5
 609 0098 04FA03F3 		lsl	r3, r4, r3
 610 009c 2B43     		orrs	r3, r3, r5
 611 009e D362     		str	r3, [r2, #44]
 612 00a0 CAE7     		b	.L97
 613              	.L99:
 614 00a2 0726     		movs	r6, #7
 615 00a4 1169     		ldr	r1, [r2, #16]
 616 00a6 2344     		add	r3, r3, r4
 617 00a8 9E40     		lsls	r6, r6, r3
 618 00aa 21EA0601 		bic	r1, r1, r6
 619 00ae 05FA03F3 		lsl	r3, r5, r3
 620 00b2 0B43     		orrs	r3, r3, r1
 621 00b4 1361     		str	r3, [r2, #16]
 622 00b6 CFE7     		b	.L100
 623              	.L101:
 624 00b8 104B     		ldr	r3, .L109
 625 00ba 9A42     		cmp	r2, r3
 626 00bc 16D1     		bne	.L103
 627 00be 9368     		ldr	r3, [r2, #8]
 628 00c0 1B02     		lsls	r3, r3, #8
 629 00c2 CDD4     		bmi	.L104
 630 00c4 9368     		ldr	r3, [r2, #8]
 631 00c6 102C     		cmp	r4, #16
 632 00c8 43F40003 		orr	r3, r3, #8388608
 633 00cc 9360     		str	r3, [r2, #8]
 634 00ce C7D1     		bne	.L104
 635 00d0 0B4B     		ldr	r3, .L109+4
 636 00d2 0C4A     		ldr	r2, .L109+8
 637 00d4 1B68     		ldr	r3, [r3]
 638 00d6 B3FBF2F2 		udiv	r2, r3, r2
 639 00da 0A23     		movs	r3, #10
 640 00dc 5343     		muls	r3, r2, r3
 641              	.L108:
 642 00de 0193     		str	r3, [sp, #4]
 643 00e0 019B     		ldr	r3, [sp, #4]
 644 00e2 002B     		cmp	r3, #0
 645 00e4 BCD0     		beq	.L104
 646 00e6 019B     		ldr	r3, [sp, #4]
 647 00e8 013B     		subs	r3, r3, #1
 648 00ea F8E7     		b	.L108
 649              	.L103:
 650 00ec 836A     		ldr	r3, [r0, #40]
 651 00ee 43F02003 		orr	r3, r3, #32
 652 00f2 8362     		str	r3, [r0, #40]
 653 00f4 0123     		movs	r3, #1
 654 00f6 B4E7     		b	.L102
ARM GAS  /tmp/ccetMXGP.s 			page 12


 655              	.L107:
 656 00f8 0223     		movs	r3, #2
 657 00fa B5E7     		b	.L95
 658              	.L110:
 659              		.align	2
 660              	.L109:
 661 00fc 00240140 		.word	1073816576
 662 0100 00000000 		.word	SystemCoreClock
 663 0104 40420F00 		.word	1000000
 665              		.section	.text.HAL_ADC_AnalogWDGConfig,"ax",%progbits
 666              		.align	1
 667              		.global	HAL_ADC_AnalogWDGConfig
 668              		.syntax unified
 669              		.thumb
 670              		.thumb_func
 671              		.fpu softvfp
 673              	HAL_ADC_AnalogWDGConfig:
 674              		@ args = 0, pretend = 0, frame = 0
 675              		@ frame_needed = 0, uses_anonymous_args = 0
 676 0000 90F82430 		ldrb	r3, [r0, #36]	@ zero_extendqisi2
 677 0004 30B5     		push	{r4, r5, lr}
 678 0006 012B     		cmp	r3, #1
 679 0008 1DD0     		beq	.L115
 680 000a 0123     		movs	r3, #1
 681 000c 0A68     		ldr	r2, [r1]
 682 000e 80F82430 		strb	r3, [r0, #36]
 683 0012 0B7A     		ldrb	r3, [r1, #8]	@ zero_extendqisi2
 684 0014 012B     		cmp	r3, #1
 685 0016 0368     		ldr	r3, [r0]
 686 0018 5C68     		ldr	r4, [r3, #4]
 687 001a 0CBF     		ite	eq
 688 001c 44F04004 		orreq	r4, r4, #64
 689 0020 24F04004 		bicne	r4, r4, #64
 690 0024 5C60     		str	r4, [r3, #4]
 691 0026 4C68     		ldr	r4, [r1, #4]
 692 0028 5D68     		ldr	r5, [r3, #4]
 693 002a 2243     		orrs	r2, r2, r4
 694 002c 074C     		ldr	r4, .L117
 695 002e 2C40     		ands	r4, r4, r5
 696 0030 2243     		orrs	r2, r2, r4
 697 0032 5A60     		str	r2, [r3, #4]
 698 0034 CA68     		ldr	r2, [r1, #12]
 699 0036 5A62     		str	r2, [r3, #36]
 700 0038 0A69     		ldr	r2, [r1, #16]
 701 003a 9A62     		str	r2, [r3, #40]
 702 003c 0023     		movs	r3, #0
 703 003e 80F82430 		strb	r3, [r0, #36]
 704 0042 1846     		mov	r0, r3
 705 0044 30BD     		pop	{r4, r5, pc}
 706              	.L115:
 707 0046 0220     		movs	r0, #2
 708 0048 30BD     		pop	{r4, r5, pc}
 709              	.L118:
 710 004a 00BF     		.align	2
 711              	.L117:
 712 004c E0FD3FFF 		.word	-12583456
 714              		.section	.text.HAL_ADC_GetState,"ax",%progbits
ARM GAS  /tmp/ccetMXGP.s 			page 13


 715              		.align	1
 716              		.global	HAL_ADC_GetState
 717              		.syntax unified
 718              		.thumb
 719              		.thumb_func
 720              		.fpu softvfp
 722              	HAL_ADC_GetState:
 723              		@ args = 0, pretend = 0, frame = 0
 724              		@ frame_needed = 0, uses_anonymous_args = 0
 725              		@ link register save eliminated.
 726 0000 806A     		ldr	r0, [r0, #40]
 727 0002 7047     		bx	lr
 729              		.section	.text.HAL_ADC_GetError,"ax",%progbits
 730              		.align	1
 731              		.global	HAL_ADC_GetError
 732              		.syntax unified
 733              		.thumb
 734              		.thumb_func
 735              		.fpu softvfp
 737              	HAL_ADC_GetError:
 738              		@ args = 0, pretend = 0, frame = 0
 739              		@ frame_needed = 0, uses_anonymous_args = 0
 740              		@ link register save eliminated.
 741 0000 C06A     		ldr	r0, [r0, #44]
 742 0002 7047     		bx	lr
 744              		.section	.text.ADC_Enable,"ax",%progbits
 745              		.align	1
 746              		.global	ADC_Enable
 747              		.syntax unified
 748              		.thumb
 749              		.thumb_func
 750              		.fpu softvfp
 752              	ADC_Enable:
 753              		@ args = 0, pretend = 0, frame = 8
 754              		@ frame_needed = 0, uses_anonymous_args = 0
 755 0000 0023     		movs	r3, #0
 756 0002 73B5     		push	{r0, r1, r4, r5, r6, lr}
 757 0004 0193     		str	r3, [sp, #4]
 758 0006 0368     		ldr	r3, [r0]
 759 0008 0446     		mov	r4, r0
 760 000a 9A68     		ldr	r2, [r3, #8]
 761 000c D207     		lsls	r2, r2, #31
 762 000e 02D5     		bpl	.L122
 763              	.L128:
 764 0010 0020     		movs	r0, #0
 765              	.L123:
 766 0012 02B0     		add	sp, sp, #8
 767              		@ sp needed
 768 0014 70BD     		pop	{r4, r5, r6, pc}
 769              	.L122:
 770 0016 9A68     		ldr	r2, [r3, #8]
 771 0018 42F00102 		orr	r2, r2, #1
 772 001c 9A60     		str	r2, [r3, #8]
 773 001e 124B     		ldr	r3, .L131
 774 0020 124A     		ldr	r2, .L131+4
 775 0022 1B68     		ldr	r3, [r3]
 776 0024 B3FBF2F3 		udiv	r3, r3, r2
ARM GAS  /tmp/ccetMXGP.s 			page 14


 777              	.L130:
 778 0028 0193     		str	r3, [sp, #4]
 779 002a 019B     		ldr	r3, [sp, #4]
 780 002c C3B9     		cbnz	r3, .L125
 781 002e FFF7FEFF 		bl	HAL_GetTick
 782 0032 0646     		mov	r6, r0
 783              	.L126:
 784 0034 2368     		ldr	r3, [r4]
 785 0036 9D68     		ldr	r5, [r3, #8]
 786 0038 15F00105 		ands	r5, r5, #1
 787 003c E8D1     		bne	.L128
 788 003e FFF7FEFF 		bl	HAL_GetTick
 789 0042 801B     		subs	r0, r0, r6
 790 0044 0228     		cmp	r0, #2
 791 0046 F5D9     		bls	.L126
 792 0048 A36A     		ldr	r3, [r4, #40]
 793 004a 84F82450 		strb	r5, [r4, #36]
 794 004e 43F01003 		orr	r3, r3, #16
 795 0052 A362     		str	r3, [r4, #40]
 796 0054 E36A     		ldr	r3, [r4, #44]
 797 0056 0120     		movs	r0, #1
 798 0058 43F00103 		orr	r3, r3, #1
 799 005c E362     		str	r3, [r4, #44]
 800 005e D8E7     		b	.L123
 801              	.L125:
 802 0060 019B     		ldr	r3, [sp, #4]
 803 0062 013B     		subs	r3, r3, #1
 804 0064 E0E7     		b	.L130
 805              	.L132:
 806 0066 00BF     		.align	2
 807              	.L131:
 808 0068 00000000 		.word	SystemCoreClock
 809 006c 40420F00 		.word	1000000
 811              		.section	.text.HAL_ADC_Start,"ax",%progbits
 812              		.align	1
 813              		.global	HAL_ADC_Start
 814              		.syntax unified
 815              		.thumb
 816              		.thumb_func
 817              		.fpu softvfp
 819              	HAL_ADC_Start:
 820              		@ args = 0, pretend = 0, frame = 0
 821              		@ frame_needed = 0, uses_anonymous_args = 0
 822 0000 90F82430 		ldrb	r3, [r0, #36]	@ zero_extendqisi2
 823 0004 10B5     		push	{r4, lr}
 824 0006 012B     		cmp	r3, #1
 825 0008 0446     		mov	r4, r0
 826 000a 54D0     		beq	.L145
 827 000c 0123     		movs	r3, #1
 828 000e 80F82430 		strb	r3, [r0, #36]
 829 0012 FFF7FEFF 		bl	ADC_Enable
 830 0016 0028     		cmp	r0, #0
 831 0018 49D1     		bne	.L135
 832 001a A36A     		ldr	r3, [r4, #40]
 833 001c 274A     		ldr	r2, .L153
 834 001e 23F44073 		bic	r3, r3, #768
 835 0022 23F00103 		bic	r3, r3, #1
ARM GAS  /tmp/ccetMXGP.s 			page 15


 836 0026 43F48073 		orr	r3, r3, #256
 837 002a A362     		str	r3, [r4, #40]
 838 002c 2368     		ldr	r3, [r4]
 839 002e 9342     		cmp	r3, r2
 840 0030 04D1     		bne	.L136
 841 0032 2349     		ldr	r1, .L153+4
 842 0034 4A68     		ldr	r2, [r1, #4]
 843 0036 12F4702F 		tst	r2, #983040
 844 003a 2ED1     		bne	.L137
 845              	.L136:
 846 003c A26A     		ldr	r2, [r4, #40]
 847 003e 22F48012 		bic	r2, r2, #1048576
 848 0042 A262     		str	r2, [r4, #40]
 849 0044 5A68     		ldr	r2, [r3, #4]
 850              	.L152:
 851 0046 5205     		lsls	r2, r2, #21
 852 0048 41BF     		itttt	mi
 853 004a A26A     		ldrmi	r2, [r4, #40]
 854 004c 22F44052 		bicmi	r2, r2, #12288
 855 0050 42F48052 		orrmi	r2, r2, #4096
 856 0054 A262     		strmi	r2, [r4, #40]
 857 0056 A26A     		ldr	r2, [r4, #40]
 858 0058 12F48052 		ands	r2, r2, #4096
 859 005c 1CBF     		itt	ne
 860 005e E26A     		ldrne	r2, [r4, #44]
 861 0060 22F00602 		bicne	r2, r2, #6
 862 0064 E262     		str	r2, [r4, #44]
 863 0066 0022     		movs	r2, #0
 864 0068 84F82420 		strb	r2, [r4, #36]
 865 006c 6FF00202 		mvn	r2, #2
 866 0070 1A60     		str	r2, [r3]
 867 0072 9A68     		ldr	r2, [r3, #8]
 868 0074 02F46022 		and	r2, r2, #917504
 869 0078 B2F5602F 		cmp	r2, #917504
 870 007c 13D1     		bne	.L143
 871 007e 0F4A     		ldr	r2, .L153
 872 0080 9342     		cmp	r3, r2
 873 0082 05D1     		bne	.L144
 874 0084 A2F58062 		sub	r2, r2, #1024
 875 0088 5268     		ldr	r2, [r2, #4]
 876 008a 12F4702F 		tst	r2, #983040
 877 008e 0AD1     		bne	.L143
 878              	.L144:
 879 0090 9A68     		ldr	r2, [r3, #8]
 880 0092 42F4A002 		orr	r2, r2, #5242880
 881              	.L150:
 882 0096 9A60     		str	r2, [r3, #8]
 883 0098 10BD     		pop	{r4, pc}
 884              	.L137:
 885 009a A26A     		ldr	r2, [r4, #40]
 886 009c 42F48012 		orr	r2, r2, #1048576
 887 00a0 A262     		str	r2, [r4, #40]
 888 00a2 4A68     		ldr	r2, [r1, #4]
 889 00a4 CFE7     		b	.L152
 890              	.L143:
 891 00a6 9A68     		ldr	r2, [r3, #8]
 892 00a8 42F48012 		orr	r2, r2, #1048576
ARM GAS  /tmp/ccetMXGP.s 			page 16


 893 00ac F3E7     		b	.L150
 894              	.L135:
 895 00ae 0023     		movs	r3, #0
 896 00b0 84F82430 		strb	r3, [r4, #36]
 897 00b4 10BD     		pop	{r4, pc}
 898              	.L145:
 899 00b6 0220     		movs	r0, #2
 900 00b8 10BD     		pop	{r4, pc}
 901              	.L154:
 902 00ba 00BF     		.align	2
 903              	.L153:
 904 00bc 00280140 		.word	1073817600
 905 00c0 00240140 		.word	1073816576
 907              		.section	.text.HAL_ADC_Start_IT,"ax",%progbits
 908              		.align	1
 909              		.global	HAL_ADC_Start_IT
 910              		.syntax unified
 911              		.thumb
 912              		.thumb_func
 913              		.fpu softvfp
 915              	HAL_ADC_Start_IT:
 916              		@ args = 0, pretend = 0, frame = 0
 917              		@ frame_needed = 0, uses_anonymous_args = 0
 918 0000 90F82430 		ldrb	r3, [r0, #36]	@ zero_extendqisi2
 919 0004 10B5     		push	{r4, lr}
 920 0006 012B     		cmp	r3, #1
 921 0008 0446     		mov	r4, r0
 922 000a 58D0     		beq	.L167
 923 000c 0123     		movs	r3, #1
 924 000e 80F82430 		strb	r3, [r0, #36]
 925 0012 FFF7FEFF 		bl	ADC_Enable
 926 0016 0028     		cmp	r0, #0
 927 0018 4DD1     		bne	.L157
 928 001a A36A     		ldr	r3, [r4, #40]
 929 001c 294A     		ldr	r2, .L175
 930 001e 23F47063 		bic	r3, r3, #3840
 931 0022 23F00103 		bic	r3, r3, #1
 932 0026 43F48073 		orr	r3, r3, #256
 933 002a A362     		str	r3, [r4, #40]
 934 002c 2368     		ldr	r3, [r4]
 935 002e 9342     		cmp	r3, r2
 936 0030 04D1     		bne	.L158
 937 0032 2549     		ldr	r1, .L175+4
 938 0034 4A68     		ldr	r2, [r1, #4]
 939 0036 12F4702F 		tst	r2, #983040
 940 003a 32D1     		bne	.L159
 941              	.L158:
 942 003c A26A     		ldr	r2, [r4, #40]
 943 003e 22F48012 		bic	r2, r2, #1048576
 944 0042 A262     		str	r2, [r4, #40]
 945 0044 5A68     		ldr	r2, [r3, #4]
 946              	.L174:
 947 0046 5205     		lsls	r2, r2, #21
 948 0048 41BF     		itttt	mi
 949 004a A26A     		ldrmi	r2, [r4, #40]
 950 004c 22F44052 		bicmi	r2, r2, #12288
 951 0050 42F48052 		orrmi	r2, r2, #4096
ARM GAS  /tmp/ccetMXGP.s 			page 17


 952 0054 A262     		strmi	r2, [r4, #40]
 953 0056 A26A     		ldr	r2, [r4, #40]
 954 0058 12F48052 		ands	r2, r2, #4096
 955 005c 1CBF     		itt	ne
 956 005e E26A     		ldrne	r2, [r4, #44]
 957 0060 22F00602 		bicne	r2, r2, #6
 958 0064 E262     		str	r2, [r4, #44]
 959 0066 0022     		movs	r2, #0
 960 0068 84F82420 		strb	r2, [r4, #36]
 961 006c 6FF00202 		mvn	r2, #2
 962 0070 1A60     		str	r2, [r3]
 963 0072 5A68     		ldr	r2, [r3, #4]
 964 0074 42F02002 		orr	r2, r2, #32
 965 0078 5A60     		str	r2, [r3, #4]
 966 007a 9A68     		ldr	r2, [r3, #8]
 967 007c 02F46022 		and	r2, r2, #917504
 968 0080 B2F5602F 		cmp	r2, #917504
 969 0084 13D1     		bne	.L165
 970 0086 0F4A     		ldr	r2, .L175
 971 0088 9342     		cmp	r3, r2
 972 008a 05D1     		bne	.L166
 973 008c A2F58062 		sub	r2, r2, #1024
 974 0090 5268     		ldr	r2, [r2, #4]
 975 0092 12F4702F 		tst	r2, #983040
 976 0096 0AD1     		bne	.L165
 977              	.L166:
 978 0098 9A68     		ldr	r2, [r3, #8]
 979 009a 42F4A002 		orr	r2, r2, #5242880
 980              	.L172:
 981 009e 9A60     		str	r2, [r3, #8]
 982 00a0 10BD     		pop	{r4, pc}
 983              	.L159:
 984 00a2 A26A     		ldr	r2, [r4, #40]
 985 00a4 42F48012 		orr	r2, r2, #1048576
 986 00a8 A262     		str	r2, [r4, #40]
 987 00aa 4A68     		ldr	r2, [r1, #4]
 988 00ac CBE7     		b	.L174
 989              	.L165:
 990 00ae 9A68     		ldr	r2, [r3, #8]
 991 00b0 42F48012 		orr	r2, r2, #1048576
 992 00b4 F3E7     		b	.L172
 993              	.L157:
 994 00b6 0023     		movs	r3, #0
 995 00b8 84F82430 		strb	r3, [r4, #36]
 996 00bc 10BD     		pop	{r4, pc}
 997              	.L167:
 998 00be 0220     		movs	r0, #2
 999 00c0 10BD     		pop	{r4, pc}
 1000              	.L176:
 1001 00c2 00BF     		.align	2
 1002              	.L175:
 1003 00c4 00280140 		.word	1073817600
 1004 00c8 00240140 		.word	1073816576
 1006              		.section	.text.HAL_ADC_Start_DMA,"ax",%progbits
 1007              		.align	1
 1008              		.global	HAL_ADC_Start_DMA
 1009              		.syntax unified
ARM GAS  /tmp/ccetMXGP.s 			page 18


 1010              		.thumb
 1011              		.thumb_func
 1012              		.fpu softvfp
 1014              	HAL_ADC_Start_DMA:
 1015              		@ args = 0, pretend = 0, frame = 0
 1016              		@ frame_needed = 0, uses_anonymous_args = 0
 1017 0000 2DE9D841 		push	{r3, r4, r6, r7, r8, lr}
 1018 0004 9046     		mov	r8, r2
 1019 0006 404B     		ldr	r3, .L196
 1020 0008 0268     		ldr	r2, [r0]
 1021 000a 0446     		mov	r4, r0
 1022 000c 9A42     		cmp	r2, r3
 1023 000e 0F46     		mov	r7, r1
 1024 0010 02D0     		beq	.L178
 1025 0012 3E49     		ldr	r1, .L196+4
 1026 0014 8A42     		cmp	r2, r1
 1027 0016 03D1     		bne	.L179
 1028              	.L178:
 1029 0018 5B68     		ldr	r3, [r3, #4]
 1030 001a 13F4702F 		tst	r3, #983040
 1031 001e 6ED1     		bne	.L190
 1032              	.L179:
 1033 0020 94F82430 		ldrb	r3, [r4, #36]	@ zero_extendqisi2
 1034 0024 012B     		cmp	r3, #1
 1035 0026 6CD0     		beq	.L191
 1036 0028 0123     		movs	r3, #1
 1037 002a 2046     		mov	r0, r4
 1038 002c 84F82430 		strb	r3, [r4, #36]
 1039 0030 FFF7FEFF 		bl	ADC_Enable
 1040 0034 0646     		mov	r6, r0
 1041 0036 0028     		cmp	r0, #0
 1042 0038 5DD1     		bne	.L181
 1043 003a A06A     		ldr	r0, [r4, #40]
 1044 003c 2168     		ldr	r1, [r4]
 1045 003e 20F47060 		bic	r0, r0, #3840
 1046 0042 324B     		ldr	r3, .L196+4
 1047 0044 20F00100 		bic	r0, r0, #1
 1048 0048 40F48070 		orr	r0, r0, #256
 1049 004c 9942     		cmp	r1, r3
 1050 004e A062     		str	r0, [r4, #40]
 1051 0050 04D1     		bne	.L182
 1052 0052 2D4A     		ldr	r2, .L196
 1053 0054 5368     		ldr	r3, [r2, #4]
 1054 0056 13F4702F 		tst	r3, #983040
 1055 005a 3ED1     		bne	.L183
 1056              	.L182:
 1057 005c A36A     		ldr	r3, [r4, #40]
 1058 005e 23F48013 		bic	r3, r3, #1048576
 1059 0062 A362     		str	r3, [r4, #40]
 1060 0064 4B68     		ldr	r3, [r1, #4]
 1061 0066 5A05     		lsls	r2, r3, #21
 1062 0068 05D5     		bpl	.L185
 1063 006a A36A     		ldr	r3, [r4, #40]
 1064 006c 23F44053 		bic	r3, r3, #12288
 1065 0070 43F48053 		orr	r3, r3, #4096
 1066 0074 A362     		str	r3, [r4, #40]
 1067              	.L185:
ARM GAS  /tmp/ccetMXGP.s 			page 19


 1068 0076 A36A     		ldr	r3, [r4, #40]
 1069 0078 206A     		ldr	r0, [r4, #32]
 1070 007a 13F48053 		ands	r3, r3, #4096
 1071 007e 18BF     		it	ne
 1072 0080 E36A     		ldrne	r3, [r4, #44]
 1073 0082 3A46     		mov	r2, r7
 1074 0084 18BF     		it	ne
 1075 0086 23F00603 		bicne	r3, r3, #6
 1076 008a E362     		str	r3, [r4, #44]
 1077 008c 0023     		movs	r3, #0
 1078 008e 84F82430 		strb	r3, [r4, #36]
 1079 0092 1F4B     		ldr	r3, .L196+8
 1080 0094 4C31     		adds	r1, r1, #76
 1081 0096 8362     		str	r3, [r0, #40]
 1082 0098 1E4B     		ldr	r3, .L196+12
 1083 009a C362     		str	r3, [r0, #44]
 1084 009c 1E4B     		ldr	r3, .L196+16
 1085 009e 0363     		str	r3, [r0, #48]
 1086 00a0 6FF00203 		mvn	r3, #2
 1087 00a4 41F84C3C 		str	r3, [r1, #-76]
 1088 00a8 51F8443C 		ldr	r3, [r1, #-68]
 1089 00ac 43F48073 		orr	r3, r3, #256
 1090 00b0 41F8443C 		str	r3, [r1, #-68]
 1091 00b4 4346     		mov	r3, r8
 1092 00b6 FFF7FEFF 		bl	HAL_DMA_Start_IT
 1093 00ba 2368     		ldr	r3, [r4]
 1094 00bc 9A68     		ldr	r2, [r3, #8]
 1095 00be 02F46022 		and	r2, r2, #917504
 1096 00c2 B2F5602F 		cmp	r2, #917504
 1097 00c6 9A68     		ldr	r2, [r3, #8]
 1098 00c8 0CBF     		ite	eq
 1099 00ca 42F4A002 		orreq	r2, r2, #5242880
 1100 00ce 42F48012 		orrne	r2, r2, #1048576
 1101 00d2 9A60     		str	r2, [r3, #8]
 1102              	.L180:
 1103 00d4 3046     		mov	r0, r6
 1104 00d6 BDE8D881 		pop	{r3, r4, r6, r7, r8, pc}
 1105              	.L183:
 1106 00da A36A     		ldr	r3, [r4, #40]
 1107 00dc 43F48013 		orr	r3, r3, #1048576
 1108 00e0 A362     		str	r3, [r4, #40]
 1109 00e2 5368     		ldr	r3, [r2, #4]
 1110 00e4 5B05     		lsls	r3, r3, #21
 1111 00e6 41BF     		itttt	mi
 1112 00e8 A06A     		ldrmi	r0, [r4, #40]
 1113 00ea 20F44050 		bicmi	r0, r0, #12288
 1114 00ee 40F48050 		orrmi	r0, r0, #4096
 1115 00f2 A062     		strmi	r0, [r4, #40]
 1116 00f4 BFE7     		b	.L185
 1117              	.L181:
 1118 00f6 0023     		movs	r3, #0
 1119 00f8 84F82430 		strb	r3, [r4, #36]
 1120 00fc EAE7     		b	.L180
 1121              	.L190:
 1122 00fe 0126     		movs	r6, #1
 1123 0100 E8E7     		b	.L180
 1124              	.L191:
ARM GAS  /tmp/ccetMXGP.s 			page 20


 1125 0102 0226     		movs	r6, #2
 1126 0104 E6E7     		b	.L180
 1127              	.L197:
 1128 0106 00BF     		.align	2
 1129              	.L196:
 1130 0108 00240140 		.word	1073816576
 1131 010c 00280140 		.word	1073817600
 1132 0110 00000000 		.word	ADC_DMAConvCplt
 1133 0114 00000000 		.word	ADC_DMAHalfConvCplt
 1134 0118 00000000 		.word	ADC_DMAError
 1136              		.section	.text.ADC_ConversionStop_Disable,"ax",%progbits
 1137              		.align	1
 1138              		.global	ADC_ConversionStop_Disable
 1139              		.syntax unified
 1140              		.thumb
 1141              		.thumb_func
 1142              		.fpu softvfp
 1144              	ADC_ConversionStop_Disable:
 1145              		@ args = 0, pretend = 0, frame = 0
 1146              		@ frame_needed = 0, uses_anonymous_args = 0
 1147 0000 38B5     		push	{r3, r4, r5, lr}
 1148 0002 0368     		ldr	r3, [r0]
 1149 0004 0446     		mov	r4, r0
 1150 0006 9A68     		ldr	r2, [r3, #8]
 1151 0008 D207     		lsls	r2, r2, #31
 1152 000a 01D4     		bmi	.L199
 1153              	.L203:
 1154 000c 0020     		movs	r0, #0
 1155 000e 38BD     		pop	{r3, r4, r5, pc}
 1156              	.L199:
 1157 0010 9A68     		ldr	r2, [r3, #8]
 1158 0012 22F00102 		bic	r2, r2, #1
 1159 0016 9A60     		str	r2, [r3, #8]
 1160 0018 FFF7FEFF 		bl	HAL_GetTick
 1161 001c 0546     		mov	r5, r0
 1162              	.L201:
 1163 001e 2368     		ldr	r3, [r4]
 1164 0020 9B68     		ldr	r3, [r3, #8]
 1165 0022 DB07     		lsls	r3, r3, #31
 1166 0024 F2D5     		bpl	.L203
 1167 0026 FFF7FEFF 		bl	HAL_GetTick
 1168 002a 401B     		subs	r0, r0, r5
 1169 002c 0228     		cmp	r0, #2
 1170 002e F6D9     		bls	.L201
 1171 0030 A36A     		ldr	r3, [r4, #40]
 1172 0032 0120     		movs	r0, #1
 1173 0034 43F01003 		orr	r3, r3, #16
 1174 0038 A362     		str	r3, [r4, #40]
 1175 003a E36A     		ldr	r3, [r4, #44]
 1176 003c 43F00103 		orr	r3, r3, #1
 1177 0040 E362     		str	r3, [r4, #44]
 1178 0042 38BD     		pop	{r3, r4, r5, pc}
 1180              		.section	.text.HAL_ADC_Init,"ax",%progbits
 1181              		.align	1
 1182              		.global	HAL_ADC_Init
 1183              		.syntax unified
 1184              		.thumb
ARM GAS  /tmp/ccetMXGP.s 			page 21


 1185              		.thumb_func
 1186              		.fpu softvfp
 1188              	HAL_ADC_Init:
 1189              		@ args = 0, pretend = 0, frame = 0
 1190              		@ frame_needed = 0, uses_anonymous_args = 0
 1191 0000 F8B5     		push	{r3, r4, r5, r6, r7, lr}
 1192 0002 0446     		mov	r4, r0
 1193 0004 0028     		cmp	r0, #0
 1194 0006 77D0     		beq	.L217
 1195 0008 836A     		ldr	r3, [r0, #40]
 1196 000a 23B9     		cbnz	r3, .L207
 1197 000c C362     		str	r3, [r0, #44]
 1198 000e 80F82430 		strb	r3, [r0, #36]
 1199 0012 FFF7FEFF 		bl	HAL_ADC_MspInit
 1200              	.L207:
 1201 0016 2046     		mov	r0, r4
 1202 0018 FFF7FEFF 		bl	ADC_ConversionStop_Disable
 1203 001c A36A     		ldr	r3, [r4, #40]
 1204 001e 13F01003 		ands	r3, r3, #16
 1205 0022 6BD1     		bne	.L208
 1206 0024 0028     		cmp	r0, #0
 1207 0026 69D1     		bne	.L208
 1208 0028 A26A     		ldr	r2, [r4, #40]
 1209 002a 3749     		ldr	r1, .L224
 1210 002c 22F48852 		bic	r2, r2, #4352
 1211 0030 22F00202 		bic	r2, r2, #2
 1212 0034 42F00202 		orr	r2, r2, #2
 1213 0038 A262     		str	r2, [r4, #40]
 1214 003a 94E82400 		ldm	r4, {r2, r5}
 1215 003e 8A42     		cmp	r2, r1
 1216 0040 E169     		ldr	r1, [r4, #28]
 1217 0042 04D1     		bne	.L210
 1218 0044 B1F5402F 		cmp	r1, #786432
 1219 0048 08BF     		it	eq
 1220 004a 4FF40021 		moveq	r1, #524288
 1221              	.L210:
 1222 004e 267B     		ldrb	r6, [r4, #12]	@ zero_extendqisi2
 1223 0050 45EA4605 		orr	r5, r5, r6, lsl #1
 1224 0054 2943     		orrs	r1, r1, r5
 1225 0056 A568     		ldr	r5, [r4, #8]
 1226 0058 B5F5807F 		cmp	r5, #256
 1227 005c 35D0     		beq	.L219
 1228 005e 012D     		cmp	r5, #1
 1229 0060 08BF     		it	eq
 1230 0062 4FF48073 		moveq	r3, #256
 1231              	.L211:
 1232 0066 277D     		ldrb	r7, [r4, #20]	@ zero_extendqisi2
 1233 0068 012F     		cmp	r7, #1
 1234 006a 06D1     		bne	.L212
 1235 006c 7EBB     		cbnz	r6, .L213
 1236 006e A669     		ldr	r6, [r4, #24]
 1237 0070 013E     		subs	r6, r6, #1
 1238 0072 43EA4633 		orr	r3, r3, r6, lsl #13
 1239 0076 43F40063 		orr	r3, r3, #2048
 1240              	.L212:
 1241 007a 5668     		ldr	r6, [r2, #4]
 1242 007c B5F5807F 		cmp	r5, #256
ARM GAS  /tmp/ccetMXGP.s 			page 22


 1243 0080 26F46946 		bic	r6, r6, #59648
 1244 0084 43EA0603 		orr	r3, r3, r6
 1245 0088 5360     		str	r3, [r2, #4]
 1246 008a 9668     		ldr	r6, [r2, #8]
 1247 008c 1F4B     		ldr	r3, .L224+4
 1248 008e 03EA0603 		and	r3, r3, r6
 1249 0092 43EA0103 		orr	r3, r3, r1
 1250 0096 9360     		str	r3, [r2, #8]
 1251 0098 01D0     		beq	.L214
 1252 009a 012D     		cmp	r5, #1
 1253 009c 20D1     		bne	.L220
 1254              	.L214:
 1255 009e 2369     		ldr	r3, [r4, #16]
 1256 00a0 013B     		subs	r3, r3, #1
 1257 00a2 1B05     		lsls	r3, r3, #20
 1258              	.L215:
 1259 00a4 D56A     		ldr	r5, [r2, #44]
 1260 00a6 25F47005 		bic	r5, r5, #15728640
 1261 00aa 2B43     		orrs	r3, r3, r5
 1262 00ac D362     		str	r3, [r2, #44]
 1263 00ae 9268     		ldr	r2, [r2, #8]
 1264 00b0 174B     		ldr	r3, .L224+8
 1265 00b2 1340     		ands	r3, r3, r2
 1266 00b4 9942     		cmp	r1, r3
 1267 00b6 15D1     		bne	.L216
 1268 00b8 0023     		movs	r3, #0
 1269 00ba E362     		str	r3, [r4, #44]
 1270 00bc A36A     		ldr	r3, [r4, #40]
 1271 00be 23F00303 		bic	r3, r3, #3
 1272 00c2 43F00103 		orr	r3, r3, #1
 1273 00c6 A362     		str	r3, [r4, #40]
 1274 00c8 F8BD     		pop	{r3, r4, r5, r6, r7, pc}
 1275              	.L219:
 1276 00ca 2B46     		mov	r3, r5
 1277 00cc CBE7     		b	.L211
 1278              	.L213:
 1279 00ce A66A     		ldr	r6, [r4, #40]
 1280 00d0 46F02006 		orr	r6, r6, #32
 1281 00d4 A662     		str	r6, [r4, #40]
 1282 00d6 E66A     		ldr	r6, [r4, #44]
 1283 00d8 46F00106 		orr	r6, r6, #1
 1284 00dc E662     		str	r6, [r4, #44]
 1285 00de CCE7     		b	.L212
 1286              	.L220:
 1287 00e0 0023     		movs	r3, #0
 1288 00e2 DFE7     		b	.L215
 1289              	.L216:
 1290 00e4 A36A     		ldr	r3, [r4, #40]
 1291 00e6 23F01203 		bic	r3, r3, #18
 1292 00ea 43F01003 		orr	r3, r3, #16
 1293 00ee A362     		str	r3, [r4, #40]
 1294 00f0 E36A     		ldr	r3, [r4, #44]
 1295 00f2 43F00103 		orr	r3, r3, #1
 1296 00f6 E362     		str	r3, [r4, #44]
 1297              	.L217:
 1298 00f8 0120     		movs	r0, #1
 1299 00fa F8BD     		pop	{r3, r4, r5, r6, r7, pc}
ARM GAS  /tmp/ccetMXGP.s 			page 23


 1300              	.L208:
 1301 00fc A36A     		ldr	r3, [r4, #40]
 1302 00fe 43F01003 		orr	r3, r3, #16
 1303 0102 A362     		str	r3, [r4, #40]
 1304 0104 F8E7     		b	.L217
 1305              	.L225:
 1306 0106 00BF     		.align	2
 1307              	.L224:
 1308 0108 003C0140 		.word	1073822720
 1309 010c FDF7E1FF 		.word	-1968131
 1310 0110 FE0E1FFF 		.word	-14741762
 1312              		.section	.text.HAL_ADC_DeInit,"ax",%progbits
 1313              		.align	1
 1314              		.global	HAL_ADC_DeInit
 1315              		.syntax unified
 1316              		.thumb
 1317              		.thumb_func
 1318              		.fpu softvfp
 1320              	HAL_ADC_DeInit:
 1321              		@ args = 0, pretend = 0, frame = 0
 1322              		@ frame_needed = 0, uses_anonymous_args = 0
 1323 0000 38B5     		push	{r3, r4, r5, lr}
 1324 0002 0446     		mov	r4, r0
 1325 0004 0028     		cmp	r0, #0
 1326 0006 50D0     		beq	.L229
 1327 0008 836A     		ldr	r3, [r0, #40]
 1328 000a 43F00203 		orr	r3, r3, #2
 1329 000e 8362     		str	r3, [r0, #40]
 1330 0010 FFF7FEFF 		bl	ADC_ConversionStop_Disable
 1331 0014 0546     		mov	r5, r0
 1332 0016 0028     		cmp	r0, #0
 1333 0018 42D1     		bne	.L228
 1334 001a 6FF01F02 		mvn	r2, #31
 1335 001e 2368     		ldr	r3, [r4]
 1336 0020 2348     		ldr	r0, .L230
 1337 0022 1A60     		str	r2, [r3]
 1338 0024 5968     		ldr	r1, [r3, #4]
 1339 0026 234A     		ldr	r2, .L230+4
 1340 0028 0A40     		ands	r2, r2, r1
 1341 002a 5A60     		str	r2, [r3, #4]
 1342 002c 9968     		ldr	r1, [r3, #8]
 1343 002e 224A     		ldr	r2, .L230+8
 1344 0030 0A40     		ands	r2, r2, r1
 1345 0032 9A60     		str	r2, [r3, #8]
 1346 0034 DA68     		ldr	r2, [r3, #12]
 1347 0036 02F07F42 		and	r2, r2, #-16777216
 1348 003a DA60     		str	r2, [r3, #12]
 1349 003c 1A69     		ldr	r2, [r3, #16]
 1350 003e 02F04042 		and	r2, r2, #-1073741824
 1351 0042 1A61     		str	r2, [r3, #16]
 1352 0044 5969     		ldr	r1, [r3, #20]
 1353 0046 1D4A     		ldr	r2, .L230+12
 1354 0048 1140     		ands	r1, r1, r2
 1355 004a 5961     		str	r1, [r3, #20]
 1356 004c 9969     		ldr	r1, [r3, #24]
 1357 004e 1140     		ands	r1, r1, r2
 1358 0050 9961     		str	r1, [r3, #24]
ARM GAS  /tmp/ccetMXGP.s 			page 24


 1359 0052 D969     		ldr	r1, [r3, #28]
 1360 0054 1140     		ands	r1, r1, r2
 1361 0056 D961     		str	r1, [r3, #28]
 1362 0058 196A     		ldr	r1, [r3, #32]
 1363 005a 1140     		ands	r1, r1, r2
 1364 005c 1962     		str	r1, [r3, #32]
 1365 005e 596A     		ldr	r1, [r3, #36]
 1366 0060 1140     		ands	r1, r1, r2
 1367 0062 5962     		str	r1, [r3, #36]
 1368 0064 996A     		ldr	r1, [r3, #40]
 1369 0066 0A40     		ands	r2, r2, r1
 1370 0068 9A62     		str	r2, [r3, #40]
 1371 006a DA6A     		ldr	r2, [r3, #44]
 1372 006c 02F07F42 		and	r2, r2, #-16777216
 1373 0070 DA62     		str	r2, [r3, #44]
 1374 0072 DA6A     		ldr	r2, [r3, #44]
 1375 0074 02F07F42 		and	r2, r2, #-16777216
 1376 0078 DA62     		str	r2, [r3, #44]
 1377 007a 1A6B     		ldr	r2, [r3, #48]
 1378 007c 02F04042 		and	r2, r2, #-1073741824
 1379 0080 1A63     		str	r2, [r3, #48]
 1380 0082 5A6B     		ldr	r2, [r3, #52]
 1381 0084 02F04042 		and	r2, r2, #-1073741824
 1382 0088 5A63     		str	r2, [r3, #52]
 1383 008a 996B     		ldr	r1, [r3, #56]
 1384 008c 0140     		ands	r1, r1, r0
 1385 008e 9963     		str	r1, [r3, #56]
 1386 0090 9A6B     		ldr	r2, [r3, #56]
 1387 0092 0240     		ands	r2, r2, r0
 1388 0094 9A63     		str	r2, [r3, #56]
 1389 0096 2046     		mov	r0, r4
 1390 0098 FFF7FEFF 		bl	HAL_ADC_MspDeInit
 1391 009c E562     		str	r5, [r4, #44]
 1392 009e A562     		str	r5, [r4, #40]
 1393              	.L228:
 1394 00a0 0023     		movs	r3, #0
 1395 00a2 84F82430 		strb	r3, [r4, #36]
 1396              	.L227:
 1397 00a6 2846     		mov	r0, r5
 1398 00a8 38BD     		pop	{r3, r4, r5, pc}
 1399              	.L229:
 1400 00aa 0125     		movs	r5, #1
 1401 00ac FBE7     		b	.L227
 1402              	.L231:
 1403 00ae 00BF     		.align	2
 1404              	.L230:
 1405 00b0 0000C0FF 		.word	-4194304
 1406 00b4 00003FFF 		.word	-12648448
 1407 00b8 F00601FF 		.word	-16709904
 1408 00bc 00F0FFFF 		.word	-4096
 1410              		.section	.text.HAL_ADC_Stop,"ax",%progbits
 1411              		.align	1
 1412              		.global	HAL_ADC_Stop
 1413              		.syntax unified
 1414              		.thumb
 1415              		.thumb_func
 1416              		.fpu softvfp
ARM GAS  /tmp/ccetMXGP.s 			page 25


 1418              	HAL_ADC_Stop:
 1419              		@ args = 0, pretend = 0, frame = 0
 1420              		@ frame_needed = 0, uses_anonymous_args = 0
 1421 0000 90F82430 		ldrb	r3, [r0, #36]	@ zero_extendqisi2
 1422 0004 10B5     		push	{r4, lr}
 1423 0006 012B     		cmp	r3, #1
 1424 0008 0446     		mov	r4, r0
 1425 000a 11D0     		beq	.L235
 1426 000c 0123     		movs	r3, #1
 1427 000e 80F82430 		strb	r3, [r0, #36]
 1428 0012 FFF7FEFF 		bl	ADC_ConversionStop_Disable
 1429 0016 38B9     		cbnz	r0, .L234
 1430 0018 A36A     		ldr	r3, [r4, #40]
 1431 001a 23F48853 		bic	r3, r3, #4352
 1432 001e 23F00103 		bic	r3, r3, #1
 1433 0022 43F00103 		orr	r3, r3, #1
 1434 0026 A362     		str	r3, [r4, #40]
 1435              	.L234:
 1436 0028 0023     		movs	r3, #0
 1437 002a 84F82430 		strb	r3, [r4, #36]
 1438 002e 10BD     		pop	{r4, pc}
 1439              	.L235:
 1440 0030 0220     		movs	r0, #2
 1441 0032 10BD     		pop	{r4, pc}
 1443              		.section	.text.HAL_ADC_Stop_IT,"ax",%progbits
 1444              		.align	1
 1445              		.global	HAL_ADC_Stop_IT
 1446              		.syntax unified
 1447              		.thumb
 1448              		.thumb_func
 1449              		.fpu softvfp
 1451              	HAL_ADC_Stop_IT:
 1452              		@ args = 0, pretend = 0, frame = 0
 1453              		@ frame_needed = 0, uses_anonymous_args = 0
 1454 0000 90F82430 		ldrb	r3, [r0, #36]	@ zero_extendqisi2
 1455 0004 10B5     		push	{r4, lr}
 1456 0006 012B     		cmp	r3, #1
 1457 0008 0446     		mov	r4, r0
 1458 000a 16D0     		beq	.L239
 1459 000c 0123     		movs	r3, #1
 1460 000e 80F82430 		strb	r3, [r0, #36]
 1461 0012 FFF7FEFF 		bl	ADC_ConversionStop_Disable
 1462 0016 60B9     		cbnz	r0, .L238
 1463 0018 2268     		ldr	r2, [r4]
 1464 001a 5368     		ldr	r3, [r2, #4]
 1465 001c 23F02003 		bic	r3, r3, #32
 1466 0020 5360     		str	r3, [r2, #4]
 1467 0022 A36A     		ldr	r3, [r4, #40]
 1468 0024 23F48853 		bic	r3, r3, #4352
 1469 0028 23F00103 		bic	r3, r3, #1
 1470 002c 43F00103 		orr	r3, r3, #1
 1471 0030 A362     		str	r3, [r4, #40]
 1472              	.L238:
 1473 0032 0023     		movs	r3, #0
 1474 0034 84F82430 		strb	r3, [r4, #36]
 1475 0038 10BD     		pop	{r4, pc}
 1476              	.L239:
ARM GAS  /tmp/ccetMXGP.s 			page 26


 1477 003a 0220     		movs	r0, #2
 1478 003c 10BD     		pop	{r4, pc}
 1480              		.section	.text.HAL_ADC_Stop_DMA,"ax",%progbits
 1481              		.align	1
 1482              		.global	HAL_ADC_Stop_DMA
 1483              		.syntax unified
 1484              		.thumb
 1485              		.thumb_func
 1486              		.fpu softvfp
 1488              	HAL_ADC_Stop_DMA:
 1489              		@ args = 0, pretend = 0, frame = 0
 1490              		@ frame_needed = 0, uses_anonymous_args = 0
 1491 0000 90F82430 		ldrb	r3, [r0, #36]	@ zero_extendqisi2
 1492 0004 10B5     		push	{r4, lr}
 1493 0006 012B     		cmp	r3, #1
 1494 0008 0446     		mov	r4, r0
 1495 000a 1DD0     		beq	.L244
 1496 000c 0123     		movs	r3, #1
 1497 000e 80F82430 		strb	r3, [r0, #36]
 1498 0012 FFF7FEFF 		bl	ADC_ConversionStop_Disable
 1499 0016 80B9     		cbnz	r0, .L242
 1500 0018 2268     		ldr	r2, [r4]
 1501 001a 206A     		ldr	r0, [r4, #32]
 1502 001c 9368     		ldr	r3, [r2, #8]
 1503 001e 23F48073 		bic	r3, r3, #256
 1504 0022 9360     		str	r3, [r2, #8]
 1505 0024 FFF7FEFF 		bl	HAL_DMA_Abort
 1506 0028 A36A     		ldr	r3, [r4, #40]
 1507 002a 50B9     		cbnz	r0, .L243
 1508 002c 23F48853 		bic	r3, r3, #4352
 1509 0030 23F00103 		bic	r3, r3, #1
 1510 0034 43F00103 		orr	r3, r3, #1
 1511              	.L245:
 1512 0038 A362     		str	r3, [r4, #40]
 1513              	.L242:
 1514 003a 0023     		movs	r3, #0
 1515 003c 84F82430 		strb	r3, [r4, #36]
 1516 0040 10BD     		pop	{r4, pc}
 1517              	.L243:
 1518 0042 43F04003 		orr	r3, r3, #64
 1519 0046 F7E7     		b	.L245
 1520              	.L244:
 1521 0048 0220     		movs	r0, #2
 1522 004a 10BD     		pop	{r4, pc}
 1524              		.ident	"GCC: (15:6.3.1+svn253039-1build1) 6.3.1 20170620"
ARM GAS  /tmp/ccetMXGP.s 			page 27


DEFINED SYMBOLS
                            *ABS*:0000000000000000 stm32f1xx_hal_adc.c
     /tmp/ccetMXGP.s:13     .text.HAL_ADC_MspInit:0000000000000000 $t
     /tmp/ccetMXGP.s:20     .text.HAL_ADC_MspInit:0000000000000000 HAL_ADC_MspInit
     /tmp/ccetMXGP.s:27     .text.HAL_ADC_MspDeInit:0000000000000000 $t
     /tmp/ccetMXGP.s:34     .text.HAL_ADC_MspDeInit:0000000000000000 HAL_ADC_MspDeInit
     /tmp/ccetMXGP.s:41     .text.HAL_ADC_PollForConversion:0000000000000000 $t
     /tmp/ccetMXGP.s:48     .text.HAL_ADC_PollForConversion:0000000000000000 HAL_ADC_PollForConversion
     /tmp/ccetMXGP.s:201    .text.HAL_ADC_PollForConversion:0000000000000124 $d
     /tmp/ccetMXGP.s:209    .text.HAL_ADC_PollForEvent:0000000000000000 $t
     /tmp/ccetMXGP.s:216    .text.HAL_ADC_PollForEvent:0000000000000000 HAL_ADC_PollForEvent
     /tmp/ccetMXGP.s:258    .text.HAL_ADC_GetValue:0000000000000000 $t
     /tmp/ccetMXGP.s:265    .text.HAL_ADC_GetValue:0000000000000000 HAL_ADC_GetValue
     /tmp/ccetMXGP.s:274    .text.HAL_ADC_ConvCpltCallback:0000000000000000 $t
     /tmp/ccetMXGP.s:281    .text.HAL_ADC_ConvCpltCallback:0000000000000000 HAL_ADC_ConvCpltCallback
     /tmp/ccetMXGP.s:288    .text.ADC_DMAConvCplt:0000000000000000 $t
     /tmp/ccetMXGP.s:295    .text.ADC_DMAConvCplt:0000000000000000 ADC_DMAConvCplt
     /tmp/ccetMXGP.s:333    .text.HAL_ADC_ConvHalfCpltCallback:0000000000000000 $t
     /tmp/ccetMXGP.s:340    .text.HAL_ADC_ConvHalfCpltCallback:0000000000000000 HAL_ADC_ConvHalfCpltCallback
     /tmp/ccetMXGP.s:347    .text.ADC_DMAHalfConvCplt:0000000000000000 $t
     /tmp/ccetMXGP.s:354    .text.ADC_DMAHalfConvCplt:0000000000000000 ADC_DMAHalfConvCplt
     /tmp/ccetMXGP.s:363    .text.HAL_ADC_LevelOutOfWindowCallback:0000000000000000 $t
     /tmp/ccetMXGP.s:370    .text.HAL_ADC_LevelOutOfWindowCallback:0000000000000000 HAL_ADC_LevelOutOfWindowCallback
     /tmp/ccetMXGP.s:377    .text.HAL_ADC_IRQHandler:0000000000000000 $t
     /tmp/ccetMXGP.s:384    .text.HAL_ADC_IRQHandler:0000000000000000 HAL_ADC_IRQHandler
     /tmp/ccetMXGP.s:492    .text.HAL_ADC_ErrorCallback:0000000000000000 $t
     /tmp/ccetMXGP.s:499    .text.HAL_ADC_ErrorCallback:0000000000000000 HAL_ADC_ErrorCallback
     /tmp/ccetMXGP.s:506    .text.ADC_DMAError:0000000000000000 $t
     /tmp/ccetMXGP.s:513    .text.ADC_DMAError:0000000000000000 ADC_DMAError
     /tmp/ccetMXGP.s:528    .text.HAL_ADC_ConfigChannel:0000000000000000 $t
     /tmp/ccetMXGP.s:535    .text.HAL_ADC_ConfigChannel:0000000000000000 HAL_ADC_ConfigChannel
     /tmp/ccetMXGP.s:661    .text.HAL_ADC_ConfigChannel:00000000000000fc $d
     /tmp/ccetMXGP.s:666    .text.HAL_ADC_AnalogWDGConfig:0000000000000000 $t
     /tmp/ccetMXGP.s:673    .text.HAL_ADC_AnalogWDGConfig:0000000000000000 HAL_ADC_AnalogWDGConfig
     /tmp/ccetMXGP.s:712    .text.HAL_ADC_AnalogWDGConfig:000000000000004c $d
     /tmp/ccetMXGP.s:715    .text.HAL_ADC_GetState:0000000000000000 $t
     /tmp/ccetMXGP.s:722    .text.HAL_ADC_GetState:0000000000000000 HAL_ADC_GetState
     /tmp/ccetMXGP.s:730    .text.HAL_ADC_GetError:0000000000000000 $t
     /tmp/ccetMXGP.s:737    .text.HAL_ADC_GetError:0000000000000000 HAL_ADC_GetError
     /tmp/ccetMXGP.s:745    .text.ADC_Enable:0000000000000000 $t
     /tmp/ccetMXGP.s:752    .text.ADC_Enable:0000000000000000 ADC_Enable
     /tmp/ccetMXGP.s:808    .text.ADC_Enable:0000000000000068 $d
     /tmp/ccetMXGP.s:812    .text.HAL_ADC_Start:0000000000000000 $t
     /tmp/ccetMXGP.s:819    .text.HAL_ADC_Start:0000000000000000 HAL_ADC_Start
     /tmp/ccetMXGP.s:904    .text.HAL_ADC_Start:00000000000000bc $d
     /tmp/ccetMXGP.s:908    .text.HAL_ADC_Start_IT:0000000000000000 $t
     /tmp/ccetMXGP.s:915    .text.HAL_ADC_Start_IT:0000000000000000 HAL_ADC_Start_IT
     /tmp/ccetMXGP.s:1003   .text.HAL_ADC_Start_IT:00000000000000c4 $d
     /tmp/ccetMXGP.s:1007   .text.HAL_ADC_Start_DMA:0000000000000000 $t
     /tmp/ccetMXGP.s:1014   .text.HAL_ADC_Start_DMA:0000000000000000 HAL_ADC_Start_DMA
     /tmp/ccetMXGP.s:1130   .text.HAL_ADC_Start_DMA:0000000000000108 $d
     /tmp/ccetMXGP.s:1137   .text.ADC_ConversionStop_Disable:0000000000000000 $t
     /tmp/ccetMXGP.s:1144   .text.ADC_ConversionStop_Disable:0000000000000000 ADC_ConversionStop_Disable
     /tmp/ccetMXGP.s:1181   .text.HAL_ADC_Init:0000000000000000 $t
     /tmp/ccetMXGP.s:1188   .text.HAL_ADC_Init:0000000000000000 HAL_ADC_Init
     /tmp/ccetMXGP.s:1308   .text.HAL_ADC_Init:0000000000000108 $d
     /tmp/ccetMXGP.s:1313   .text.HAL_ADC_DeInit:0000000000000000 $t
ARM GAS  /tmp/ccetMXGP.s 			page 28


     /tmp/ccetMXGP.s:1320   .text.HAL_ADC_DeInit:0000000000000000 HAL_ADC_DeInit
     /tmp/ccetMXGP.s:1405   .text.HAL_ADC_DeInit:00000000000000b0 $d
     /tmp/ccetMXGP.s:1411   .text.HAL_ADC_Stop:0000000000000000 $t
     /tmp/ccetMXGP.s:1418   .text.HAL_ADC_Stop:0000000000000000 HAL_ADC_Stop
     /tmp/ccetMXGP.s:1444   .text.HAL_ADC_Stop_IT:0000000000000000 $t
     /tmp/ccetMXGP.s:1451   .text.HAL_ADC_Stop_IT:0000000000000000 HAL_ADC_Stop_IT
     /tmp/ccetMXGP.s:1481   .text.HAL_ADC_Stop_DMA:0000000000000000 $t
     /tmp/ccetMXGP.s:1488   .text.HAL_ADC_Stop_DMA:0000000000000000 HAL_ADC_Stop_DMA

UNDEFINED SYMBOLS
HAL_GetTick
HAL_RCCEx_GetPeriphCLKFreq
SystemCoreClock
HAL_ADCEx_InjectedConvCpltCallback
HAL_DMA_Start_IT
HAL_DMA_Abort
