ARM GAS  /tmp/ccZfeEvZ.s 			page 1


   1              		.cpu cortex-m3
   2              		.eabi_attribute 20, 1
   3              		.eabi_attribute 21, 1
   4              		.eabi_attribute 23, 3
   5              		.eabi_attribute 24, 1
   6              		.eabi_attribute 25, 1
   7              		.eabi_attribute 26, 1
   8              		.eabi_attribute 30, 4
   9              		.eabi_attribute 34, 1
  10              		.eabi_attribute 18, 4
  11              		.file	"stm32f1xx_hal_nand.c"
  12              		.section	.text.HAL_NAND_MspInit,"ax",%progbits
  13              		.align	1
  14              		.weak	HAL_NAND_MspInit
  15              		.syntax unified
  16              		.thumb
  17              		.thumb_func
  18              		.fpu softvfp
  20              	HAL_NAND_MspInit:
  21              		@ args = 0, pretend = 0, frame = 0
  22              		@ frame_needed = 0, uses_anonymous_args = 0
  23              		@ link register save eliminated.
  24 0000 7047     		bx	lr
  26              		.section	.text.HAL_NAND_Init,"ax",%progbits
  27              		.align	1
  28              		.global	HAL_NAND_Init
  29              		.syntax unified
  30              		.thumb
  31              		.thumb_func
  32              		.fpu softvfp
  34              	HAL_NAND_Init:
  35              		@ args = 0, pretend = 0, frame = 0
  36              		@ frame_needed = 0, uses_anonymous_args = 0
  37 0000 70B5     		push	{r4, r5, r6, lr}
  38 0002 0E46     		mov	r6, r1
  39 0004 1546     		mov	r5, r2
  40 0006 0446     		mov	r4, r0
  41 0008 40B3     		cbz	r0, .L7
  42 000a 90F82130 		ldrb	r3, [r0, #33]	@ zero_extendqisi2
  43 000e 03F0FF02 		and	r2, r3, #255
  44 0012 1BB9     		cbnz	r3, .L4
  45 0014 80F82020 		strb	r2, [r0, #32]
  46 0018 FFF7FEFF 		bl	HAL_NAND_MspInit
  47              	.L4:
  48 001c 211D     		adds	r1, r4, #4
  49 001e 2068     		ldr	r0, [r4]
  50 0020 FFF7FEFF 		bl	FSMC_NAND_Init
  51 0024 6268     		ldr	r2, [r4, #4]
  52 0026 3146     		mov	r1, r6
  53 0028 2068     		ldr	r0, [r4]
  54 002a FFF7FEFF 		bl	FSMC_NAND_CommonSpace_Timing_Init
  55 002e 6268     		ldr	r2, [r4, #4]
  56 0030 2946     		mov	r1, r5
  57 0032 2068     		ldr	r0, [r4]
  58 0034 FFF7FEFF 		bl	FSMC_NAND_AttributeSpace_Timing_Init
  59 0038 6368     		ldr	r3, [r4, #4]
  60 003a 0020     		movs	r0, #0
ARM GAS  /tmp/ccZfeEvZ.s 			page 2


  61 003c 102B     		cmp	r3, #16
  62 003e 2368     		ldr	r3, [r4]
  63 0040 0BBF     		itete	eq
  64 0042 1A68     		ldreq	r2, [r3]
  65 0044 1A6A     		ldrne	r2, [r3, #32]
  66 0046 42F00402 		orreq	r2, r2, #4
  67 004a 42F00402 		orrne	r2, r2, #4
  68 004e 0CBF     		ite	eq
  69 0050 1A60     		streq	r2, [r3]
  70 0052 1A62     		strne	r2, [r3, #32]
  71 0054 0123     		movs	r3, #1
  72 0056 84F82130 		strb	r3, [r4, #33]
  73 005a 70BD     		pop	{r4, r5, r6, pc}
  74              	.L7:
  75 005c 0120     		movs	r0, #1
  76 005e 70BD     		pop	{r4, r5, r6, pc}
  78              		.section	.text.HAL_NAND_MspDeInit,"ax",%progbits
  79              		.align	1
  80              		.weak	HAL_NAND_MspDeInit
  81              		.syntax unified
  82              		.thumb
  83              		.thumb_func
  84              		.fpu softvfp
  86              	HAL_NAND_MspDeInit:
  87              		@ args = 0, pretend = 0, frame = 0
  88              		@ frame_needed = 0, uses_anonymous_args = 0
  89              		@ link register save eliminated.
  90 0000 7047     		bx	lr
  92              		.section	.text.HAL_NAND_DeInit,"ax",%progbits
  93              		.align	1
  94              		.global	HAL_NAND_DeInit
  95              		.syntax unified
  96              		.thumb
  97              		.thumb_func
  98              		.fpu softvfp
 100              	HAL_NAND_DeInit:
 101              		@ args = 0, pretend = 0, frame = 0
 102              		@ frame_needed = 0, uses_anonymous_args = 0
 103 0000 10B5     		push	{r4, lr}
 104 0002 0446     		mov	r4, r0
 105 0004 FFF7FEFF 		bl	HAL_NAND_MspDeInit
 106 0008 94E80300 		ldm	r4, {r0, r1}
 107 000c FFF7FEFF 		bl	FSMC_NAND_DeInit
 108 0010 0020     		movs	r0, #0
 109 0012 84F82100 		strb	r0, [r4, #33]
 110 0016 84F82000 		strb	r0, [r4, #32]
 111 001a 10BD     		pop	{r4, pc}
 113              		.section	.text.HAL_NAND_ITCallback,"ax",%progbits
 114              		.align	1
 115              		.weak	HAL_NAND_ITCallback
 116              		.syntax unified
 117              		.thumb
 118              		.thumb_func
 119              		.fpu softvfp
 121              	HAL_NAND_ITCallback:
 122              		@ args = 0, pretend = 0, frame = 0
 123              		@ frame_needed = 0, uses_anonymous_args = 0
ARM GAS  /tmp/ccZfeEvZ.s 			page 3


 124              		@ link register save eliminated.
 125 0000 7047     		bx	lr
 127              		.section	.text.HAL_NAND_IRQHandler,"ax",%progbits
 128              		.align	1
 129              		.global	HAL_NAND_IRQHandler
 130              		.syntax unified
 131              		.thumb
 132              		.thumb_func
 133              		.fpu softvfp
 135              	HAL_NAND_IRQHandler:
 136              		@ args = 0, pretend = 0, frame = 0
 137              		@ frame_needed = 0, uses_anonymous_args = 0
 138 0000 4368     		ldr	r3, [r0, #4]
 139 0002 10B5     		push	{r4, lr}
 140 0004 102B     		cmp	r3, #16
 141 0006 0446     		mov	r4, r0
 142 0008 0368     		ldr	r3, [r0]
 143 000a 1CD1     		bne	.L12
 144 000c 5B68     		ldr	r3, [r3, #4]
 145 000e DA07     		lsls	r2, r3, #31
 146 0010 1CD4     		bmi	.L13
 147              	.L18:
 148 0012 2368     		ldr	r3, [r4]
 149 0014 5B68     		ldr	r3, [r3, #4]
 150 0016 9B07     		lsls	r3, r3, #30
 151 0018 2CD4     		bmi	.L14
 152              	.L15:
 153 001a 2368     		ldr	r3, [r4]
 154 001c 5B68     		ldr	r3, [r3, #4]
 155 001e 5907     		lsls	r1, r3, #29
 156 0020 3CD4     		bmi	.L19
 157              	.L20:
 158 0022 2368     		ldr	r3, [r4]
 159 0024 5B68     		ldr	r3, [r3, #4]
 160              	.L38:
 161 0026 C3F38013 		ubfx	r3, r3, #6, #1
 162 002a 002B     		cmp	r3, #0
 163 002c 4DD0     		beq	.L11
 164 002e 2046     		mov	r0, r4
 165 0030 FFF7FEFF 		bl	HAL_NAND_ITCallback
 166 0034 6368     		ldr	r3, [r4, #4]
 167 0036 102B     		cmp	r3, #16
 168 0038 2368     		ldr	r3, [r4]
 169 003a 42D1     		bne	.L29
 170 003c 5A68     		ldr	r2, [r3, #4]
 171 003e 22F04002 		bic	r2, r2, #64
 172 0042 5A60     		str	r2, [r3, #4]
 173 0044 10BD     		pop	{r4, pc}
 174              	.L12:
 175 0046 5B6A     		ldr	r3, [r3, #36]
 176 0048 D807     		lsls	r0, r3, #31
 177 004a 0FD5     		bpl	.L16
 178              	.L13:
 179 004c 2046     		mov	r0, r4
 180 004e FFF7FEFF 		bl	HAL_NAND_ITCallback
 181 0052 6368     		ldr	r3, [r4, #4]
 182 0054 102B     		cmp	r3, #16
ARM GAS  /tmp/ccZfeEvZ.s 			page 4


 183 0056 2368     		ldr	r3, [r4]
 184 0058 04D1     		bne	.L17
 185 005a 5A68     		ldr	r2, [r3, #4]
 186 005c 22F00102 		bic	r2, r2, #1
 187 0060 5A60     		str	r2, [r3, #4]
 188 0062 D6E7     		b	.L18
 189              	.L17:
 190 0064 5A6A     		ldr	r2, [r3, #36]
 191 0066 22F00102 		bic	r2, r2, #1
 192 006a 5A62     		str	r2, [r3, #36]
 193              	.L16:
 194 006c 2368     		ldr	r3, [r4]
 195 006e 5B6A     		ldr	r3, [r3, #36]
 196 0070 9A07     		lsls	r2, r3, #30
 197 0072 0FD5     		bpl	.L23
 198              	.L14:
 199 0074 2046     		mov	r0, r4
 200 0076 FFF7FEFF 		bl	HAL_NAND_ITCallback
 201 007a 6368     		ldr	r3, [r4, #4]
 202 007c 102B     		cmp	r3, #16
 203 007e 2368     		ldr	r3, [r4]
 204 0080 04D1     		bne	.L36
 205 0082 5A68     		ldr	r2, [r3, #4]
 206 0084 22F00202 		bic	r2, r2, #2
 207 0088 5A60     		str	r2, [r3, #4]
 208 008a C6E7     		b	.L15
 209              	.L36:
 210 008c 5A6A     		ldr	r2, [r3, #36]
 211 008e 22F00202 		bic	r2, r2, #2
 212 0092 5A62     		str	r2, [r3, #36]
 213              	.L23:
 214 0094 2368     		ldr	r3, [r4]
 215 0096 5B6A     		ldr	r3, [r3, #36]
 216 0098 5B07     		lsls	r3, r3, #29
 217 009a 0FD5     		bpl	.L27
 218              	.L19:
 219 009c 2046     		mov	r0, r4
 220 009e FFF7FEFF 		bl	HAL_NAND_ITCallback
 221 00a2 6368     		ldr	r3, [r4, #4]
 222 00a4 102B     		cmp	r3, #16
 223 00a6 2368     		ldr	r3, [r4]
 224 00a8 04D1     		bne	.L37
 225 00aa 5A68     		ldr	r2, [r3, #4]
 226 00ac 22F00402 		bic	r2, r2, #4
 227 00b0 5A60     		str	r2, [r3, #4]
 228 00b2 B6E7     		b	.L20
 229              	.L37:
 230 00b4 5A6A     		ldr	r2, [r3, #36]
 231 00b6 22F00402 		bic	r2, r2, #4
 232 00ba 5A62     		str	r2, [r3, #36]
 233              	.L27:
 234 00bc 2368     		ldr	r3, [r4]
 235 00be 5B6A     		ldr	r3, [r3, #36]
 236 00c0 B1E7     		b	.L38
 237              	.L29:
 238 00c2 5A6A     		ldr	r2, [r3, #36]
 239 00c4 22F04002 		bic	r2, r2, #64
ARM GAS  /tmp/ccZfeEvZ.s 			page 5


 240 00c8 5A62     		str	r2, [r3, #36]
 241              	.L11:
 242 00ca 10BD     		pop	{r4, pc}
 244              		.section	.text.HAL_NAND_Read_ID,"ax",%progbits
 245              		.align	1
 246              		.global	HAL_NAND_Read_ID
 247              		.syntax unified
 248              		.thumb
 249              		.thumb_func
 250              		.fpu softvfp
 252              	HAL_NAND_Read_ID:
 253              		@ args = 0, pretend = 0, frame = 8
 254              		@ frame_needed = 0, uses_anonymous_args = 0
 255 0000 37B5     		push	{r0, r1, r2, r4, r5, lr}
 256 0002 0024     		movs	r4, #0
 257 0004 0094     		str	r4, [sp]
 258 0006 0194     		str	r4, [sp, #4]
 259 0008 90F82130 		ldrb	r3, [r0, #33]	@ zero_extendqisi2
 260 000c DBB2     		uxtb	r3, r3
 261 000e 022B     		cmp	r3, #2
 262 0010 35D0     		beq	.L40
 263 0012 90F82120 		ldrb	r2, [r0, #33]	@ zero_extendqisi2
 264 0016 D2B2     		uxtb	r2, r2
 265 0018 012A     		cmp	r2, #1
 266 001a 41D1     		bne	.L45
 267 001c 90F82030 		ldrb	r3, [r0, #32]	@ zero_extendqisi2
 268 0020 012B     		cmp	r3, #1
 269 0022 4FF00203 		mov	r3, #2
 270 0026 2AD0     		beq	.L40
 271 0028 80F82130 		strb	r3, [r0, #33]
 272 002c 4368     		ldr	r3, [r0, #4]
 273 002e 9025     		movs	r5, #144
 274 0030 102B     		cmp	r3, #16
 275 0032 0CBF     		ite	eq
 276 0034 4FF0E043 		moveq	r3, #1879048192
 277 0038 4FF00043 		movne	r3, #-2147483648
 278 003c 80F82020 		strb	r2, [r0, #32]
 279 0040 43F48032 		orr	r2, r3, #65536
 280 0044 1570     		strb	r5, [r2]
 281              		.syntax unified
 282              	@ 879 "./cmsis/inc/cmsis_gcc.h" 1
 283 0046 BFF34F8F 		dsb 0xF
 284              	@ 0 "" 2
 285              		.thumb
 286              		.syntax unified
 287 004a 43F40032 		orr	r2, r3, #131072
 288 004e 1470     		strb	r4, [r2]
 289              		.syntax unified
 290              	@ 879 "./cmsis/inc/cmsis_gcc.h" 1
 291 0050 BFF34F8F 		dsb 0xF
 292              	@ 0 "" 2
 293              		.thumb
 294              		.syntax unified
 295 0054 C268     		ldr	r2, [r0, #12]
 296 0056 AAB9     		cbnz	r2, .L42
 297 0058 1B68     		ldr	r3, [r3]
 298 005a 0093     		str	r3, [sp]
ARM GAS  /tmp/ccZfeEvZ.s 			page 6


 299 005c 009B     		ldr	r3, [sp]
 300 005e 0B70     		strb	r3, [r1]
 301 0060 009B     		ldr	r3, [sp]
 302 0062 1B0A     		lsrs	r3, r3, #8
 303 0064 4B70     		strb	r3, [r1, #1]
 304 0066 009B     		ldr	r3, [sp]
 305 0068 1B0C     		lsrs	r3, r3, #16
 306 006a 8B70     		strb	r3, [r1, #2]
 307 006c 009B     		ldr	r3, [sp]
 308 006e 1B0E     		lsrs	r3, r3, #24
 309              	.L48:
 310 0070 CB70     		strb	r3, [r1, #3]
 311 0072 0123     		movs	r3, #1
 312 0074 80F82130 		strb	r3, [r0, #33]
 313 0078 0023     		movs	r3, #0
 314 007a 80F82030 		strb	r3, [r0, #32]
 315              	.L40:
 316 007e 1846     		mov	r0, r3
 317 0080 03B0     		add	sp, sp, #12
 318              		@ sp needed
 319 0082 30BD     		pop	{r4, r5, pc}
 320              	.L42:
 321 0084 1A68     		ldr	r2, [r3]
 322 0086 0092     		str	r2, [sp]
 323 0088 1B69     		ldr	r3, [r3, #16]
 324 008a 0193     		str	r3, [sp, #4]
 325 008c 009B     		ldr	r3, [sp]
 326 008e 0B70     		strb	r3, [r1]
 327 0090 009B     		ldr	r3, [sp]
 328 0092 1B0C     		lsrs	r3, r3, #16
 329 0094 4B70     		strb	r3, [r1, #1]
 330 0096 019B     		ldr	r3, [sp, #4]
 331 0098 8B70     		strb	r3, [r1, #2]
 332 009a 019B     		ldr	r3, [sp, #4]
 333 009c 1B0C     		lsrs	r3, r3, #16
 334 009e E7E7     		b	.L48
 335              	.L45:
 336 00a0 0123     		movs	r3, #1
 337 00a2 ECE7     		b	.L40
 339              		.section	.text.HAL_NAND_Reset,"ax",%progbits
 340              		.align	1
 341              		.global	HAL_NAND_Reset
 342              		.syntax unified
 343              		.thumb
 344              		.thumb_func
 345              		.fpu softvfp
 347              	HAL_NAND_Reset:
 348              		@ args = 0, pretend = 0, frame = 0
 349              		@ frame_needed = 0, uses_anonymous_args = 0
 350              		@ link register save eliminated.
 351 0000 90F82130 		ldrb	r3, [r0, #33]	@ zero_extendqisi2
 352 0004 DBB2     		uxtb	r3, r3
 353 0006 022B     		cmp	r3, #2
 354 0008 1CD0     		beq	.L50
 355 000a 90F82120 		ldrb	r2, [r0, #33]	@ zero_extendqisi2
 356 000e D2B2     		uxtb	r2, r2
 357 0010 012A     		cmp	r2, #1
ARM GAS  /tmp/ccZfeEvZ.s 			page 7


 358 0012 19D1     		bne	.L53
 359 0014 90F82030 		ldrb	r3, [r0, #32]	@ zero_extendqisi2
 360 0018 012B     		cmp	r3, #1
 361 001a 4FF00203 		mov	r3, #2
 362 001e 11D0     		beq	.L50
 363 0020 80F82130 		strb	r3, [r0, #33]
 364 0024 4368     		ldr	r3, [r0, #4]
 365 0026 FF21     		movs	r1, #255
 366 0028 102B     		cmp	r3, #16
 367 002a 0CBF     		ite	eq
 368 002c 4FF0E043 		moveq	r3, #1879048192
 369 0030 4FF00043 		movne	r3, #-2147483648
 370 0034 43F48033 		orr	r3, r3, #65536
 371 0038 1970     		strb	r1, [r3]
 372 003a 0023     		movs	r3, #0
 373 003c 80F82120 		strb	r2, [r0, #33]
 374 0040 80F82030 		strb	r3, [r0, #32]
 375              	.L50:
 376 0044 1846     		mov	r0, r3
 377 0046 7047     		bx	lr
 378              	.L53:
 379 0048 0123     		movs	r3, #1
 380 004a FBE7     		b	.L50
 382              		.section	.text.HAL_NAND_ConfigDevice,"ax",%progbits
 383              		.align	1
 384              		.global	HAL_NAND_ConfigDevice
 385              		.syntax unified
 386              		.thumb
 387              		.thumb_func
 388              		.fpu softvfp
 390              	HAL_NAND_ConfigDevice:
 391              		@ args = 0, pretend = 0, frame = 0
 392              		@ frame_needed = 0, uses_anonymous_args = 0
 393              		@ link register save eliminated.
 394 0000 0B68     		ldr	r3, [r1]
 395 0002 4362     		str	r3, [r0, #36]
 396 0004 4B68     		ldr	r3, [r1, #4]
 397 0006 8362     		str	r3, [r0, #40]
 398 0008 8B68     		ldr	r3, [r1, #8]
 399 000a C362     		str	r3, [r0, #44]
 400 000c CB68     		ldr	r3, [r1, #12]
 401 000e 0363     		str	r3, [r0, #48]
 402 0010 4B69     		ldr	r3, [r1, #20]
 403 0012 8363     		str	r3, [r0, #56]
 404 0014 0B69     		ldr	r3, [r1, #16]
 405 0016 4363     		str	r3, [r0, #52]
 406 0018 0B7E     		ldrb	r3, [r1, #24]	@ zero_extendqisi2
 407 001a 80F83C30 		strb	r3, [r0, #60]
 408 001e 0020     		movs	r0, #0
 409 0020 7047     		bx	lr
 411              		.section	.text.HAL_NAND_Erase_Block,"ax",%progbits
 412              		.align	1
 413              		.global	HAL_NAND_Erase_Block
 414              		.syntax unified
 415              		.thumb
 416              		.thumb_func
 417              		.fpu softvfp
ARM GAS  /tmp/ccZfeEvZ.s 			page 8


 419              	HAL_NAND_Erase_Block:
 420              		@ args = 0, pretend = 0, frame = 0
 421              		@ frame_needed = 0, uses_anonymous_args = 0
 422 0000 90F82130 		ldrb	r3, [r0, #33]	@ zero_extendqisi2
 423 0004 F0B5     		push	{r4, r5, r6, r7, lr}
 424 0006 DBB2     		uxtb	r3, r3
 425 0008 022B     		cmp	r3, #2
 426 000a 4FD0     		beq	.L58
 427 000c 90F82140 		ldrb	r4, [r0, #33]	@ zero_extendqisi2
 428 0010 E4B2     		uxtb	r4, r4
 429 0012 012C     		cmp	r4, #1
 430 0014 4CD1     		bne	.L61
 431 0016 90F82030 		ldrb	r3, [r0, #32]	@ zero_extendqisi2
 432 001a 012B     		cmp	r3, #1
 433 001c 4FF00203 		mov	r3, #2
 434 0020 44D0     		beq	.L58
 435 0022 80F82130 		strb	r3, [r0, #33]
 436 0026 4368     		ldr	r3, [r0, #4]
 437 0028 80F82040 		strb	r4, [r0, #32]
 438 002c 102B     		cmp	r3, #16
 439 002e 0CBF     		ite	eq
 440 0030 4FF0E042 		moveq	r2, #1879048192
 441 0034 4FF00042 		movne	r2, #-2147483648
 442 0038 6023     		movs	r3, #96
 443 003a 42F48035 		orr	r5, r2, #65536
 444 003e 2B70     		strb	r3, [r5]
 445              		.syntax unified
 446              	@ 879 "./cmsis/inc/cmsis_gcc.h" 1
 447 0040 BFF34F8F 		dsb 0xF
 448              	@ 0 "" 2
 449              		.thumb
 450              		.syntax unified
 451 0044 4B88     		ldrh	r3, [r1, #2]
 452 0046 876B     		ldr	r7, [r0, #56]
 453 0048 8E88     		ldrh	r6, [r1, #4]
 454 004a 42F40032 		orr	r2, r2, #131072
 455 004e 07FB0366 		mla	r6, r7, r3, r6
 456 0052 C36A     		ldr	r3, [r0, #44]
 457 0054 0F78     		ldrb	r7, [r1]	@ zero_extendqisi2
 458 0056 06FB0373 		mla	r3, r6, r3, r7
 459 005a DBB2     		uxtb	r3, r3
 460 005c 1370     		strb	r3, [r2]
 461              		.syntax unified
 462              	@ 879 "./cmsis/inc/cmsis_gcc.h" 1
 463 005e BFF34F8F 		dsb 0xF
 464              	@ 0 "" 2
 465              		.thumb
 466              		.syntax unified
 467 0062 876B     		ldr	r7, [r0, #56]
 468 0064 8E88     		ldrh	r6, [r1, #4]
 469 0066 4B88     		ldrh	r3, [r1, #2]
 470 0068 07FB0363 		mla	r3, r7, r3, r6
 471 006c C76A     		ldr	r7, [r0, #44]
 472 006e 0E88     		ldrh	r6, [r1]
 473 0070 07FB0363 		mla	r3, r7, r3, r6
 474 0074 C3F30723 		ubfx	r3, r3, #8, #8
 475 0078 1370     		strb	r3, [r2]
ARM GAS  /tmp/ccZfeEvZ.s 			page 9


 476              		.syntax unified
 477              	@ 879 "./cmsis/inc/cmsis_gcc.h" 1
 478 007a BFF34F8F 		dsb 0xF
 479              	@ 0 "" 2
 480              		.thumb
 481              		.syntax unified
 482 007e 8E88     		ldrh	r6, [r1, #4]
 483 0080 4B88     		ldrh	r3, [r1, #2]
 484 0082 876B     		ldr	r7, [r0, #56]
 485 0084 0988     		ldrh	r1, [r1]
 486 0086 07FB0363 		mla	r3, r7, r3, r6
 487 008a C66A     		ldr	r6, [r0, #44]
 488 008c 06FB0313 		mla	r3, r6, r3, r1
 489 0090 C3F30743 		ubfx	r3, r3, #16, #8
 490 0094 1370     		strb	r3, [r2]
 491              		.syntax unified
 492              	@ 879 "./cmsis/inc/cmsis_gcc.h" 1
 493 0096 BFF34F8F 		dsb 0xF
 494              	@ 0 "" 2
 495              		.thumb
 496              		.syntax unified
 497 009a D023     		movs	r3, #208
 498 009c 2B70     		strb	r3, [r5]
 499              		.syntax unified
 500              	@ 879 "./cmsis/inc/cmsis_gcc.h" 1
 501 009e BFF34F8F 		dsb 0xF
 502              	@ 0 "" 2
 503              		.thumb
 504              		.syntax unified
 505 00a2 0023     		movs	r3, #0
 506 00a4 80F82140 		strb	r4, [r0, #33]
 507 00a8 80F82030 		strb	r3, [r0, #32]
 508              	.L58:
 509 00ac 1846     		mov	r0, r3
 510 00ae F0BD     		pop	{r4, r5, r6, r7, pc}
 511              	.L61:
 512 00b0 0123     		movs	r3, #1
 513 00b2 FBE7     		b	.L58
 515              		.section	.text.HAL_NAND_Address_Inc,"ax",%progbits
 516              		.align	1
 517              		.global	HAL_NAND_Address_Inc
 518              		.syntax unified
 519              		.thumb
 520              		.thumb_func
 521              		.fpu softvfp
 523              	HAL_NAND_Address_Inc:
 524              		@ args = 0, pretend = 0, frame = 0
 525              		@ frame_needed = 0, uses_anonymous_args = 0
 526 0000 0B88     		ldrh	r3, [r1]
 527 0002 C26A     		ldr	r2, [r0, #44]
 528 0004 0133     		adds	r3, r3, #1
 529 0006 9BB2     		uxth	r3, r3
 530 0008 9342     		cmp	r3, r2
 531 000a 10B5     		push	{r4, lr}
 532 000c 0B80     		strh	r3, [r1]	@ movhi
 533 000e 02D0     		beq	.L65
 534              	.L67:
ARM GAS  /tmp/ccZfeEvZ.s 			page 10


 535 0010 4FF48070 		mov	r0, #256
 536 0014 10BD     		pop	{r4, pc}
 537              	.L65:
 538 0016 0022     		movs	r2, #0
 539 0018 8B88     		ldrh	r3, [r1, #4]
 540 001a 846B     		ldr	r4, [r0, #56]
 541 001c 0133     		adds	r3, r3, #1
 542 001e 9BB2     		uxth	r3, r3
 543 0020 A342     		cmp	r3, r4
 544 0022 0A80     		strh	r2, [r1]	@ movhi
 545 0024 8B80     		strh	r3, [r1, #4]	@ movhi
 546 0026 F3D1     		bne	.L67
 547 0028 4B88     		ldrh	r3, [r1, #2]
 548 002a 8A80     		strh	r2, [r1, #4]	@ movhi
 549 002c 0133     		adds	r3, r3, #1
 550 002e 426B     		ldr	r2, [r0, #52]
 551 0030 9BB2     		uxth	r3, r3
 552 0032 9342     		cmp	r3, r2
 553 0034 4B80     		strh	r3, [r1, #2]	@ movhi
 554 0036 EBD1     		bne	.L67
 555 0038 4FF40070 		mov	r0, #512
 556 003c 10BD     		pop	{r4, pc}
 558              		.section	.text.HAL_NAND_ECC_Enable,"ax",%progbits
 559              		.align	1
 560              		.global	HAL_NAND_ECC_Enable
 561              		.syntax unified
 562              		.thumb
 563              		.thumb_func
 564              		.fpu softvfp
 566              	HAL_NAND_ECC_Enable:
 567              		@ args = 0, pretend = 0, frame = 0
 568              		@ frame_needed = 0, uses_anonymous_args = 0
 569 0000 38B5     		push	{r3, r4, r5, lr}
 570 0002 0446     		mov	r4, r0
 571 0004 90F82100 		ldrb	r0, [r0, #33]	@ zero_extendqisi2
 572 0008 C0B2     		uxtb	r0, r0
 573 000a 0228     		cmp	r0, #2
 574 000c 10D0     		beq	.L69
 575 000e 94F82150 		ldrb	r5, [r4, #33]	@ zero_extendqisi2
 576 0012 EDB2     		uxtb	r5, r5
 577 0014 012D     		cmp	r5, #1
 578 0016 0AD1     		bne	.L71
 579 0018 94E80300 		ldm	r4, {r0, r1}
 580 001c 0223     		movs	r3, #2
 581 001e 84F82130 		strb	r3, [r4, #33]
 582 0022 FFF7FEFF 		bl	FSMC_NAND_ECC_Enable
 583 0026 84F82150 		strb	r5, [r4, #33]
 584 002a 0020     		movs	r0, #0
 585 002c 38BD     		pop	{r3, r4, r5, pc}
 586              	.L71:
 587 002e 0120     		movs	r0, #1
 588              	.L69:
 589 0030 38BD     		pop	{r3, r4, r5, pc}
 591              		.section	.text.HAL_NAND_ECC_Disable,"ax",%progbits
 592              		.align	1
 593              		.global	HAL_NAND_ECC_Disable
 594              		.syntax unified
ARM GAS  /tmp/ccZfeEvZ.s 			page 11


 595              		.thumb
 596              		.thumb_func
 597              		.fpu softvfp
 599              	HAL_NAND_ECC_Disable:
 600              		@ args = 0, pretend = 0, frame = 0
 601              		@ frame_needed = 0, uses_anonymous_args = 0
 602 0000 38B5     		push	{r3, r4, r5, lr}
 603 0002 0446     		mov	r4, r0
 604 0004 90F82100 		ldrb	r0, [r0, #33]	@ zero_extendqisi2
 605 0008 C0B2     		uxtb	r0, r0
 606 000a 0228     		cmp	r0, #2
 607 000c 10D0     		beq	.L73
 608 000e 94F82150 		ldrb	r5, [r4, #33]	@ zero_extendqisi2
 609 0012 EDB2     		uxtb	r5, r5
 610 0014 012D     		cmp	r5, #1
 611 0016 0AD1     		bne	.L75
 612 0018 94E80300 		ldm	r4, {r0, r1}
 613 001c 0223     		movs	r3, #2
 614 001e 84F82130 		strb	r3, [r4, #33]
 615 0022 FFF7FEFF 		bl	FSMC_NAND_ECC_Disable
 616 0026 84F82150 		strb	r5, [r4, #33]
 617 002a 0020     		movs	r0, #0
 618 002c 38BD     		pop	{r3, r4, r5, pc}
 619              	.L75:
 620 002e 0120     		movs	r0, #1
 621              	.L73:
 622 0030 38BD     		pop	{r3, r4, r5, pc}
 624              		.section	.text.HAL_NAND_GetECC,"ax",%progbits
 625              		.align	1
 626              		.global	HAL_NAND_GetECC
 627              		.syntax unified
 628              		.thumb
 629              		.thumb_func
 630              		.fpu softvfp
 632              	HAL_NAND_GetECC:
 633              		@ args = 0, pretend = 0, frame = 0
 634              		@ frame_needed = 0, uses_anonymous_args = 0
 635 0000 38B5     		push	{r3, r4, r5, lr}
 636 0002 0446     		mov	r4, r0
 637 0004 90F82100 		ldrb	r0, [r0, #33]	@ zero_extendqisi2
 638 0008 1346     		mov	r3, r2
 639 000a C0B2     		uxtb	r0, r0
 640 000c 0228     		cmp	r0, #2
 641 000e 0FD0     		beq	.L77
 642 0010 94F82150 		ldrb	r5, [r4, #33]	@ zero_extendqisi2
 643 0014 EDB2     		uxtb	r5, r5
 644 0016 012D     		cmp	r5, #1
 645 0018 09D1     		bne	.L79
 646 001a 0222     		movs	r2, #2
 647 001c 84F82120 		strb	r2, [r4, #33]
 648 0020 94E80500 		ldm	r4, {r0, r2}
 649 0024 FFF7FEFF 		bl	FSMC_NAND_GetECC
 650 0028 84F82150 		strb	r5, [r4, #33]
 651 002c 38BD     		pop	{r3, r4, r5, pc}
 652              	.L79:
 653 002e 0120     		movs	r0, #1
 654              	.L77:
ARM GAS  /tmp/ccZfeEvZ.s 			page 12


 655 0030 38BD     		pop	{r3, r4, r5, pc}
 657              		.section	.text.HAL_NAND_GetState,"ax",%progbits
 658              		.align	1
 659              		.global	HAL_NAND_GetState
 660              		.syntax unified
 661              		.thumb
 662              		.thumb_func
 663              		.fpu softvfp
 665              	HAL_NAND_GetState:
 666              		@ args = 0, pretend = 0, frame = 0
 667              		@ frame_needed = 0, uses_anonymous_args = 0
 668              		@ link register save eliminated.
 669 0000 90F82100 		ldrb	r0, [r0, #33]	@ zero_extendqisi2
 670 0004 7047     		bx	lr
 672              		.section	.text.HAL_NAND_Read_Status,"ax",%progbits
 673              		.align	1
 674              		.global	HAL_NAND_Read_Status
 675              		.syntax unified
 676              		.thumb
 677              		.thumb_func
 678              		.fpu softvfp
 680              	HAL_NAND_Read_Status:
 681              		@ args = 0, pretend = 0, frame = 0
 682              		@ frame_needed = 0, uses_anonymous_args = 0
 683              		@ link register save eliminated.
 684 0000 4368     		ldr	r3, [r0, #4]
 685 0002 7021     		movs	r1, #112
 686 0004 102B     		cmp	r3, #16
 687 0006 0CBF     		ite	eq
 688 0008 4FF0E043 		moveq	r3, #1879048192
 689 000c 4FF00043 		movne	r3, #-2147483648
 690 0010 43F48032 		orr	r2, r3, #65536
 691 0014 1170     		strb	r1, [r2]
 692 0016 1878     		ldrb	r0, [r3]	@ zero_extendqisi2
 693 0018 C0B2     		uxtb	r0, r0
 694 001a C307     		lsls	r3, r0, #31
 695 001c 54BF     		ite	pl
 696 001e 00F04000 		andpl	r0, r0, #64
 697 0022 0120     		movmi	r0, #1
 698 0024 7047     		bx	lr
 700              		.section	.text.HAL_NAND_Read_Page_8b,"ax",%progbits
 701              		.align	1
 702              		.global	HAL_NAND_Read_Page_8b
 703              		.syntax unified
 704              		.thumb
 705              		.thumb_func
 706              		.fpu softvfp
 708              	HAL_NAND_Read_Page_8b:
 709              		@ args = 0, pretend = 0, frame = 8
 710              		@ frame_needed = 0, uses_anonymous_args = 0
 711 0000 2DE9F74F 		push	{r0, r1, r2, r4, r5, r6, r7, r8, r9, r10, fp, lr}
 712 0004 0446     		mov	r4, r0
 713 0006 90F82100 		ldrb	r0, [r0, #33]	@ zero_extendqisi2
 714 000a 1746     		mov	r7, r2
 715 000c C0B2     		uxtb	r0, r0
 716 000e 0228     		cmp	r0, #2
 717 0010 00F09780 		beq	.L88
ARM GAS  /tmp/ccZfeEvZ.s 			page 13


 718 0014 94F82120 		ldrb	r2, [r4, #33]	@ zero_extendqisi2
 719 0018 D2B2     		uxtb	r2, r2
 720 001a 012A     		cmp	r2, #1
 721 001c 40F09980 		bne	.L103
 722 0020 94F82000 		ldrb	r0, [r4, #32]	@ zero_extendqisi2
 723 0024 0128     		cmp	r0, #1
 724 0026 4FF00200 		mov	r0, #2
 725 002a 00F08A80 		beq	.L88
 726 002e 84F82020 		strb	r2, [r4, #32]
 727 0032 6268     		ldr	r2, [r4, #4]
 728 0034 4FF00009 		mov	r9, #0
 729 0038 102A     		cmp	r2, #16
 730 003a 0CBF     		ite	eq
 731 003c 4FF0E048 		moveq	r8, #1879048192
 732 0040 4FF00048 		movne	r8, #-2147483648
 733 0044 8A88     		ldrh	r2, [r1, #4]
 734 0046 84F82100 		strb	r0, [r4, #33]
 735 004a 4E88     		ldrh	r6, [r1, #2]
 736 004c A06B     		ldr	r0, [r4, #56]
 737 004e 48F4803A 		orr	r10, r8, #65536
 738 0052 00FB0626 		mla	r6, r0, r6, r2
 739 0056 E06A     		ldr	r0, [r4, #44]
 740 0058 0A88     		ldrh	r2, [r1]
 741 005a 48F40035 		orr	r5, r8, #131072
 742 005e 00FB0626 		mla	r6, r0, r6, r2
 743 0062 3344     		add	r3, r3, r6
 744 0064 0193     		str	r3, [sp, #4]
 745              	.L90:
 746 0066 019B     		ldr	r3, [sp, #4]
 747 0068 9E42     		cmp	r6, r3
 748 006a 04D0     		beq	.L100
 749 006c E36A     		ldr	r3, [r4, #44]
 750 006e 226B     		ldr	r2, [r4, #48]
 751 0070 5A43     		muls	r2, r3, r2
 752 0072 9642     		cmp	r6, r2
 753 0074 06D3     		bcc	.L101
 754              	.L100:
 755 0076 0123     		movs	r3, #1
 756 0078 0020     		movs	r0, #0
 757 007a 84F82130 		strb	r3, [r4, #33]
 758 007e 84F82000 		strb	r0, [r4, #32]
 759 0082 5EE0     		b	.L88
 760              	.L101:
 761 0084 8AF80090 		strb	r9, [r10]
 762              		.syntax unified
 763              	@ 879 "./cmsis/inc/cmsis_gcc.h" 1
 764 0088 BFF34F8F 		dsb 0xF
 765              	@ 0 "" 2
 766              		.thumb
 767              		.syntax unified
 768 008c 636A     		ldr	r3, [r4, #36]
 769 008e E16A     		ldr	r1, [r4, #44]
 770 0090 226B     		ldr	r2, [r4, #48]
 771 0092 B3F5007F 		cmp	r3, #512
 772 0096 F0B2     		uxtb	r0, r6
 773 0098 4FEA1623 		lsr	r3, r6, #8
 774 009c 02FB01F2 		mul	r2, r2, r1
ARM GAS  /tmp/ccZfeEvZ.s 			page 14


 775 00a0 85F80090 		strb	r9, [r5]
 776 00a4 28D8     		bhi	.L91
 777 00a6 B2F5803F 		cmp	r2, #65536
 778 00aa 31D2     		bcs	.L108
 779              	.L109:
 780              		.syntax unified
 781              	@ 879 "./cmsis/inc/cmsis_gcc.h" 1
 782 00ac BFF34F8F 		dsb 0xF
 783              	@ 0 "" 2
 784              		.thumb
 785              		.syntax unified
 786 00b0 2870     		strb	r0, [r5]
 787              		.syntax unified
 788              	@ 879 "./cmsis/inc/cmsis_gcc.h" 1
 789 00b2 BFF34F8F 		dsb 0xF
 790              	@ 0 "" 2
 791              		.thumb
 792              		.syntax unified
 793 00b6 DBB2     		uxtb	r3, r3
 794              	.L107:
 795 00b8 2B70     		strb	r3, [r5]
 796              		.syntax unified
 797              	@ 879 "./cmsis/inc/cmsis_gcc.h" 1
 798 00ba BFF34F8F 		dsb 0xF
 799              	@ 0 "" 2
 800              		.thumb
 801              		.syntax unified
 802 00be 3023     		movs	r3, #48
 803 00c0 8AF80030 		strb	r3, [r10]
 804              		.syntax unified
 805              	@ 879 "./cmsis/inc/cmsis_gcc.h" 1
 806 00c4 BFF34F8F 		dsb 0xF
 807              	@ 0 "" 2
 808              		.thumb
 809              		.syntax unified
 810 00c8 94F83C30 		ldrb	r3, [r4, #60]	@ zero_extendqisi2
 811 00cc 012B     		cmp	r3, #1
 812 00ce 0BD1     		bne	.L95
 813 00d0 FFF7FEFF 		bl	HAL_GetTick
 814 00d4 8346     		mov	fp, r0
 815              	.L96:
 816 00d6 2046     		mov	r0, r4
 817 00d8 FFF7FEFF 		bl	HAL_NAND_Read_Status
 818 00dc 4028     		cmp	r0, #64
 819 00de 23D1     		bne	.L97
 820 00e0 8AF80090 		strb	r9, [r10]
 821              		.syntax unified
 822              	@ 879 "./cmsis/inc/cmsis_gcc.h" 1
 823 00e4 BFF34F8F 		dsb 0xF
 824              	@ 0 "" 2
 825              		.thumb
 826              		.syntax unified
 827              	.L95:
 828 00e8 3A46     		mov	r2, r7
 829              	.L98:
 830 00ea 636A     		ldr	r3, [r4, #36]
 831 00ec D01B     		subs	r0, r2, r7
ARM GAS  /tmp/ccZfeEvZ.s 			page 15


 832 00ee 8342     		cmp	r3, r0
 833 00f0 2AD8     		bhi	.L99
 834 00f2 0136     		adds	r6, r6, #1
 835 00f4 1746     		mov	r7, r2
 836 00f6 B6E7     		b	.L90
 837              	.L91:
 838 00f8 B2F5803F 		cmp	r2, #65536
 839 00fc 04D2     		bcs	.L94
 840              		.syntax unified
 841              	@ 879 "./cmsis/inc/cmsis_gcc.h" 1
 842 00fe BFF34F8F 		dsb 0xF
 843              	@ 0 "" 2
 844              		.thumb
 845              		.syntax unified
 846 0102 85F80090 		strb	r9, [r5]
 847 0106 D1E7     		b	.L109
 848              	.L94:
 849              		.syntax unified
 850              	@ 879 "./cmsis/inc/cmsis_gcc.h" 1
 851 0108 BFF34F8F 		dsb 0xF
 852              	@ 0 "" 2
 853              		.thumb
 854              		.syntax unified
 855 010c 85F80090 		strb	r9, [r5]
 856              	.L108:
 857              		.syntax unified
 858              	@ 879 "./cmsis/inc/cmsis_gcc.h" 1
 859 0110 BFF34F8F 		dsb 0xF
 860              	@ 0 "" 2
 861              		.thumb
 862              		.syntax unified
 863 0114 2870     		strb	r0, [r5]
 864              		.syntax unified
 865              	@ 879 "./cmsis/inc/cmsis_gcc.h" 1
 866 0116 BFF34F8F 		dsb 0xF
 867              	@ 0 "" 2
 868              		.thumb
 869              		.syntax unified
 870 011a DBB2     		uxtb	r3, r3
 871 011c 2B70     		strb	r3, [r5]
 872              		.syntax unified
 873              	@ 879 "./cmsis/inc/cmsis_gcc.h" 1
 874 011e BFF34F8F 		dsb 0xF
 875              	@ 0 "" 2
 876              		.thumb
 877              		.syntax unified
 878 0122 C6F30743 		ubfx	r3, r6, #16, #8
 879 0126 C7E7     		b	.L107
 880              	.L97:
 881 0128 FFF7FEFF 		bl	HAL_GetTick
 882 012c A0EB0B00 		sub	r0, r0, fp
 883 0130 B0F1807F 		cmp	r0, #16777216
 884 0134 CFD9     		bls	.L96
 885 0136 0320     		movs	r0, #3
 886 0138 0023     		movs	r3, #0
 887 013a 84F82100 		strb	r0, [r4, #33]
 888 013e 84F82030 		strb	r3, [r4, #32]
ARM GAS  /tmp/ccZfeEvZ.s 			page 16


 889              	.L88:
 890 0142 03B0     		add	sp, sp, #12
 891              		@ sp needed
 892 0144 BDE8F08F 		pop	{r4, r5, r6, r7, r8, r9, r10, fp, pc}
 893              	.L99:
 894 0148 98F80030 		ldrb	r3, [r8]	@ zero_extendqisi2
 895 014c 02F8013B 		strb	r3, [r2], #1
 896 0150 CBE7     		b	.L98
 897              	.L103:
 898 0152 0120     		movs	r0, #1
 899 0154 F5E7     		b	.L88
 901              		.section	.text.HAL_NAND_Read_Page_16b,"ax",%progbits
 902              		.align	1
 903              		.global	HAL_NAND_Read_Page_16b
 904              		.syntax unified
 905              		.thumb
 906              		.thumb_func
 907              		.fpu softvfp
 909              	HAL_NAND_Read_Page_16b:
 910              		@ args = 0, pretend = 0, frame = 8
 911              		@ frame_needed = 0, uses_anonymous_args = 0
 912 0000 2DE9F74F 		push	{r0, r1, r2, r4, r5, r6, r7, r8, r9, r10, fp, lr}
 913 0004 0446     		mov	r4, r0
 914 0006 90F82100 		ldrb	r0, [r0, #33]	@ zero_extendqisi2
 915 000a 1746     		mov	r7, r2
 916 000c C0B2     		uxtb	r0, r0
 917 000e 0228     		cmp	r0, #2
 918 0010 00F09780 		beq	.L111
 919 0014 94F82120 		ldrb	r2, [r4, #33]	@ zero_extendqisi2
 920 0018 D2B2     		uxtb	r2, r2
 921 001a 012A     		cmp	r2, #1
 922 001c 40F09A80 		bne	.L126
 923 0020 94F82000 		ldrb	r0, [r4, #32]	@ zero_extendqisi2
 924 0024 0128     		cmp	r0, #1
 925 0026 4FF00200 		mov	r0, #2
 926 002a 00F08A80 		beq	.L111
 927 002e 84F82020 		strb	r2, [r4, #32]
 928 0032 6268     		ldr	r2, [r4, #4]
 929 0034 4FF00009 		mov	r9, #0
 930 0038 102A     		cmp	r2, #16
 931 003a 0CBF     		ite	eq
 932 003c 4FF0E048 		moveq	r8, #1879048192
 933 0040 4FF00048 		movne	r8, #-2147483648
 934 0044 8A88     		ldrh	r2, [r1, #4]
 935 0046 84F82100 		strb	r0, [r4, #33]
 936 004a 4E88     		ldrh	r6, [r1, #2]
 937 004c A06B     		ldr	r0, [r4, #56]
 938 004e 48F4803A 		orr	r10, r8, #65536
 939 0052 00FB0626 		mla	r6, r0, r6, r2
 940 0056 E06A     		ldr	r0, [r4, #44]
 941 0058 0A88     		ldrh	r2, [r1]
 942 005a 48F40035 		orr	r5, r8, #131072
 943 005e 00FB0626 		mla	r6, r0, r6, r2
 944 0062 3344     		add	r3, r3, r6
 945 0064 0193     		str	r3, [sp, #4]
 946              	.L113:
 947 0066 019B     		ldr	r3, [sp, #4]
ARM GAS  /tmp/ccZfeEvZ.s 			page 17


 948 0068 9E42     		cmp	r6, r3
 949 006a 04D0     		beq	.L123
 950 006c E36A     		ldr	r3, [r4, #44]
 951 006e 226B     		ldr	r2, [r4, #48]
 952 0070 5A43     		muls	r2, r3, r2
 953 0072 9642     		cmp	r6, r2
 954 0074 06D3     		bcc	.L124
 955              	.L123:
 956 0076 0123     		movs	r3, #1
 957 0078 0020     		movs	r0, #0
 958 007a 84F82130 		strb	r3, [r4, #33]
 959 007e 84F82000 		strb	r0, [r4, #32]
 960 0082 5EE0     		b	.L111
 961              	.L124:
 962 0084 8AF80090 		strb	r9, [r10]
 963              		.syntax unified
 964              	@ 879 "./cmsis/inc/cmsis_gcc.h" 1
 965 0088 BFF34F8F 		dsb 0xF
 966              	@ 0 "" 2
 967              		.thumb
 968              		.syntax unified
 969 008c 636A     		ldr	r3, [r4, #36]
 970 008e E16A     		ldr	r1, [r4, #44]
 971 0090 226B     		ldr	r2, [r4, #48]
 972 0092 B3F5007F 		cmp	r3, #512
 973 0096 F0B2     		uxtb	r0, r6
 974 0098 4FEA1623 		lsr	r3, r6, #8
 975 009c 02FB01F2 		mul	r2, r2, r1
 976 00a0 85F80090 		strb	r9, [r5]
 977 00a4 28D8     		bhi	.L114
 978 00a6 B2F5803F 		cmp	r2, #65536
 979 00aa 31D2     		bcs	.L131
 980              	.L132:
 981              		.syntax unified
 982              	@ 879 "./cmsis/inc/cmsis_gcc.h" 1
 983 00ac BFF34F8F 		dsb 0xF
 984              	@ 0 "" 2
 985              		.thumb
 986              		.syntax unified
 987 00b0 2870     		strb	r0, [r5]
 988              		.syntax unified
 989              	@ 879 "./cmsis/inc/cmsis_gcc.h" 1
 990 00b2 BFF34F8F 		dsb 0xF
 991              	@ 0 "" 2
 992              		.thumb
 993              		.syntax unified
 994 00b6 DBB2     		uxtb	r3, r3
 995              	.L130:
 996 00b8 2B70     		strb	r3, [r5]
 997              		.syntax unified
 998              	@ 879 "./cmsis/inc/cmsis_gcc.h" 1
 999 00ba BFF34F8F 		dsb 0xF
 1000              	@ 0 "" 2
 1001              		.thumb
 1002              		.syntax unified
 1003 00be 3023     		movs	r3, #48
 1004 00c0 8AF80030 		strb	r3, [r10]
ARM GAS  /tmp/ccZfeEvZ.s 			page 18


 1005              		.syntax unified
 1006              	@ 879 "./cmsis/inc/cmsis_gcc.h" 1
 1007 00c4 BFF34F8F 		dsb 0xF
 1008              	@ 0 "" 2
 1009              		.thumb
 1010              		.syntax unified
 1011 00c8 94F83C30 		ldrb	r3, [r4, #60]	@ zero_extendqisi2
 1012 00cc 012B     		cmp	r3, #1
 1013 00ce 0BD1     		bne	.L118
 1014 00d0 FFF7FEFF 		bl	HAL_GetTick
 1015 00d4 8346     		mov	fp, r0
 1016              	.L119:
 1017 00d6 2046     		mov	r0, r4
 1018 00d8 FFF7FEFF 		bl	HAL_NAND_Read_Status
 1019 00dc 4028     		cmp	r0, #64
 1020 00de 23D1     		bne	.L120
 1021 00e0 8AF80090 		strb	r9, [r10]
 1022              		.syntax unified
 1023              	@ 879 "./cmsis/inc/cmsis_gcc.h" 1
 1024 00e4 BFF34F8F 		dsb 0xF
 1025              	@ 0 "" 2
 1026              		.thumb
 1027              		.syntax unified
 1028              	.L118:
 1029 00e8 0023     		movs	r3, #0
 1030 00ea 626A     		ldr	r2, [r4, #36]
 1031              	.L121:
 1032 00ec 9342     		cmp	r3, r2
 1033 00ee 2BD1     		bne	.L122
 1034 00f0 07EB4307 		add	r7, r7, r3, lsl #1
 1035 00f4 0136     		adds	r6, r6, #1
 1036 00f6 B6E7     		b	.L113
 1037              	.L114:
 1038 00f8 B2F5803F 		cmp	r2, #65536
 1039 00fc 04D2     		bcs	.L117
 1040              		.syntax unified
 1041              	@ 879 "./cmsis/inc/cmsis_gcc.h" 1
 1042 00fe BFF34F8F 		dsb 0xF
 1043              	@ 0 "" 2
 1044              		.thumb
 1045              		.syntax unified
 1046 0102 85F80090 		strb	r9, [r5]
 1047 0106 D1E7     		b	.L132
 1048              	.L117:
 1049              		.syntax unified
 1050              	@ 879 "./cmsis/inc/cmsis_gcc.h" 1
 1051 0108 BFF34F8F 		dsb 0xF
 1052              	@ 0 "" 2
 1053              		.thumb
 1054              		.syntax unified
 1055 010c 85F80090 		strb	r9, [r5]
 1056              	.L131:
 1057              		.syntax unified
 1058              	@ 879 "./cmsis/inc/cmsis_gcc.h" 1
 1059 0110 BFF34F8F 		dsb 0xF
 1060              	@ 0 "" 2
 1061              		.thumb
ARM GAS  /tmp/ccZfeEvZ.s 			page 19


 1062              		.syntax unified
 1063 0114 2870     		strb	r0, [r5]
 1064              		.syntax unified
 1065              	@ 879 "./cmsis/inc/cmsis_gcc.h" 1
 1066 0116 BFF34F8F 		dsb 0xF
 1067              	@ 0 "" 2
 1068              		.thumb
 1069              		.syntax unified
 1070 011a DBB2     		uxtb	r3, r3
 1071 011c 2B70     		strb	r3, [r5]
 1072              		.syntax unified
 1073              	@ 879 "./cmsis/inc/cmsis_gcc.h" 1
 1074 011e BFF34F8F 		dsb 0xF
 1075              	@ 0 "" 2
 1076              		.thumb
 1077              		.syntax unified
 1078 0122 C6F30743 		ubfx	r3, r6, #16, #8
 1079 0126 C7E7     		b	.L130
 1080              	.L120:
 1081 0128 FFF7FEFF 		bl	HAL_GetTick
 1082 012c A0EB0B00 		sub	r0, r0, fp
 1083 0130 B0F1807F 		cmp	r0, #16777216
 1084 0134 CFD9     		bls	.L119
 1085 0136 0320     		movs	r0, #3
 1086 0138 0023     		movs	r3, #0
 1087 013a 84F82100 		strb	r0, [r4, #33]
 1088 013e 84F82030 		strb	r3, [r4, #32]
 1089              	.L111:
 1090 0142 03B0     		add	sp, sp, #12
 1091              		@ sp needed
 1092 0144 BDE8F08F 		pop	{r4, r5, r6, r7, r8, r9, r10, fp, pc}
 1093              	.L122:
 1094 0148 B8F80000 		ldrh	r0, [r8]
 1095 014c 27F81300 		strh	r0, [r7, r3, lsl #1]	@ movhi
 1096 0150 0133     		adds	r3, r3, #1
 1097 0152 CBE7     		b	.L121
 1098              	.L126:
 1099 0154 0120     		movs	r0, #1
 1100 0156 F4E7     		b	.L111
 1102              		.section	.text.HAL_NAND_Write_Page_8b,"ax",%progbits
 1103              		.align	1
 1104              		.global	HAL_NAND_Write_Page_8b
 1105              		.syntax unified
 1106              		.thumb
 1107              		.thumb_func
 1108              		.fpu softvfp
 1110              	HAL_NAND_Write_Page_8b:
 1111              		@ args = 0, pretend = 0, frame = 8
 1112              		@ frame_needed = 0, uses_anonymous_args = 0
 1113 0000 2DE9F74F 		push	{r0, r1, r2, r4, r5, r6, r7, r8, r9, r10, fp, lr}
 1114 0004 0446     		mov	r4, r0
 1115 0006 90F82100 		ldrb	r0, [r0, #33]	@ zero_extendqisi2
 1116 000a C0B2     		uxtb	r0, r0
 1117 000c 0228     		cmp	r0, #2
 1118 000e 00F09E80 		beq	.L134
 1119 0012 94F82150 		ldrb	r5, [r4, #33]	@ zero_extendqisi2
 1120 0016 EDB2     		uxtb	r5, r5
ARM GAS  /tmp/ccZfeEvZ.s 			page 20


 1121 0018 012D     		cmp	r5, #1
 1122 001a 40F09B80 		bne	.L148
 1123 001e 94F82000 		ldrb	r0, [r4, #32]	@ zero_extendqisi2
 1124 0022 0128     		cmp	r0, #1
 1125 0024 4FF00200 		mov	r0, #2
 1126 0028 00F09180 		beq	.L134
 1127 002c 84F82100 		strb	r0, [r4, #33]
 1128 0030 6068     		ldr	r0, [r4, #4]
 1129 0032 4FF00008 		mov	r8, #0
 1130 0036 1028     		cmp	r0, #16
 1131 0038 0CBF     		ite	eq
 1132 003a 4FF0E047 		moveq	r7, #1879048192
 1133 003e 4FF00047 		movne	r7, #-2147483648
 1134 0042 4FF0800A 		mov	r10, #128
 1135 0046 8888     		ldrh	r0, [r1, #4]
 1136 0048 84F82050 		strb	r5, [r4, #32]
 1137 004c A66B     		ldr	r6, [r4, #56]
 1138 004e 4D88     		ldrh	r5, [r1, #2]
 1139 0050 0988     		ldrh	r1, [r1]
 1140 0052 06FB0505 		mla	r5, r6, r5, r0
 1141 0056 E06A     		ldr	r0, [r4, #44]
 1142 0058 47F48039 		orr	r9, r7, #65536
 1143 005c 00FB0515 		mla	r5, r0, r5, r1
 1144 0060 2B44     		add	r3, r3, r5
 1145 0062 0193     		str	r3, [sp, #4]
 1146              	.L136:
 1147 0064 019B     		ldr	r3, [sp, #4]
 1148 0066 9D42     		cmp	r5, r3
 1149 0068 04D0     		beq	.L145
 1150 006a E06A     		ldr	r0, [r4, #44]
 1151 006c 216B     		ldr	r1, [r4, #48]
 1152 006e 4143     		muls	r1, r0, r1
 1153 0070 8D42     		cmp	r5, r1
 1154 0072 06D3     		bcc	.L146
 1155              	.L145:
 1156 0074 0123     		movs	r3, #1
 1157 0076 0020     		movs	r0, #0
 1158 0078 84F82130 		strb	r3, [r4, #33]
 1159 007c 84F82000 		strb	r0, [r4, #32]
 1160 0080 65E0     		b	.L134
 1161              	.L146:
 1162 0082 89F80080 		strb	r8, [r9]
 1163              		.syntax unified
 1164              	@ 879 "./cmsis/inc/cmsis_gcc.h" 1
 1165 0086 BFF34F8F 		dsb 0xF
 1166              	@ 0 "" 2
 1167              		.thumb
 1168              		.syntax unified
 1169 008a 89F800A0 		strb	r10, [r9]
 1170              		.syntax unified
 1171              	@ 879 "./cmsis/inc/cmsis_gcc.h" 1
 1172 008e BFF34F8F 		dsb 0xF
 1173              	@ 0 "" 2
 1174              		.thumb
 1175              		.syntax unified
 1176 0092 616A     		ldr	r1, [r4, #36]
 1177 0094 E36A     		ldr	r3, [r4, #44]
ARM GAS  /tmp/ccZfeEvZ.s 			page 21


 1178 0096 266B     		ldr	r6, [r4, #48]
 1179 0098 B1F5007F 		cmp	r1, #512
 1180 009c 47F40031 		orr	r1, r7, #131072
 1181 00a0 5FFA85FE 		uxtb	lr, r5
 1182 00a4 4FEA1520 		lsr	r0, r5, #8
 1183 00a8 06FB03F6 		mul	r6, r6, r3
 1184 00ac 81F80080 		strb	r8, [r1]
 1185 00b0 21D8     		bhi	.L137
 1186 00b2 B6F5803F 		cmp	r6, #65536
 1187 00b6 2AD2     		bcs	.L154
 1188              	.L152:
 1189              		.syntax unified
 1190              	@ 879 "./cmsis/inc/cmsis_gcc.h" 1
 1191 00b8 BFF34F8F 		dsb 0xF
 1192              	@ 0 "" 2
 1193              		.thumb
 1194              		.syntax unified
 1195 00bc 81F800E0 		strb	lr, [r1]
 1196              		.syntax unified
 1197              	@ 879 "./cmsis/inc/cmsis_gcc.h" 1
 1198 00c0 BFF34F8F 		dsb 0xF
 1199              	@ 0 "" 2
 1200              		.thumb
 1201              		.syntax unified
 1202 00c4 C0B2     		uxtb	r0, r0
 1203              	.L153:
 1204 00c6 0870     		strb	r0, [r1]
 1205              		.syntax unified
 1206              	@ 879 "./cmsis/inc/cmsis_gcc.h" 1
 1207 00c8 BFF34F8F 		dsb 0xF
 1208              	@ 0 "" 2
 1209              		.thumb
 1210              		.syntax unified
 1211 00cc 1646     		mov	r6, r2
 1212              	.L141:
 1213 00ce 616A     		ldr	r1, [r4, #36]
 1214 00d0 B01A     		subs	r0, r6, r2
 1215 00d2 8142     		cmp	r1, r0
 1216 00d4 28D8     		bhi	.L142
 1217 00d6 1022     		movs	r2, #16
 1218 00d8 89F80020 		strb	r2, [r9]
 1219              		.syntax unified
 1220              	@ 879 "./cmsis/inc/cmsis_gcc.h" 1
 1221 00dc BFF34F8F 		dsb 0xF
 1222              	@ 0 "" 2
 1223              		.thumb
 1224              		.syntax unified
 1225 00e0 FFF7FEFF 		bl	HAL_GetTick
 1226 00e4 8346     		mov	fp, r0
 1227              	.L143:
 1228 00e6 2046     		mov	r0, r4
 1229 00e8 FFF7FEFF 		bl	HAL_NAND_Read_Status
 1230 00ec 4028     		cmp	r0, #64
 1231 00ee 21D1     		bne	.L144
 1232 00f0 0135     		adds	r5, r5, #1
 1233 00f2 3246     		mov	r2, r6
 1234 00f4 B6E7     		b	.L136
ARM GAS  /tmp/ccZfeEvZ.s 			page 22


 1235              	.L137:
 1236 00f6 B6F5803F 		cmp	r6, #65536
 1237 00fa 04D2     		bcs	.L140
 1238              		.syntax unified
 1239              	@ 879 "./cmsis/inc/cmsis_gcc.h" 1
 1240 00fc BFF34F8F 		dsb 0xF
 1241              	@ 0 "" 2
 1242              		.thumb
 1243              		.syntax unified
 1244 0100 81F80080 		strb	r8, [r1]
 1245 0104 D8E7     		b	.L152
 1246              	.L140:
 1247              		.syntax unified
 1248              	@ 879 "./cmsis/inc/cmsis_gcc.h" 1
 1249 0106 BFF34F8F 		dsb 0xF
 1250              	@ 0 "" 2
 1251              		.thumb
 1252              		.syntax unified
 1253 010a 81F80080 		strb	r8, [r1]
 1254              	.L154:
 1255              		.syntax unified
 1256              	@ 879 "./cmsis/inc/cmsis_gcc.h" 1
 1257 010e BFF34F8F 		dsb 0xF
 1258              	@ 0 "" 2
 1259              		.thumb
 1260              		.syntax unified
 1261 0112 81F800E0 		strb	lr, [r1]
 1262              		.syntax unified
 1263              	@ 879 "./cmsis/inc/cmsis_gcc.h" 1
 1264 0116 BFF34F8F 		dsb 0xF
 1265              	@ 0 "" 2
 1266              		.thumb
 1267              		.syntax unified
 1268 011a C0B2     		uxtb	r0, r0
 1269 011c 0870     		strb	r0, [r1]
 1270              		.syntax unified
 1271              	@ 879 "./cmsis/inc/cmsis_gcc.h" 1
 1272 011e BFF34F8F 		dsb 0xF
 1273              	@ 0 "" 2
 1274              		.thumb
 1275              		.syntax unified
 1276 0122 C5F30740 		ubfx	r0, r5, #16, #8
 1277 0126 CEE7     		b	.L153
 1278              	.L142:
 1279 0128 16F8011B 		ldrb	r1, [r6], #1	@ zero_extendqisi2
 1280 012c 3970     		strb	r1, [r7]
 1281              		.syntax unified
 1282              	@ 879 "./cmsis/inc/cmsis_gcc.h" 1
 1283 012e BFF34F8F 		dsb 0xF
 1284              	@ 0 "" 2
 1285              		.thumb
 1286              		.syntax unified
 1287 0132 CCE7     		b	.L141
 1288              	.L144:
 1289 0134 FFF7FEFF 		bl	HAL_GetTick
 1290 0138 A0EB0B00 		sub	r0, r0, fp
 1291 013c B0F1807F 		cmp	r0, #16777216
ARM GAS  /tmp/ccZfeEvZ.s 			page 23


 1292 0140 D1D9     		bls	.L143
 1293 0142 0320     		movs	r0, #3
 1294 0144 0023     		movs	r3, #0
 1295 0146 84F82100 		strb	r0, [r4, #33]
 1296 014a 84F82030 		strb	r3, [r4, #32]
 1297              	.L134:
 1298 014e 03B0     		add	sp, sp, #12
 1299              		@ sp needed
 1300 0150 BDE8F08F 		pop	{r4, r5, r6, r7, r8, r9, r10, fp, pc}
 1301              	.L148:
 1302 0154 0120     		movs	r0, #1
 1303 0156 FAE7     		b	.L134
 1305              		.section	.text.HAL_NAND_Write_Page_16b,"ax",%progbits
 1306              		.align	1
 1307              		.global	HAL_NAND_Write_Page_16b
 1308              		.syntax unified
 1309              		.thumb
 1310              		.thumb_func
 1311              		.fpu softvfp
 1313              	HAL_NAND_Write_Page_16b:
 1314              		@ args = 0, pretend = 0, frame = 8
 1315              		@ frame_needed = 0, uses_anonymous_args = 0
 1316 0000 2DE9F74F 		push	{r0, r1, r2, r4, r5, r6, r7, r8, r9, r10, fp, lr}
 1317 0004 0446     		mov	r4, r0
 1318 0006 90F82100 		ldrb	r0, [r0, #33]	@ zero_extendqisi2
 1319 000a 1746     		mov	r7, r2
 1320 000c C0B2     		uxtb	r0, r0
 1321 000e 0228     		cmp	r0, #2
 1322 0010 00F09D80 		beq	.L156
 1323 0014 94F82120 		ldrb	r2, [r4, #33]	@ zero_extendqisi2
 1324 0018 D2B2     		uxtb	r2, r2
 1325 001a 012A     		cmp	r2, #1
 1326 001c 40F09A80 		bne	.L170
 1327 0020 94F82000 		ldrb	r0, [r4, #32]	@ zero_extendqisi2
 1328 0024 0128     		cmp	r0, #1
 1329 0026 4FF00200 		mov	r0, #2
 1330 002a 00F09080 		beq	.L156
 1331 002e 84F82020 		strb	r2, [r4, #32]
 1332 0032 6268     		ldr	r2, [r4, #4]
 1333 0034 4FF00008 		mov	r8, #0
 1334 0038 102A     		cmp	r2, #16
 1335 003a 0CBF     		ite	eq
 1336 003c 4FF0E046 		moveq	r6, #1879048192
 1337 0040 4FF00046 		movne	r6, #-2147483648
 1338 0044 4FF0800A 		mov	r10, #128
 1339 0048 8A88     		ldrh	r2, [r1, #4]
 1340 004a 84F82100 		strb	r0, [r4, #33]
 1341 004e 4D88     		ldrh	r5, [r1, #2]
 1342 0050 A06B     		ldr	r0, [r4, #56]
 1343 0052 46F48039 		orr	r9, r6, #65536
 1344 0056 00FB0525 		mla	r5, r0, r5, r2
 1345 005a E06A     		ldr	r0, [r4, #44]
 1346 005c 0A88     		ldrh	r2, [r1]
 1347 005e 00FB0525 		mla	r5, r0, r5, r2
 1348 0062 2B44     		add	r3, r3, r5
 1349 0064 0193     		str	r3, [sp, #4]
 1350              	.L158:
ARM GAS  /tmp/ccZfeEvZ.s 			page 24


 1351 0066 019B     		ldr	r3, [sp, #4]
 1352 0068 9D42     		cmp	r5, r3
 1353 006a 04D0     		beq	.L167
 1354 006c E26A     		ldr	r2, [r4, #44]
 1355 006e 236B     		ldr	r3, [r4, #48]
 1356 0070 5343     		muls	r3, r2, r3
 1357 0072 9D42     		cmp	r5, r3
 1358 0074 06D3     		bcc	.L168
 1359              	.L167:
 1360 0076 0123     		movs	r3, #1
 1361 0078 0020     		movs	r0, #0
 1362 007a 84F82130 		strb	r3, [r4, #33]
 1363 007e 84F82000 		strb	r0, [r4, #32]
 1364 0082 64E0     		b	.L156
 1365              	.L168:
 1366 0084 89F80080 		strb	r8, [r9]
 1367              		.syntax unified
 1368              	@ 879 "./cmsis/inc/cmsis_gcc.h" 1
 1369 0088 BFF34F8F 		dsb 0xF
 1370              	@ 0 "" 2
 1371              		.thumb
 1372              		.syntax unified
 1373 008c 89F800A0 		strb	r10, [r9]
 1374              		.syntax unified
 1375              	@ 879 "./cmsis/inc/cmsis_gcc.h" 1
 1376 0090 BFF34F8F 		dsb 0xF
 1377              	@ 0 "" 2
 1378              		.thumb
 1379              		.syntax unified
 1380 0094 636A     		ldr	r3, [r4, #36]
 1381 0096 E16A     		ldr	r1, [r4, #44]
 1382 0098 206B     		ldr	r0, [r4, #48]
 1383 009a B3F5007F 		cmp	r3, #512
 1384 009e 46F40032 		orr	r2, r6, #131072
 1385 00a2 5FFA85FE 		uxtb	lr, r5
 1386 00a6 4FEA1523 		lsr	r3, r5, #8
 1387 00aa 00FB01F0 		mul	r0, r0, r1
 1388 00ae 82F80080 		strb	r8, [r2]
 1389 00b2 1FD8     		bhi	.L159
 1390 00b4 B0F5803F 		cmp	r0, #65536
 1391 00b8 28D2     		bcs	.L176
 1392              	.L174:
 1393              		.syntax unified
 1394              	@ 879 "./cmsis/inc/cmsis_gcc.h" 1
 1395 00ba BFF34F8F 		dsb 0xF
 1396              	@ 0 "" 2
 1397              		.thumb
 1398              		.syntax unified
 1399 00be 82F800E0 		strb	lr, [r2]
 1400              		.syntax unified
 1401              	@ 879 "./cmsis/inc/cmsis_gcc.h" 1
 1402 00c2 BFF34F8F 		dsb 0xF
 1403              	@ 0 "" 2
 1404              		.thumb
 1405              		.syntax unified
 1406 00c6 DBB2     		uxtb	r3, r3
 1407              	.L175:
ARM GAS  /tmp/ccZfeEvZ.s 			page 25


 1408 00c8 1370     		strb	r3, [r2]
 1409              		.syntax unified
 1410              	@ 879 "./cmsis/inc/cmsis_gcc.h" 1
 1411 00ca BFF34F8F 		dsb 0xF
 1412              	@ 0 "" 2
 1413              		.thumb
 1414              		.syntax unified
 1415 00ce 0023     		movs	r3, #0
 1416              	.L163:
 1417 00d0 626A     		ldr	r2, [r4, #36]
 1418 00d2 9342     		cmp	r3, r2
 1419 00d4 27D3     		bcc	.L164
 1420 00d6 1023     		movs	r3, #16
 1421 00d8 89F80030 		strb	r3, [r9]
 1422              		.syntax unified
 1423              	@ 879 "./cmsis/inc/cmsis_gcc.h" 1
 1424 00dc BFF34F8F 		dsb 0xF
 1425              	@ 0 "" 2
 1426              		.thumb
 1427              		.syntax unified
 1428 00e0 FFF7FEFF 		bl	HAL_GetTick
 1429 00e4 8346     		mov	fp, r0
 1430              	.L165:
 1431 00e6 2046     		mov	r0, r4
 1432 00e8 FFF7FEFF 		bl	HAL_NAND_Read_Status
 1433 00ec 4028     		cmp	r0, #64
 1434 00ee 21D1     		bne	.L166
 1435 00f0 0135     		adds	r5, r5, #1
 1436 00f2 B8E7     		b	.L158
 1437              	.L159:
 1438 00f4 B0F5803F 		cmp	r0, #65536
 1439 00f8 04D2     		bcs	.L162
 1440              		.syntax unified
 1441              	@ 879 "./cmsis/inc/cmsis_gcc.h" 1
 1442 00fa BFF34F8F 		dsb 0xF
 1443              	@ 0 "" 2
 1444              		.thumb
 1445              		.syntax unified
 1446 00fe 82F80080 		strb	r8, [r2]
 1447 0102 DAE7     		b	.L174
 1448              	.L162:
 1449              		.syntax unified
 1450              	@ 879 "./cmsis/inc/cmsis_gcc.h" 1
 1451 0104 BFF34F8F 		dsb 0xF
 1452              	@ 0 "" 2
 1453              		.thumb
 1454              		.syntax unified
 1455 0108 82F80080 		strb	r8, [r2]
 1456              	.L176:
 1457              		.syntax unified
 1458              	@ 879 "./cmsis/inc/cmsis_gcc.h" 1
 1459 010c BFF34F8F 		dsb 0xF
 1460              	@ 0 "" 2
 1461              		.thumb
 1462              		.syntax unified
 1463 0110 82F800E0 		strb	lr, [r2]
 1464              		.syntax unified
ARM GAS  /tmp/ccZfeEvZ.s 			page 26


 1465              	@ 879 "./cmsis/inc/cmsis_gcc.h" 1
 1466 0114 BFF34F8F 		dsb 0xF
 1467              	@ 0 "" 2
 1468              		.thumb
 1469              		.syntax unified
 1470 0118 DBB2     		uxtb	r3, r3
 1471 011a 1370     		strb	r3, [r2]
 1472              		.syntax unified
 1473              	@ 879 "./cmsis/inc/cmsis_gcc.h" 1
 1474 011c BFF34F8F 		dsb 0xF
 1475              	@ 0 "" 2
 1476              		.thumb
 1477              		.syntax unified
 1478 0120 C5F30743 		ubfx	r3, r5, #16, #8
 1479 0124 D0E7     		b	.L175
 1480              	.L164:
 1481 0126 37F8022B 		ldrh	r2, [r7], #2
 1482 012a 3280     		strh	r2, [r6]	@ movhi
 1483              		.syntax unified
 1484              	@ 879 "./cmsis/inc/cmsis_gcc.h" 1
 1485 012c BFF34F8F 		dsb 0xF
 1486              	@ 0 "" 2
 1487              		.thumb
 1488              		.syntax unified
 1489 0130 0133     		adds	r3, r3, #1
 1490 0132 CDE7     		b	.L163
 1491              	.L166:
 1492 0134 FFF7FEFF 		bl	HAL_GetTick
 1493 0138 A0EB0B00 		sub	r0, r0, fp
 1494 013c B0F1807F 		cmp	r0, #16777216
 1495 0140 D1D9     		bls	.L165
 1496 0142 0320     		movs	r0, #3
 1497 0144 0023     		movs	r3, #0
 1498 0146 84F82100 		strb	r0, [r4, #33]
 1499 014a 84F82030 		strb	r3, [r4, #32]
 1500              	.L156:
 1501 014e 03B0     		add	sp, sp, #12
 1502              		@ sp needed
 1503 0150 BDE8F08F 		pop	{r4, r5, r6, r7, r8, r9, r10, fp, pc}
 1504              	.L170:
 1505 0154 0120     		movs	r0, #1
 1506 0156 FAE7     		b	.L156
 1508              		.section	.text.HAL_NAND_Read_SpareArea_8b,"ax",%progbits
 1509              		.align	1
 1510              		.global	HAL_NAND_Read_SpareArea_8b
 1511              		.syntax unified
 1512              		.thumb
 1513              		.thumb_func
 1514              		.fpu softvfp
 1516              	HAL_NAND_Read_SpareArea_8b:
 1517              		@ args = 0, pretend = 0, frame = 16
 1518              		@ frame_needed = 0, uses_anonymous_args = 0
 1519 0000 2DE9F04F 		push	{r4, r5, r6, r7, r8, r9, r10, fp, lr}
 1520 0004 0446     		mov	r4, r0
 1521 0006 90F82100 		ldrb	r0, [r0, #33]	@ zero_extendqisi2
 1522 000a 85B0     		sub	sp, sp, #20
 1523 000c C0B2     		uxtb	r0, r0
ARM GAS  /tmp/ccZfeEvZ.s 			page 27


 1524 000e 0228     		cmp	r0, #2
 1525 0010 9146     		mov	r9, r2
 1526 0012 00F0A580 		beq	.L178
 1527 0016 94F82120 		ldrb	r2, [r4, #33]	@ zero_extendqisi2
 1528 001a D2B2     		uxtb	r2, r2
 1529 001c 012A     		cmp	r2, #1
 1530 001e 40F0A780 		bne	.L193
 1531 0022 94F82000 		ldrb	r0, [r4, #32]	@ zero_extendqisi2
 1532 0026 0128     		cmp	r0, #1
 1533 0028 4FF00200 		mov	r0, #2
 1534 002c 00F09880 		beq	.L178
 1535 0030 84F82020 		strb	r2, [r4, #32]
 1536 0034 6268     		ldr	r2, [r4, #4]
 1537 0036 0027     		movs	r7, #0
 1538 0038 102A     		cmp	r2, #16
 1539 003a 0CBF     		ite	eq
 1540 003c 4FF0E048 		moveq	r8, #1879048192
 1541 0040 4FF00048 		movne	r8, #-2147483648
 1542 0044 4A88     		ldrh	r2, [r1, #2]
 1543 0046 A56B     		ldr	r5, [r4, #56]
 1544 0048 84F82100 		strb	r0, [r4, #33]
 1545 004c 8888     		ldrh	r0, [r1, #4]
 1546 004e 0988     		ldrh	r1, [r1]
 1547 0050 05FB0202 		mla	r2, r5, r2, r0
 1548 0054 E06A     		ldr	r0, [r4, #44]
 1549 0056 48F48036 		orr	r6, r8, #65536
 1550 005a 00FB021B 		mla	fp, r0, r2, r1
 1551 005e 626A     		ldr	r2, [r4, #36]
 1552 0060 5B44     		add	r3, r3, fp
 1553 0062 0192     		str	r2, [sp, #4]
 1554 0064 C2F3072A 		ubfx	r10, r2, #8, #8
 1555 0068 0393     		str	r3, [sp, #12]
 1556 006a 48F40035 		orr	r5, r8, #131072
 1557              	.L180:
 1558 006e 039B     		ldr	r3, [sp, #12]
 1559 0070 9B45     		cmp	fp, r3
 1560 0072 04D0     		beq	.L190
 1561 0074 E16A     		ldr	r1, [r4, #44]
 1562 0076 236B     		ldr	r3, [r4, #48]
 1563 0078 4B43     		muls	r3, r1, r3
 1564 007a 9B45     		cmp	fp, r3
 1565 007c 06D3     		bcc	.L191
 1566              	.L190:
 1567 007e 0123     		movs	r3, #1
 1568 0080 0020     		movs	r0, #0
 1569 0082 84F82130 		strb	r3, [r4, #33]
 1570 0086 84F82000 		strb	r0, [r4, #32]
 1571 008a 69E0     		b	.L178
 1572              	.L191:
 1573 008c 636A     		ldr	r3, [r4, #36]
 1574 008e 5FFA8BFE 		uxtb	lr, fp
 1575 0092 B3F5007F 		cmp	r3, #512
 1576 0096 4FEA1B20 		lsr	r0, fp, #8
 1577 009a 31D8     		bhi	.L181
 1578 009c 5023     		movs	r3, #80
 1579 009e 3370     		strb	r3, [r6]
 1580              		.syntax unified
ARM GAS  /tmp/ccZfeEvZ.s 			page 28


 1581              	@ 879 "./cmsis/inc/cmsis_gcc.h" 1
 1582 00a0 BFF34F8F 		dsb 0xF
 1583              	@ 0 "" 2
 1584              		.thumb
 1585              		.syntax unified
 1586 00a4 E16A     		ldr	r1, [r4, #44]
 1587 00a6 236B     		ldr	r3, [r4, #48]
 1588 00a8 2F70     		strb	r7, [r5]
 1589 00aa 4B43     		muls	r3, r1, r3
 1590 00ac B3F5803F 		cmp	r3, #65536
 1591 00b0 3BD2     		bcs	.L198
 1592              	.L199:
 1593              		.syntax unified
 1594              	@ 879 "./cmsis/inc/cmsis_gcc.h" 1
 1595 00b2 BFF34F8F 		dsb 0xF
 1596              	@ 0 "" 2
 1597              		.thumb
 1598              		.syntax unified
 1599 00b6 85F800E0 		strb	lr, [r5]
 1600              		.syntax unified
 1601              	@ 879 "./cmsis/inc/cmsis_gcc.h" 1
 1602 00ba BFF34F8F 		dsb 0xF
 1603              	@ 0 "" 2
 1604              		.thumb
 1605              		.syntax unified
 1606 00be C0B2     		uxtb	r0, r0
 1607 00c0 2870     		strb	r0, [r5]
 1608              	.L197:
 1609              		.syntax unified
 1610              	@ 879 "./cmsis/inc/cmsis_gcc.h" 1
 1611 00c2 BFF34F8F 		dsb 0xF
 1612              	@ 0 "" 2
 1613              		.thumb
 1614              		.syntax unified
 1615 00c6 3023     		movs	r3, #48
 1616 00c8 3370     		strb	r3, [r6]
 1617              		.syntax unified
 1618              	@ 879 "./cmsis/inc/cmsis_gcc.h" 1
 1619 00ca BFF34F8F 		dsb 0xF
 1620              	@ 0 "" 2
 1621              		.thumb
 1622              		.syntax unified
 1623 00ce 94F83C30 		ldrb	r3, [r4, #60]	@ zero_extendqisi2
 1624 00d2 012B     		cmp	r3, #1
 1625 00d4 0AD1     		bne	.L185
 1626 00d6 FFF7FEFF 		bl	HAL_GetTick
 1627 00da 0290     		str	r0, [sp, #8]
 1628              	.L186:
 1629 00dc 2046     		mov	r0, r4
 1630 00de FFF7FEFF 		bl	HAL_NAND_Read_Status
 1631 00e2 4028     		cmp	r0, #64
 1632 00e4 2FD1     		bne	.L187
 1633 00e6 3770     		strb	r7, [r6]
 1634              		.syntax unified
 1635              	@ 879 "./cmsis/inc/cmsis_gcc.h" 1
 1636 00e8 BFF34F8F 		dsb 0xF
 1637              	@ 0 "" 2
ARM GAS  /tmp/ccZfeEvZ.s 			page 29


 1638              		.thumb
 1639              		.syntax unified
 1640              	.L185:
 1641 00ec 4B46     		mov	r3, r9
 1642              	.L188:
 1643 00ee A16A     		ldr	r1, [r4, #40]
 1644 00f0 A3EB0900 		sub	r0, r3, r9
 1645 00f4 8142     		cmp	r1, r0
 1646 00f6 36D8     		bhi	.L189
 1647 00f8 0BF1010B 		add	fp, fp, #1
 1648 00fc 9946     		mov	r9, r3
 1649 00fe B6E7     		b	.L180
 1650              	.L181:
 1651 0100 3770     		strb	r7, [r6]
 1652              		.syntax unified
 1653              	@ 879 "./cmsis/inc/cmsis_gcc.h" 1
 1654 0102 BFF34F8F 		dsb 0xF
 1655              	@ 0 "" 2
 1656              		.thumb
 1657              		.syntax unified
 1658 0106 E16A     		ldr	r1, [r4, #44]
 1659 0108 236B     		ldr	r3, [r4, #48]
 1660 010a 4B43     		muls	r3, r1, r3
 1661 010c B3F5803F 		cmp	r3, #65536
 1662 0110 9DF80430 		ldrb	r3, [sp, #4]	@ zero_extendqisi2
 1663 0114 2B70     		strb	r3, [r5]
 1664 0116 04D2     		bcs	.L184
 1665              		.syntax unified
 1666              	@ 879 "./cmsis/inc/cmsis_gcc.h" 1
 1667 0118 BFF34F8F 		dsb 0xF
 1668              	@ 0 "" 2
 1669              		.thumb
 1670              		.syntax unified
 1671 011c 85F800A0 		strb	r10, [r5]
 1672 0120 C7E7     		b	.L199
 1673              	.L184:
 1674              		.syntax unified
 1675              	@ 879 "./cmsis/inc/cmsis_gcc.h" 1
 1676 0122 BFF34F8F 		dsb 0xF
 1677              	@ 0 "" 2
 1678              		.thumb
 1679              		.syntax unified
 1680 0126 85F800A0 		strb	r10, [r5]
 1681              	.L198:
 1682              		.syntax unified
 1683              	@ 879 "./cmsis/inc/cmsis_gcc.h" 1
 1684 012a BFF34F8F 		dsb 0xF
 1685              	@ 0 "" 2
 1686              		.thumb
 1687              		.syntax unified
 1688 012e 85F800E0 		strb	lr, [r5]
 1689              		.syntax unified
 1690              	@ 879 "./cmsis/inc/cmsis_gcc.h" 1
 1691 0132 BFF34F8F 		dsb 0xF
 1692              	@ 0 "" 2
 1693              		.thumb
 1694              		.syntax unified
ARM GAS  /tmp/ccZfeEvZ.s 			page 30


 1695 0136 C0B2     		uxtb	r0, r0
 1696 0138 2870     		strb	r0, [r5]
 1697              		.syntax unified
 1698              	@ 879 "./cmsis/inc/cmsis_gcc.h" 1
 1699 013a BFF34F8F 		dsb 0xF
 1700              	@ 0 "" 2
 1701              		.thumb
 1702              		.syntax unified
 1703 013e CBF30743 		ubfx	r3, fp, #16, #8
 1704 0142 2B70     		strb	r3, [r5]
 1705 0144 BDE7     		b	.L197
 1706              	.L187:
 1707 0146 FFF7FEFF 		bl	HAL_GetTick
 1708 014a 029B     		ldr	r3, [sp, #8]
 1709 014c C01A     		subs	r0, r0, r3
 1710 014e B0F1807F 		cmp	r0, #16777216
 1711 0152 C3D9     		bls	.L186
 1712 0154 0320     		movs	r0, #3
 1713 0156 0023     		movs	r3, #0
 1714 0158 84F82100 		strb	r0, [r4, #33]
 1715 015c 84F82030 		strb	r3, [r4, #32]
 1716              	.L178:
 1717 0160 05B0     		add	sp, sp, #20
 1718              		@ sp needed
 1719 0162 BDE8F08F 		pop	{r4, r5, r6, r7, r8, r9, r10, fp, pc}
 1720              	.L189:
 1721 0166 98F80010 		ldrb	r1, [r8]	@ zero_extendqisi2
 1722 016a 03F8011B 		strb	r1, [r3], #1
 1723 016e BEE7     		b	.L188
 1724              	.L193:
 1725 0170 0120     		movs	r0, #1
 1726 0172 F5E7     		b	.L178
 1728              		.section	.text.HAL_NAND_Read_SpareArea_16b,"ax",%progbits
 1729              		.align	1
 1730              		.global	HAL_NAND_Read_SpareArea_16b
 1731              		.syntax unified
 1732              		.thumb
 1733              		.thumb_func
 1734              		.fpu softvfp
 1736              	HAL_NAND_Read_SpareArea_16b:
 1737              		@ args = 0, pretend = 0, frame = 16
 1738              		@ frame_needed = 0, uses_anonymous_args = 0
 1739 0000 2DE9F04F 		push	{r4, r5, r6, r7, r8, r9, r10, fp, lr}
 1740 0004 0446     		mov	r4, r0
 1741 0006 90F82100 		ldrb	r0, [r0, #33]	@ zero_extendqisi2
 1742 000a 85B0     		sub	sp, sp, #20
 1743 000c C0B2     		uxtb	r0, r0
 1744 000e 0228     		cmp	r0, #2
 1745 0010 9146     		mov	r9, r2
 1746 0012 00F0A580 		beq	.L201
 1747 0016 94F82120 		ldrb	r2, [r4, #33]	@ zero_extendqisi2
 1748 001a D2B2     		uxtb	r2, r2
 1749 001c 012A     		cmp	r2, #1
 1750 001e 40F0A880 		bne	.L216
 1751 0022 94F82000 		ldrb	r0, [r4, #32]	@ zero_extendqisi2
 1752 0026 0128     		cmp	r0, #1
 1753 0028 4FF00200 		mov	r0, #2
ARM GAS  /tmp/ccZfeEvZ.s 			page 31


 1754 002c 00F09880 		beq	.L201
 1755 0030 84F82020 		strb	r2, [r4, #32]
 1756 0034 6268     		ldr	r2, [r4, #4]
 1757 0036 0027     		movs	r7, #0
 1758 0038 102A     		cmp	r2, #16
 1759 003a 0CBF     		ite	eq
 1760 003c 4FF0E048 		moveq	r8, #1879048192
 1761 0040 4FF00048 		movne	r8, #-2147483648
 1762 0044 4A88     		ldrh	r2, [r1, #2]
 1763 0046 A56B     		ldr	r5, [r4, #56]
 1764 0048 84F82100 		strb	r0, [r4, #33]
 1765 004c 8888     		ldrh	r0, [r1, #4]
 1766 004e 0988     		ldrh	r1, [r1]
 1767 0050 05FB0202 		mla	r2, r5, r2, r0
 1768 0054 E06A     		ldr	r0, [r4, #44]
 1769 0056 48F48036 		orr	r6, r8, #65536
 1770 005a 00FB021B 		mla	fp, r0, r2, r1
 1771 005e 616A     		ldr	r1, [r4, #36]
 1772 0060 5B44     		add	r3, r3, fp
 1773 0062 4A00     		lsls	r2, r1, #1
 1774 0064 0192     		str	r2, [sp, #4]
 1775 0066 C2F3072A 		ubfx	r10, r2, #8, #8
 1776 006a 0293     		str	r3, [sp, #8]
 1777 006c 48F40035 		orr	r5, r8, #131072
 1778              	.L203:
 1779 0070 029B     		ldr	r3, [sp, #8]
 1780 0072 9B45     		cmp	fp, r3
 1781 0074 04D0     		beq	.L213
 1782 0076 E16A     		ldr	r1, [r4, #44]
 1783 0078 236B     		ldr	r3, [r4, #48]
 1784 007a 4B43     		muls	r3, r1, r3
 1785 007c 9B45     		cmp	fp, r3
 1786 007e 06D3     		bcc	.L214
 1787              	.L213:
 1788 0080 0123     		movs	r3, #1
 1789 0082 0020     		movs	r0, #0
 1790 0084 84F82130 		strb	r3, [r4, #33]
 1791 0088 84F82000 		strb	r0, [r4, #32]
 1792 008c 68E0     		b	.L201
 1793              	.L214:
 1794 008e 636A     		ldr	r3, [r4, #36]
 1795 0090 5FFA8BFE 		uxtb	lr, fp
 1796 0094 B3F5007F 		cmp	r3, #512
 1797 0098 4FEA1B20 		lsr	r0, fp, #8
 1798 009c 30D8     		bhi	.L204
 1799 009e 5023     		movs	r3, #80
 1800 00a0 3370     		strb	r3, [r6]
 1801              		.syntax unified
 1802              	@ 879 "./cmsis/inc/cmsis_gcc.h" 1
 1803 00a2 BFF34F8F 		dsb 0xF
 1804              	@ 0 "" 2
 1805              		.thumb
 1806              		.syntax unified
 1807 00a6 E16A     		ldr	r1, [r4, #44]
 1808 00a8 236B     		ldr	r3, [r4, #48]
 1809 00aa 2F70     		strb	r7, [r5]
 1810 00ac 4B43     		muls	r3, r1, r3
ARM GAS  /tmp/ccZfeEvZ.s 			page 32


 1811 00ae B3F5803F 		cmp	r3, #65536
 1812 00b2 3AD2     		bcs	.L221
 1813              	.L222:
 1814              		.syntax unified
 1815              	@ 879 "./cmsis/inc/cmsis_gcc.h" 1
 1816 00b4 BFF34F8F 		dsb 0xF
 1817              	@ 0 "" 2
 1818              		.thumb
 1819              		.syntax unified
 1820 00b8 85F800E0 		strb	lr, [r5]
 1821              		.syntax unified
 1822              	@ 879 "./cmsis/inc/cmsis_gcc.h" 1
 1823 00bc BFF34F8F 		dsb 0xF
 1824              	@ 0 "" 2
 1825              		.thumb
 1826              		.syntax unified
 1827 00c0 C0B2     		uxtb	r0, r0
 1828 00c2 2870     		strb	r0, [r5]
 1829              	.L220:
 1830              		.syntax unified
 1831              	@ 879 "./cmsis/inc/cmsis_gcc.h" 1
 1832 00c4 BFF34F8F 		dsb 0xF
 1833              	@ 0 "" 2
 1834              		.thumb
 1835              		.syntax unified
 1836 00c8 3023     		movs	r3, #48
 1837 00ca 3370     		strb	r3, [r6]
 1838              		.syntax unified
 1839              	@ 879 "./cmsis/inc/cmsis_gcc.h" 1
 1840 00cc BFF34F8F 		dsb 0xF
 1841              	@ 0 "" 2
 1842              		.thumb
 1843              		.syntax unified
 1844 00d0 94F83C30 		ldrb	r3, [r4, #60]	@ zero_extendqisi2
 1845 00d4 012B     		cmp	r3, #1
 1846 00d6 0AD1     		bne	.L208
 1847 00d8 FFF7FEFF 		bl	HAL_GetTick
 1848 00dc 0390     		str	r0, [sp, #12]
 1849              	.L209:
 1850 00de 2046     		mov	r0, r4
 1851 00e0 FFF7FEFF 		bl	HAL_NAND_Read_Status
 1852 00e4 4028     		cmp	r0, #64
 1853 00e6 2ED1     		bne	.L210
 1854 00e8 3770     		strb	r7, [r6]
 1855              		.syntax unified
 1856              	@ 879 "./cmsis/inc/cmsis_gcc.h" 1
 1857 00ea BFF34F8F 		dsb 0xF
 1858              	@ 0 "" 2
 1859              		.thumb
 1860              		.syntax unified
 1861              	.L208:
 1862 00ee 0023     		movs	r3, #0
 1863 00f0 A16A     		ldr	r1, [r4, #40]
 1864              	.L211:
 1865 00f2 8B42     		cmp	r3, r1
 1866 00f4 37D1     		bne	.L212
 1867 00f6 09EB4309 		add	r9, r9, r3, lsl #1
ARM GAS  /tmp/ccZfeEvZ.s 			page 33


 1868 00fa 0BF1010B 		add	fp, fp, #1
 1869 00fe B7E7     		b	.L203
 1870              	.L204:
 1871 0100 3770     		strb	r7, [r6]
 1872              		.syntax unified
 1873              	@ 879 "./cmsis/inc/cmsis_gcc.h" 1
 1874 0102 BFF34F8F 		dsb 0xF
 1875              	@ 0 "" 2
 1876              		.thumb
 1877              		.syntax unified
 1878 0106 E16A     		ldr	r1, [r4, #44]
 1879 0108 236B     		ldr	r3, [r4, #48]
 1880 010a 4B43     		muls	r3, r1, r3
 1881 010c B3F5803F 		cmp	r3, #65536
 1882 0110 9DF80430 		ldrb	r3, [sp, #4]	@ zero_extendqisi2
 1883 0114 2B70     		strb	r3, [r5]
 1884 0116 04D2     		bcs	.L207
 1885              		.syntax unified
 1886              	@ 879 "./cmsis/inc/cmsis_gcc.h" 1
 1887 0118 BFF34F8F 		dsb 0xF
 1888              	@ 0 "" 2
 1889              		.thumb
 1890              		.syntax unified
 1891 011c 85F800A0 		strb	r10, [r5]
 1892 0120 C8E7     		b	.L222
 1893              	.L207:
 1894              		.syntax unified
 1895              	@ 879 "./cmsis/inc/cmsis_gcc.h" 1
 1896 0122 BFF34F8F 		dsb 0xF
 1897              	@ 0 "" 2
 1898              		.thumb
 1899              		.syntax unified
 1900 0126 85F800A0 		strb	r10, [r5]
 1901              	.L221:
 1902              		.syntax unified
 1903              	@ 879 "./cmsis/inc/cmsis_gcc.h" 1
 1904 012a BFF34F8F 		dsb 0xF
 1905              	@ 0 "" 2
 1906              		.thumb
 1907              		.syntax unified
 1908 012e 85F800E0 		strb	lr, [r5]
 1909              		.syntax unified
 1910              	@ 879 "./cmsis/inc/cmsis_gcc.h" 1
 1911 0132 BFF34F8F 		dsb 0xF
 1912              	@ 0 "" 2
 1913              		.thumb
 1914              		.syntax unified
 1915 0136 C0B2     		uxtb	r0, r0
 1916 0138 2870     		strb	r0, [r5]
 1917              		.syntax unified
 1918              	@ 879 "./cmsis/inc/cmsis_gcc.h" 1
 1919 013a BFF34F8F 		dsb 0xF
 1920              	@ 0 "" 2
 1921              		.thumb
 1922              		.syntax unified
 1923 013e CBF30743 		ubfx	r3, fp, #16, #8
 1924 0142 2B70     		strb	r3, [r5]
ARM GAS  /tmp/ccZfeEvZ.s 			page 34


 1925 0144 BEE7     		b	.L220
 1926              	.L210:
 1927 0146 FFF7FEFF 		bl	HAL_GetTick
 1928 014a 039B     		ldr	r3, [sp, #12]
 1929 014c C01A     		subs	r0, r0, r3
 1930 014e B0F1807F 		cmp	r0, #16777216
 1931 0152 C4D9     		bls	.L209
 1932 0154 0320     		movs	r0, #3
 1933 0156 0023     		movs	r3, #0
 1934 0158 84F82100 		strb	r0, [r4, #33]
 1935 015c 84F82030 		strb	r3, [r4, #32]
 1936              	.L201:
 1937 0160 05B0     		add	sp, sp, #20
 1938              		@ sp needed
 1939 0162 BDE8F08F 		pop	{r4, r5, r6, r7, r8, r9, r10, fp, pc}
 1940              	.L212:
 1941 0166 B8F80000 		ldrh	r0, [r8]
 1942 016a 29F81300 		strh	r0, [r9, r3, lsl #1]	@ movhi
 1943 016e 0133     		adds	r3, r3, #1
 1944 0170 BFE7     		b	.L211
 1945              	.L216:
 1946 0172 0120     		movs	r0, #1
 1947 0174 F4E7     		b	.L201
 1949              		.section	.text.HAL_NAND_Write_SpareArea_8b,"ax",%progbits
 1950              		.align	1
 1951              		.global	HAL_NAND_Write_SpareArea_8b
 1952              		.syntax unified
 1953              		.thumb
 1954              		.thumb_func
 1955              		.fpu softvfp
 1957              	HAL_NAND_Write_SpareArea_8b:
 1958              		@ args = 0, pretend = 0, frame = 16
 1959              		@ frame_needed = 0, uses_anonymous_args = 0
 1960 0000 2DE9F04F 		push	{r4, r5, r6, r7, r8, r9, r10, fp, lr}
 1961 0004 0446     		mov	r4, r0
 1962 0006 90F82100 		ldrb	r0, [r0, #33]	@ zero_extendqisi2
 1963 000a 85B0     		sub	sp, sp, #20
 1964 000c C0B2     		uxtb	r0, r0
 1965 000e 0228     		cmp	r0, #2
 1966 0010 00F0AF80 		beq	.L224
 1967 0014 94F82150 		ldrb	r5, [r4, #33]	@ zero_extendqisi2
 1968 0018 EDB2     		uxtb	r5, r5
 1969 001a 012D     		cmp	r5, #1
 1970 001c 40F0AC80 		bne	.L238
 1971 0020 94F82000 		ldrb	r0, [r4, #32]	@ zero_extendqisi2
 1972 0024 0128     		cmp	r0, #1
 1973 0026 4FF00200 		mov	r0, #2
 1974 002a 00F0A280 		beq	.L224
 1975 002e 84F82100 		strb	r0, [r4, #33]
 1976 0032 6068     		ldr	r0, [r4, #4]
 1977 0034 4FF00009 		mov	r9, #0
 1978 0038 1028     		cmp	r0, #16
 1979 003a 0CBF     		ite	eq
 1980 003c 4FF0E04A 		moveq	r10, #1879048192
 1981 0040 4FF0004A 		movne	r10, #-2147483648
 1982 0044 8888     		ldrh	r0, [r1, #4]
 1983 0046 4E88     		ldrh	r6, [r1, #2]
ARM GAS  /tmp/ccZfeEvZ.s 			page 35


 1984 0048 84F82050 		strb	r5, [r4, #32]
 1985 004c A56B     		ldr	r5, [r4, #56]
 1986 004e 0988     		ldrh	r1, [r1]
 1987 0050 05FB0606 		mla	r6, r5, r6, r0
 1988 0054 E06A     		ldr	r0, [r4, #44]
 1989 0056 4AF48037 		orr	r7, r10, #65536
 1990 005a 00FB0616 		mla	r6, r0, r6, r1
 1991 005e 616A     		ldr	r1, [r4, #36]
 1992 0060 3344     		add	r3, r3, r6
 1993 0062 0191     		str	r1, [sp, #4]
 1994 0064 C1F3072B 		ubfx	fp, r1, #8, #8
 1995 0068 0393     		str	r3, [sp, #12]
 1996 006a 4AF40035 		orr	r5, r10, #131072
 1997              	.L226:
 1998 006e 039B     		ldr	r3, [sp, #12]
 1999 0070 9E42     		cmp	r6, r3
 2000 0072 04D0     		beq	.L235
 2001 0074 E16A     		ldr	r1, [r4, #44]
 2002 0076 236B     		ldr	r3, [r4, #48]
 2003 0078 4B43     		muls	r3, r1, r3
 2004 007a 9E42     		cmp	r6, r3
 2005 007c 06D3     		bcc	.L236
 2006              	.L235:
 2007 007e 0123     		movs	r3, #1
 2008 0080 0020     		movs	r0, #0
 2009 0082 84F82130 		strb	r3, [r4, #33]
 2010 0086 84F82000 		strb	r0, [r4, #32]
 2011 008a 72E0     		b	.L224
 2012              	.L236:
 2013 008c 636A     		ldr	r3, [r4, #36]
 2014 008e 5FFA86FE 		uxtb	lr, r6
 2015 0092 B3F5007F 		cmp	r3, #512
 2016 0096 4FEA1620 		lsr	r0, r6, #8
 2017 009a 2ED8     		bhi	.L227
 2018 009c 5023     		movs	r3, #80
 2019 009e 3B70     		strb	r3, [r7]
 2020              		.syntax unified
 2021              	@ 879 "./cmsis/inc/cmsis_gcc.h" 1
 2022 00a0 BFF34F8F 		dsb 0xF
 2023              	@ 0 "" 2
 2024              		.thumb
 2025              		.syntax unified
 2026 00a4 8023     		movs	r3, #128
 2027 00a6 3B70     		strb	r3, [r7]
 2028              		.syntax unified
 2029              	@ 879 "./cmsis/inc/cmsis_gcc.h" 1
 2030 00a8 BFF34F8F 		dsb 0xF
 2031              	@ 0 "" 2
 2032              		.thumb
 2033              		.syntax unified
 2034 00ac E16A     		ldr	r1, [r4, #44]
 2035 00ae 236B     		ldr	r3, [r4, #48]
 2036 00b0 85F80090 		strb	r9, [r5]
 2037 00b4 4B43     		muls	r3, r1, r3
 2038 00b6 B3F5803F 		cmp	r3, #65536
 2039 00ba 38D2     		bcs	.L244
 2040              	.L242:
ARM GAS  /tmp/ccZfeEvZ.s 			page 36


 2041              		.syntax unified
 2042              	@ 879 "./cmsis/inc/cmsis_gcc.h" 1
 2043 00bc BFF34F8F 		dsb 0xF
 2044              	@ 0 "" 2
 2045              		.thumb
 2046              		.syntax unified
 2047 00c0 85F800E0 		strb	lr, [r5]
 2048              		.syntax unified
 2049              	@ 879 "./cmsis/inc/cmsis_gcc.h" 1
 2050 00c4 BFF34F8F 		dsb 0xF
 2051              	@ 0 "" 2
 2052              		.thumb
 2053              		.syntax unified
 2054 00c8 C0B2     		uxtb	r0, r0
 2055 00ca 2870     		strb	r0, [r5]
 2056              	.L243:
 2057              		.syntax unified
 2058              	@ 879 "./cmsis/inc/cmsis_gcc.h" 1
 2059 00cc BFF34F8F 		dsb 0xF
 2060              	@ 0 "" 2
 2061              		.thumb
 2062              		.syntax unified
 2063 00d0 9046     		mov	r8, r2
 2064              	.L231:
 2065 00d2 A36A     		ldr	r3, [r4, #40]
 2066 00d4 A8EB0201 		sub	r1, r8, r2
 2067 00d8 8B42     		cmp	r3, r1
 2068 00da 36D8     		bhi	.L232
 2069 00dc 1023     		movs	r3, #16
 2070 00de 3B70     		strb	r3, [r7]
 2071              		.syntax unified
 2072              	@ 879 "./cmsis/inc/cmsis_gcc.h" 1
 2073 00e0 BFF34F8F 		dsb 0xF
 2074              	@ 0 "" 2
 2075              		.thumb
 2076              		.syntax unified
 2077 00e4 FFF7FEFF 		bl	HAL_GetTick
 2078 00e8 0290     		str	r0, [sp, #8]
 2079              	.L233:
 2080 00ea 2046     		mov	r0, r4
 2081 00ec FFF7FEFF 		bl	HAL_NAND_Read_Status
 2082 00f0 4028     		cmp	r0, #64
 2083 00f2 31D1     		bne	.L234
 2084 00f4 0136     		adds	r6, r6, #1
 2085 00f6 4246     		mov	r2, r8
 2086 00f8 B9E7     		b	.L226
 2087              	.L227:
 2088 00fa 87F80090 		strb	r9, [r7]
 2089              		.syntax unified
 2090              	@ 879 "./cmsis/inc/cmsis_gcc.h" 1
 2091 00fe BFF34F8F 		dsb 0xF
 2092              	@ 0 "" 2
 2093              		.thumb
 2094              		.syntax unified
 2095 0102 8023     		movs	r3, #128
 2096 0104 3B70     		strb	r3, [r7]
 2097              		.syntax unified
ARM GAS  /tmp/ccZfeEvZ.s 			page 37


 2098              	@ 879 "./cmsis/inc/cmsis_gcc.h" 1
 2099 0106 BFF34F8F 		dsb 0xF
 2100              	@ 0 "" 2
 2101              		.thumb
 2102              		.syntax unified
 2103 010a E16A     		ldr	r1, [r4, #44]
 2104 010c 236B     		ldr	r3, [r4, #48]
 2105 010e 4B43     		muls	r3, r1, r3
 2106 0110 B3F5803F 		cmp	r3, #65536
 2107 0114 9DF80430 		ldrb	r3, [sp, #4]	@ zero_extendqisi2
 2108 0118 2B70     		strb	r3, [r5]
 2109 011a 04D2     		bcs	.L230
 2110              		.syntax unified
 2111              	@ 879 "./cmsis/inc/cmsis_gcc.h" 1
 2112 011c BFF34F8F 		dsb 0xF
 2113              	@ 0 "" 2
 2114              		.thumb
 2115              		.syntax unified
 2116 0120 85F800B0 		strb	fp, [r5]
 2117 0124 CAE7     		b	.L242
 2118              	.L230:
 2119              		.syntax unified
 2120              	@ 879 "./cmsis/inc/cmsis_gcc.h" 1
 2121 0126 BFF34F8F 		dsb 0xF
 2122              	@ 0 "" 2
 2123              		.thumb
 2124              		.syntax unified
 2125 012a 85F800B0 		strb	fp, [r5]
 2126              	.L244:
 2127              		.syntax unified
 2128              	@ 879 "./cmsis/inc/cmsis_gcc.h" 1
 2129 012e BFF34F8F 		dsb 0xF
 2130              	@ 0 "" 2
 2131              		.thumb
 2132              		.syntax unified
 2133 0132 85F800E0 		strb	lr, [r5]
 2134              		.syntax unified
 2135              	@ 879 "./cmsis/inc/cmsis_gcc.h" 1
 2136 0136 BFF34F8F 		dsb 0xF
 2137              	@ 0 "" 2
 2138              		.thumb
 2139              		.syntax unified
 2140 013a C0B2     		uxtb	r0, r0
 2141 013c 2870     		strb	r0, [r5]
 2142              		.syntax unified
 2143              	@ 879 "./cmsis/inc/cmsis_gcc.h" 1
 2144 013e BFF34F8F 		dsb 0xF
 2145              	@ 0 "" 2
 2146              		.thumb
 2147              		.syntax unified
 2148 0142 C6F30743 		ubfx	r3, r6, #16, #8
 2149 0146 2B70     		strb	r3, [r5]
 2150 0148 C0E7     		b	.L243
 2151              	.L232:
 2152 014a 18F8013B 		ldrb	r3, [r8], #1	@ zero_extendqisi2
 2153 014e 8AF80030 		strb	r3, [r10]
 2154              		.syntax unified
ARM GAS  /tmp/ccZfeEvZ.s 			page 38


 2155              	@ 879 "./cmsis/inc/cmsis_gcc.h" 1
 2156 0152 BFF34F8F 		dsb 0xF
 2157              	@ 0 "" 2
 2158              		.thumb
 2159              		.syntax unified
 2160 0156 BCE7     		b	.L231
 2161              	.L234:
 2162 0158 FFF7FEFF 		bl	HAL_GetTick
 2163 015c 029B     		ldr	r3, [sp, #8]
 2164 015e C01A     		subs	r0, r0, r3
 2165 0160 B0F1807F 		cmp	r0, #16777216
 2166 0164 C1D9     		bls	.L233
 2167 0166 0320     		movs	r0, #3
 2168 0168 0023     		movs	r3, #0
 2169 016a 84F82100 		strb	r0, [r4, #33]
 2170 016e 84F82030 		strb	r3, [r4, #32]
 2171              	.L224:
 2172 0172 05B0     		add	sp, sp, #20
 2173              		@ sp needed
 2174 0174 BDE8F08F 		pop	{r4, r5, r6, r7, r8, r9, r10, fp, pc}
 2175              	.L238:
 2176 0178 0120     		movs	r0, #1
 2177 017a FAE7     		b	.L224
 2179              		.section	.text.HAL_NAND_Write_SpareArea_16b,"ax",%progbits
 2180              		.align	1
 2181              		.global	HAL_NAND_Write_SpareArea_16b
 2182              		.syntax unified
 2183              		.thumb
 2184              		.thumb_func
 2185              		.fpu softvfp
 2187              	HAL_NAND_Write_SpareArea_16b:
 2188              		@ args = 0, pretend = 0, frame = 16
 2189              		@ frame_needed = 0, uses_anonymous_args = 0
 2190 0000 2DE9F04F 		push	{r4, r5, r6, r7, r8, r9, r10, fp, lr}
 2191 0004 0446     		mov	r4, r0
 2192 0006 90F82100 		ldrb	r0, [r0, #33]	@ zero_extendqisi2
 2193 000a 85B0     		sub	sp, sp, #20
 2194 000c C0B2     		uxtb	r0, r0
 2195 000e 0228     		cmp	r0, #2
 2196 0010 9246     		mov	r10, r2
 2197 0012 00F0AE80 		beq	.L246
 2198 0016 94F82120 		ldrb	r2, [r4, #33]	@ zero_extendqisi2
 2199 001a D2B2     		uxtb	r2, r2
 2200 001c 012A     		cmp	r2, #1
 2201 001e 40F0AB80 		bne	.L260
 2202 0022 94F82000 		ldrb	r0, [r4, #32]	@ zero_extendqisi2
 2203 0026 0128     		cmp	r0, #1
 2204 0028 4FF00200 		mov	r0, #2
 2205 002c 00F0A180 		beq	.L246
 2206 0030 84F82020 		strb	r2, [r4, #32]
 2207 0034 6268     		ldr	r2, [r4, #4]
 2208 0036 4FF00009 		mov	r9, #0
 2209 003a 102A     		cmp	r2, #16
 2210 003c 0CBF     		ite	eq
 2211 003e 4FF0E048 		moveq	r8, #1879048192
 2212 0042 4FF00048 		movne	r8, #-2147483648
 2213 0046 8A88     		ldrh	r2, [r1, #4]
ARM GAS  /tmp/ccZfeEvZ.s 			page 39


 2214 0048 84F82100 		strb	r0, [r4, #33]
 2215 004c 4E88     		ldrh	r6, [r1, #2]
 2216 004e A06B     		ldr	r0, [r4, #56]
 2217 0050 48F48037 		orr	r7, r8, #65536
 2218 0054 00FB0626 		mla	r6, r0, r6, r2
 2219 0058 0A88     		ldrh	r2, [r1]
 2220 005a E06A     		ldr	r0, [r4, #44]
 2221 005c 48F40035 		orr	r5, r8, #131072
 2222 0060 00FB0626 		mla	r6, r0, r6, r2
 2223 0064 626A     		ldr	r2, [r4, #36]
 2224 0066 3344     		add	r3, r3, r6
 2225 0068 4FEA420B 		lsl	fp, r2, #1
 2226 006c CBF30722 		ubfx	r2, fp, #8, #8
 2227 0070 0192     		str	r2, [sp, #4]
 2228 0072 0293     		str	r3, [sp, #8]
 2229              	.L248:
 2230 0074 029B     		ldr	r3, [sp, #8]
 2231 0076 9E42     		cmp	r6, r3
 2232 0078 04D0     		beq	.L257
 2233 007a E26A     		ldr	r2, [r4, #44]
 2234 007c 236B     		ldr	r3, [r4, #48]
 2235 007e 5343     		muls	r3, r2, r3
 2236 0080 9E42     		cmp	r6, r3
 2237 0082 06D3     		bcc	.L258
 2238              	.L257:
 2239 0084 0123     		movs	r3, #1
 2240 0086 0020     		movs	r0, #0
 2241 0088 84F82130 		strb	r3, [r4, #33]
 2242 008c 84F82000 		strb	r0, [r4, #32]
 2243 0090 6FE0     		b	.L246
 2244              	.L258:
 2245 0092 636A     		ldr	r3, [r4, #36]
 2246 0094 F0B2     		uxtb	r0, r6
 2247 0096 B3F5007F 		cmp	r3, #512
 2248 009a 4FEA1621 		lsr	r1, r6, #8
 2249 009e 2AD8     		bhi	.L249
 2250 00a0 5023     		movs	r3, #80
 2251 00a2 3B70     		strb	r3, [r7]
 2252              		.syntax unified
 2253              	@ 879 "./cmsis/inc/cmsis_gcc.h" 1
 2254 00a4 BFF34F8F 		dsb 0xF
 2255              	@ 0 "" 2
 2256              		.thumb
 2257              		.syntax unified
 2258 00a8 8023     		movs	r3, #128
 2259 00aa 3B70     		strb	r3, [r7]
 2260              		.syntax unified
 2261              	@ 879 "./cmsis/inc/cmsis_gcc.h" 1
 2262 00ac BFF34F8F 		dsb 0xF
 2263              	@ 0 "" 2
 2264              		.thumb
 2265              		.syntax unified
 2266 00b0 E26A     		ldr	r2, [r4, #44]
 2267 00b2 236B     		ldr	r3, [r4, #48]
 2268 00b4 85F80090 		strb	r9, [r5]
 2269 00b8 5343     		muls	r3, r2, r3
 2270 00ba B3F5803F 		cmp	r3, #65536
ARM GAS  /tmp/ccZfeEvZ.s 			page 40


 2271 00be 36D2     		bcs	.L266
 2272              	.L264:
 2273              		.syntax unified
 2274              	@ 879 "./cmsis/inc/cmsis_gcc.h" 1
 2275 00c0 BFF34F8F 		dsb 0xF
 2276              	@ 0 "" 2
 2277              		.thumb
 2278              		.syntax unified
 2279 00c4 2870     		strb	r0, [r5]
 2280              		.syntax unified
 2281              	@ 879 "./cmsis/inc/cmsis_gcc.h" 1
 2282 00c6 BFF34F8F 		dsb 0xF
 2283              	@ 0 "" 2
 2284              		.thumb
 2285              		.syntax unified
 2286 00ca C9B2     		uxtb	r1, r1
 2287 00cc 2970     		strb	r1, [r5]
 2288              	.L265:
 2289              		.syntax unified
 2290              	@ 879 "./cmsis/inc/cmsis_gcc.h" 1
 2291 00ce BFF34F8F 		dsb 0xF
 2292              	@ 0 "" 2
 2293              		.thumb
 2294              		.syntax unified
 2295 00d2 0022     		movs	r2, #0
 2296              	.L253:
 2297 00d4 A36A     		ldr	r3, [r4, #40]
 2298 00d6 9A42     		cmp	r2, r3
 2299 00d8 36D3     		bcc	.L254
 2300 00da 1023     		movs	r3, #16
 2301 00dc 3B70     		strb	r3, [r7]
 2302              		.syntax unified
 2303              	@ 879 "./cmsis/inc/cmsis_gcc.h" 1
 2304 00de BFF34F8F 		dsb 0xF
 2305              	@ 0 "" 2
 2306              		.thumb
 2307              		.syntax unified
 2308 00e2 FFF7FEFF 		bl	HAL_GetTick
 2309 00e6 0390     		str	r0, [sp, #12]
 2310              	.L255:
 2311 00e8 2046     		mov	r0, r4
 2312 00ea FFF7FEFF 		bl	HAL_NAND_Read_Status
 2313 00ee 4028     		cmp	r0, #64
 2314 00f0 32D1     		bne	.L256
 2315 00f2 0136     		adds	r6, r6, #1
 2316 00f4 BEE7     		b	.L248
 2317              	.L249:
 2318 00f6 87F80090 		strb	r9, [r7]
 2319              		.syntax unified
 2320              	@ 879 "./cmsis/inc/cmsis_gcc.h" 1
 2321 00fa BFF34F8F 		dsb 0xF
 2322              	@ 0 "" 2
 2323              		.thumb
 2324              		.syntax unified
 2325 00fe 8023     		movs	r3, #128
 2326 0100 3B70     		strb	r3, [r7]
 2327              		.syntax unified
ARM GAS  /tmp/ccZfeEvZ.s 			page 41


 2328              	@ 879 "./cmsis/inc/cmsis_gcc.h" 1
 2329 0102 BFF34F8F 		dsb 0xF
 2330              	@ 0 "" 2
 2331              		.thumb
 2332              		.syntax unified
 2333 0106 E26A     		ldr	r2, [r4, #44]
 2334 0108 236B     		ldr	r3, [r4, #48]
 2335 010a 5343     		muls	r3, r2, r3
 2336 010c B3F5803F 		cmp	r3, #65536
 2337 0110 5FFA8BF3 		uxtb	r3, fp
 2338 0114 2B70     		strb	r3, [r5]
 2339 0116 05D2     		bcs	.L252
 2340              		.syntax unified
 2341              	@ 879 "./cmsis/inc/cmsis_gcc.h" 1
 2342 0118 BFF34F8F 		dsb 0xF
 2343              	@ 0 "" 2
 2344              		.thumb
 2345              		.syntax unified
 2346 011c 9DF80430 		ldrb	r3, [sp, #4]	@ zero_extendqisi2
 2347 0120 2B70     		strb	r3, [r5]
 2348 0122 CDE7     		b	.L264
 2349              	.L252:
 2350              		.syntax unified
 2351              	@ 879 "./cmsis/inc/cmsis_gcc.h" 1
 2352 0124 BFF34F8F 		dsb 0xF
 2353              	@ 0 "" 2
 2354              		.thumb
 2355              		.syntax unified
 2356 0128 9DF80430 		ldrb	r3, [sp, #4]	@ zero_extendqisi2
 2357 012c 2B70     		strb	r3, [r5]
 2358              	.L266:
 2359              		.syntax unified
 2360              	@ 879 "./cmsis/inc/cmsis_gcc.h" 1
 2361 012e BFF34F8F 		dsb 0xF
 2362              	@ 0 "" 2
 2363              		.thumb
 2364              		.syntax unified
 2365 0132 2870     		strb	r0, [r5]
 2366              		.syntax unified
 2367              	@ 879 "./cmsis/inc/cmsis_gcc.h" 1
 2368 0134 BFF34F8F 		dsb 0xF
 2369              	@ 0 "" 2
 2370              		.thumb
 2371              		.syntax unified
 2372 0138 C9B2     		uxtb	r1, r1
 2373 013a 2970     		strb	r1, [r5]
 2374              		.syntax unified
 2375              	@ 879 "./cmsis/inc/cmsis_gcc.h" 1
 2376 013c BFF34F8F 		dsb 0xF
 2377              	@ 0 "" 2
 2378              		.thumb
 2379              		.syntax unified
 2380 0140 C6F30743 		ubfx	r3, r6, #16, #8
 2381 0144 2B70     		strb	r3, [r5]
 2382 0146 C2E7     		b	.L265
 2383              	.L254:
 2384 0148 3AF8023B 		ldrh	r3, [r10], #2
ARM GAS  /tmp/ccZfeEvZ.s 			page 42


 2385 014c A8F80030 		strh	r3, [r8]	@ movhi
 2386              		.syntax unified
 2387              	@ 879 "./cmsis/inc/cmsis_gcc.h" 1
 2388 0150 BFF34F8F 		dsb 0xF
 2389              	@ 0 "" 2
 2390              		.thumb
 2391              		.syntax unified
 2392 0154 0132     		adds	r2, r2, #1
 2393 0156 BDE7     		b	.L253
 2394              	.L256:
 2395 0158 FFF7FEFF 		bl	HAL_GetTick
 2396 015c 039B     		ldr	r3, [sp, #12]
 2397 015e C01A     		subs	r0, r0, r3
 2398 0160 B0F1807F 		cmp	r0, #16777216
 2399 0164 C0D9     		bls	.L255
 2400 0166 0320     		movs	r0, #3
 2401 0168 0023     		movs	r3, #0
 2402 016a 84F82100 		strb	r0, [r4, #33]
 2403 016e 84F82030 		strb	r3, [r4, #32]
 2404              	.L246:
 2405 0172 05B0     		add	sp, sp, #20
 2406              		@ sp needed
 2407 0174 BDE8F08F 		pop	{r4, r5, r6, r7, r8, r9, r10, fp, pc}
 2408              	.L260:
 2409 0178 0120     		movs	r0, #1
 2410 017a FAE7     		b	.L246
 2412              		.ident	"GCC: (15:6.3.1+svn253039-1build1) 6.3.1 20170620"
ARM GAS  /tmp/ccZfeEvZ.s 			page 43

