ARM GAS  /tmp/ccgOTq04.s 			page 1


   1              		.cpu cortex-m3
   2              		.eabi_attribute 20, 1
   3              		.eabi_attribute 21, 1
   4              		.eabi_attribute 23, 3
   5              		.eabi_attribute 24, 1
   6              		.eabi_attribute 25, 1
   7              		.eabi_attribute 26, 1
   8              		.eabi_attribute 30, 4
   9              		.eabi_attribute 34, 1
  10              		.eabi_attribute 18, 4
  11              		.file	"stm32f1xx_hal.c"
  12              		.section	.text.HAL_MspInit,"ax",%progbits
  13              		.align	1
  14              		.weak	HAL_MspInit
  15              		.syntax unified
  16              		.thumb
  17              		.thumb_func
  18              		.fpu softvfp
  20              	HAL_MspInit:
  21              		@ args = 0, pretend = 0, frame = 0
  22              		@ frame_needed = 0, uses_anonymous_args = 0
  23              		@ link register save eliminated.
  24 0000 7047     		bx	lr
  26              		.section	.text.HAL_MspDeInit,"ax",%progbits
  27              		.align	1
  28              		.weak	HAL_MspDeInit
  29              		.syntax unified
  30              		.thumb
  31              		.thumb_func
  32              		.fpu softvfp
  34              	HAL_MspDeInit:
  35              		@ args = 0, pretend = 0, frame = 0
  36              		@ frame_needed = 0, uses_anonymous_args = 0
  37              		@ link register save eliminated.
  38 0000 7047     		bx	lr
  40              		.section	.text.HAL_DeInit,"ax",%progbits
  41              		.align	1
  42              		.global	HAL_DeInit
  43              		.syntax unified
  44              		.thumb
  45              		.thumb_func
  46              		.fpu softvfp
  48              	HAL_DeInit:
  49              		@ args = 0, pretend = 0, frame = 0
  50              		@ frame_needed = 0, uses_anonymous_args = 0
  51 0000 10B5     		push	{r4, lr}
  52 0002 4FF0FF32 		mov	r2, #-1
  53 0006 0024     		movs	r4, #0
  54 0008 044B     		ldr	r3, .L4
  55 000a DA60     		str	r2, [r3, #12]
  56 000c 1C61     		str	r4, [r3, #16]
  57 000e DA60     		str	r2, [r3, #12]
  58 0010 DC60     		str	r4, [r3, #12]
  59 0012 FFF7FEFF 		bl	HAL_MspDeInit
  60 0016 2046     		mov	r0, r4
  61 0018 10BD     		pop	{r4, pc}
  62              	.L5:
ARM GAS  /tmp/ccgOTq04.s 			page 2


  63 001a 00BF     		.align	2
  64              	.L4:
  65 001c 00100240 		.word	1073876992
  67              		.section	.text.HAL_InitTick,"ax",%progbits
  68              		.align	1
  69              		.weak	HAL_InitTick
  70              		.syntax unified
  71              		.thumb
  72              		.thumb_func
  73              		.fpu softvfp
  75              	HAL_InitTick:
  76              		@ args = 0, pretend = 0, frame = 0
  77              		@ frame_needed = 0, uses_anonymous_args = 0
  78 0000 38B5     		push	{r3, r4, r5, lr}
  79 0002 0E4B     		ldr	r3, .L10
  80 0004 0546     		mov	r5, r0
  81 0006 1878     		ldrb	r0, [r3]	@ zero_extendqisi2
  82 0008 4FF47A73 		mov	r3, #1000
  83 000c B3FBF0F3 		udiv	r3, r3, r0
  84 0010 0B4A     		ldr	r2, .L10+4
  85 0012 1068     		ldr	r0, [r2]
  86 0014 B0FBF3F0 		udiv	r0, r0, r3
  87 0018 FFF7FEFF 		bl	HAL_SYSTICK_Config
  88 001c 0446     		mov	r4, r0
  89 001e 58B9     		cbnz	r0, .L9
  90 0020 0F2D     		cmp	r5, #15
  91 0022 09D8     		bhi	.L9
  92 0024 0246     		mov	r2, r0
  93 0026 2946     		mov	r1, r5
  94 0028 4FF0FF30 		mov	r0, #-1
  95 002c FFF7FEFF 		bl	HAL_NVIC_SetPriority
  96 0030 044B     		ldr	r3, .L10+8
  97 0032 2046     		mov	r0, r4
  98 0034 1D60     		str	r5, [r3]
  99 0036 38BD     		pop	{r3, r4, r5, pc}
 100              	.L9:
 101 0038 0120     		movs	r0, #1
 102 003a 38BD     		pop	{r3, r4, r5, pc}
 103              	.L11:
 104              		.align	2
 105              	.L10:
 106 003c 00000000 		.word	.LANCHOR0
 107 0040 00000000 		.word	SystemCoreClock
 108 0044 00000000 		.word	.LANCHOR1
 110              		.section	.text.HAL_Init,"ax",%progbits
 111              		.align	1
 112              		.global	HAL_Init
 113              		.syntax unified
 114              		.thumb
 115              		.thumb_func
 116              		.fpu softvfp
 118              	HAL_Init:
 119              		@ args = 0, pretend = 0, frame = 0
 120              		@ frame_needed = 0, uses_anonymous_args = 0
 121 0000 074A     		ldr	r2, .L13
 122 0002 08B5     		push	{r3, lr}
 123 0004 1368     		ldr	r3, [r2]
ARM GAS  /tmp/ccgOTq04.s 			page 3


 124 0006 0320     		movs	r0, #3
 125 0008 43F01003 		orr	r3, r3, #16
 126 000c 1360     		str	r3, [r2]
 127 000e FFF7FEFF 		bl	HAL_NVIC_SetPriorityGrouping
 128 0012 0F20     		movs	r0, #15
 129 0014 FFF7FEFF 		bl	HAL_InitTick
 130 0018 FFF7FEFF 		bl	HAL_MspInit
 131 001c 0020     		movs	r0, #0
 132 001e 08BD     		pop	{r3, pc}
 133              	.L14:
 134              		.align	2
 135              	.L13:
 136 0020 00200240 		.word	1073881088
 138              		.section	.text.HAL_IncTick,"ax",%progbits
 139              		.align	1
 140              		.weak	HAL_IncTick
 141              		.syntax unified
 142              		.thumb
 143              		.thumb_func
 144              		.fpu softvfp
 146              	HAL_IncTick:
 147              		@ args = 0, pretend = 0, frame = 0
 148              		@ frame_needed = 0, uses_anonymous_args = 0
 149              		@ link register save eliminated.
 150 0000 034A     		ldr	r2, .L16
 151 0002 044B     		ldr	r3, .L16+4
 152 0004 1168     		ldr	r1, [r2]
 153 0006 1B78     		ldrb	r3, [r3]	@ zero_extendqisi2
 154 0008 0B44     		add	r3, r3, r1
 155 000a 1360     		str	r3, [r2]
 156 000c 7047     		bx	lr
 157              	.L17:
 158 000e 00BF     		.align	2
 159              	.L16:
 160 0010 00000000 		.word	uwTick
 161 0014 00000000 		.word	.LANCHOR0
 163              		.section	.text.HAL_GetTick,"ax",%progbits
 164              		.align	1
 165              		.weak	HAL_GetTick
 166              		.syntax unified
 167              		.thumb
 168              		.thumb_func
 169              		.fpu softvfp
 171              	HAL_GetTick:
 172              		@ args = 0, pretend = 0, frame = 0
 173              		@ frame_needed = 0, uses_anonymous_args = 0
 174              		@ link register save eliminated.
 175 0000 014B     		ldr	r3, .L19
 176 0002 1868     		ldr	r0, [r3]
 177 0004 7047     		bx	lr
 178              	.L20:
 179 0006 00BF     		.align	2
 180              	.L19:
 181 0008 00000000 		.word	uwTick
 183              		.section	.text.HAL_GetTickPrio,"ax",%progbits
 184              		.align	1
 185              		.global	HAL_GetTickPrio
ARM GAS  /tmp/ccgOTq04.s 			page 4


 186              		.syntax unified
 187              		.thumb
 188              		.thumb_func
 189              		.fpu softvfp
 191              	HAL_GetTickPrio:
 192              		@ args = 0, pretend = 0, frame = 0
 193              		@ frame_needed = 0, uses_anonymous_args = 0
 194              		@ link register save eliminated.
 195 0000 014B     		ldr	r3, .L22
 196 0002 1868     		ldr	r0, [r3]
 197 0004 7047     		bx	lr
 198              	.L23:
 199 0006 00BF     		.align	2
 200              	.L22:
 201 0008 00000000 		.word	.LANCHOR1
 203              		.section	.text.HAL_SetTickFreq,"ax",%progbits
 204              		.align	1
 205              		.global	HAL_SetTickFreq
 206              		.syntax unified
 207              		.thumb
 208              		.thumb_func
 209              		.fpu softvfp
 211              	HAL_SetTickFreq:
 212              		@ args = 0, pretend = 0, frame = 0
 213              		@ frame_needed = 0, uses_anonymous_args = 0
 214 0000 38B5     		push	{r3, r4, r5, lr}
 215 0002 074C     		ldr	r4, .L27
 216 0004 0546     		mov	r5, r0
 217 0006 2378     		ldrb	r3, [r4]	@ zero_extendqisi2
 218 0008 8342     		cmp	r3, r0
 219 000a 06D0     		beq	.L26
 220 000c 054B     		ldr	r3, .L27+4
 221 000e 1868     		ldr	r0, [r3]
 222 0010 FFF7FEFF 		bl	HAL_InitTick
 223 0014 10B9     		cbnz	r0, .L25
 224 0016 2570     		strb	r5, [r4]
 225 0018 38BD     		pop	{r3, r4, r5, pc}
 226              	.L26:
 227 001a 0020     		movs	r0, #0
 228              	.L25:
 229 001c 38BD     		pop	{r3, r4, r5, pc}
 230              	.L28:
 231 001e 00BF     		.align	2
 232              	.L27:
 233 0020 00000000 		.word	.LANCHOR0
 234 0024 00000000 		.word	.LANCHOR1
 236              		.section	.text.HAL_GetTickFreq,"ax",%progbits
 237              		.align	1
 238              		.global	HAL_GetTickFreq
 239              		.syntax unified
 240              		.thumb
 241              		.thumb_func
 242              		.fpu softvfp
 244              	HAL_GetTickFreq:
 245              		@ args = 0, pretend = 0, frame = 0
 246              		@ frame_needed = 0, uses_anonymous_args = 0
 247              		@ link register save eliminated.
ARM GAS  /tmp/ccgOTq04.s 			page 5


 248 0000 014B     		ldr	r3, .L30
 249 0002 1878     		ldrb	r0, [r3]	@ zero_extendqisi2
 250 0004 7047     		bx	lr
 251              	.L31:
 252 0006 00BF     		.align	2
 253              	.L30:
 254 0008 00000000 		.word	.LANCHOR0
 256              		.section	.text.HAL_Delay,"ax",%progbits
 257              		.align	1
 258              		.weak	HAL_Delay
 259              		.syntax unified
 260              		.thumb
 261              		.thumb_func
 262              		.fpu softvfp
 264              	HAL_Delay:
 265              		@ args = 0, pretend = 0, frame = 0
 266              		@ frame_needed = 0, uses_anonymous_args = 0
 267 0000 38B5     		push	{r3, r4, r5, lr}
 268 0002 0446     		mov	r4, r0
 269 0004 FFF7FEFF 		bl	HAL_GetTick
 270 0008 0546     		mov	r5, r0
 271 000a 631C     		adds	r3, r4, #1
 272 000c 1EBF     		ittt	ne
 273 000e 044B     		ldrne	r3, .L39
 274 0010 1B78     		ldrbne	r3, [r3]	@ zero_extendqisi2
 275 0012 E418     		addne	r4, r4, r3
 276              	.L34:
 277 0014 FFF7FEFF 		bl	HAL_GetTick
 278 0018 401B     		subs	r0, r0, r5
 279 001a 8442     		cmp	r4, r0
 280 001c FAD8     		bhi	.L34
 281 001e 38BD     		pop	{r3, r4, r5, pc}
 282              	.L40:
 283              		.align	2
 284              	.L39:
 285 0020 00000000 		.word	.LANCHOR0
 287              		.section	.text.HAL_SuspendTick,"ax",%progbits
 288              		.align	1
 289              		.weak	HAL_SuspendTick
 290              		.syntax unified
 291              		.thumb
 292              		.thumb_func
 293              		.fpu softvfp
 295              	HAL_SuspendTick:
 296              		@ args = 0, pretend = 0, frame = 0
 297              		@ frame_needed = 0, uses_anonymous_args = 0
 298              		@ link register save eliminated.
 299 0000 024A     		ldr	r2, .L42
 300 0002 1368     		ldr	r3, [r2]
 301 0004 23F00203 		bic	r3, r3, #2
 302 0008 1360     		str	r3, [r2]
 303 000a 7047     		bx	lr
 304              	.L43:
 305              		.align	2
 306              	.L42:
 307 000c 10E000E0 		.word	-536813552
 309              		.section	.text.HAL_ResumeTick,"ax",%progbits
ARM GAS  /tmp/ccgOTq04.s 			page 6


 310              		.align	1
 311              		.weak	HAL_ResumeTick
 312              		.syntax unified
 313              		.thumb
 314              		.thumb_func
 315              		.fpu softvfp
 317              	HAL_ResumeTick:
 318              		@ args = 0, pretend = 0, frame = 0
 319              		@ frame_needed = 0, uses_anonymous_args = 0
 320              		@ link register save eliminated.
 321 0000 024A     		ldr	r2, .L45
 322 0002 1368     		ldr	r3, [r2]
 323 0004 43F00203 		orr	r3, r3, #2
 324 0008 1360     		str	r3, [r2]
 325 000a 7047     		bx	lr
 326              	.L46:
 327              		.align	2
 328              	.L45:
 329 000c 10E000E0 		.word	-536813552
 331              		.section	.text.HAL_GetHalVersion,"ax",%progbits
 332              		.align	1
 333              		.global	HAL_GetHalVersion
 334              		.syntax unified
 335              		.thumb
 336              		.thumb_func
 337              		.fpu softvfp
 339              	HAL_GetHalVersion:
 340              		@ args = 0, pretend = 0, frame = 0
 341              		@ frame_needed = 0, uses_anonymous_args = 0
 342              		@ link register save eliminated.
 343 0000 0048     		ldr	r0, .L48
 344 0002 7047     		bx	lr
 345              	.L49:
 346              		.align	2
 347              	.L48:
 348 0004 00040101 		.word	16843776
 350              		.section	.text.HAL_GetREVID,"ax",%progbits
 351              		.align	1
 352              		.global	HAL_GetREVID
 353              		.syntax unified
 354              		.thumb
 355              		.thumb_func
 356              		.fpu softvfp
 358              	HAL_GetREVID:
 359              		@ args = 0, pretend = 0, frame = 0
 360              		@ frame_needed = 0, uses_anonymous_args = 0
 361              		@ link register save eliminated.
 362 0000 014B     		ldr	r3, .L51
 363 0002 1868     		ldr	r0, [r3]
 364 0004 000C     		lsrs	r0, r0, #16
 365 0006 7047     		bx	lr
 366              	.L52:
 367              		.align	2
 368              	.L51:
 369 0008 002004E0 		.word	-536600576
 371              		.section	.text.HAL_GetDEVID,"ax",%progbits
 372              		.align	1
ARM GAS  /tmp/ccgOTq04.s 			page 7


 373              		.global	HAL_GetDEVID
 374              		.syntax unified
 375              		.thumb
 376              		.thumb_func
 377              		.fpu softvfp
 379              	HAL_GetDEVID:
 380              		@ args = 0, pretend = 0, frame = 0
 381              		@ frame_needed = 0, uses_anonymous_args = 0
 382              		@ link register save eliminated.
 383 0000 024B     		ldr	r3, .L54
 384 0002 1868     		ldr	r0, [r3]
 385 0004 C0F30B00 		ubfx	r0, r0, #0, #12
 386 0008 7047     		bx	lr
 387              	.L55:
 388 000a 00BF     		.align	2
 389              	.L54:
 390 000c 002004E0 		.word	-536600576
 392              		.section	.text.HAL_GetUIDw0,"ax",%progbits
 393              		.align	1
 394              		.global	HAL_GetUIDw0
 395              		.syntax unified
 396              		.thumb
 397              		.thumb_func
 398              		.fpu softvfp
 400              	HAL_GetUIDw0:
 401              		@ args = 0, pretend = 0, frame = 0
 402              		@ frame_needed = 0, uses_anonymous_args = 0
 403              		@ link register save eliminated.
 404 0000 014B     		ldr	r3, .L57
 405 0002 1868     		ldr	r0, [r3]
 406 0004 7047     		bx	lr
 407              	.L58:
 408 0006 00BF     		.align	2
 409              	.L57:
 410 0008 E8F7FF1F 		.word	536868840
 412              		.section	.text.HAL_GetUIDw1,"ax",%progbits
 413              		.align	1
 414              		.global	HAL_GetUIDw1
 415              		.syntax unified
 416              		.thumb
 417              		.thumb_func
 418              		.fpu softvfp
 420              	HAL_GetUIDw1:
 421              		@ args = 0, pretend = 0, frame = 0
 422              		@ frame_needed = 0, uses_anonymous_args = 0
 423              		@ link register save eliminated.
 424 0000 014B     		ldr	r3, .L60
 425 0002 1868     		ldr	r0, [r3]
 426 0004 7047     		bx	lr
 427              	.L61:
 428 0006 00BF     		.align	2
 429              	.L60:
 430 0008 ECF7FF1F 		.word	536868844
 432              		.section	.text.HAL_GetUIDw2,"ax",%progbits
 433              		.align	1
 434              		.global	HAL_GetUIDw2
 435              		.syntax unified
ARM GAS  /tmp/ccgOTq04.s 			page 8


 436              		.thumb
 437              		.thumb_func
 438              		.fpu softvfp
 440              	HAL_GetUIDw2:
 441              		@ args = 0, pretend = 0, frame = 0
 442              		@ frame_needed = 0, uses_anonymous_args = 0
 443              		@ link register save eliminated.
 444 0000 014B     		ldr	r3, .L63
 445 0002 1868     		ldr	r0, [r3]
 446 0004 7047     		bx	lr
 447              	.L64:
 448 0006 00BF     		.align	2
 449              	.L63:
 450 0008 F0F7FF1F 		.word	536868848
 452              		.section	.text.HAL_DBGMCU_EnableDBGSleepMode,"ax",%progbits
 453              		.align	1
 454              		.global	HAL_DBGMCU_EnableDBGSleepMode
 455              		.syntax unified
 456              		.thumb
 457              		.thumb_func
 458              		.fpu softvfp
 460              	HAL_DBGMCU_EnableDBGSleepMode:
 461              		@ args = 0, pretend = 0, frame = 0
 462              		@ frame_needed = 0, uses_anonymous_args = 0
 463              		@ link register save eliminated.
 464 0000 024A     		ldr	r2, .L66
 465 0002 5368     		ldr	r3, [r2, #4]
 466 0004 43F00103 		orr	r3, r3, #1
 467 0008 5360     		str	r3, [r2, #4]
 468 000a 7047     		bx	lr
 469              	.L67:
 470              		.align	2
 471              	.L66:
 472 000c 002004E0 		.word	-536600576
 474              		.section	.text.HAL_DBGMCU_DisableDBGSleepMode,"ax",%progbits
 475              		.align	1
 476              		.global	HAL_DBGMCU_DisableDBGSleepMode
 477              		.syntax unified
 478              		.thumb
 479              		.thumb_func
 480              		.fpu softvfp
 482              	HAL_DBGMCU_DisableDBGSleepMode:
 483              		@ args = 0, pretend = 0, frame = 0
 484              		@ frame_needed = 0, uses_anonymous_args = 0
 485              		@ link register save eliminated.
 486 0000 024A     		ldr	r2, .L69
 487 0002 5368     		ldr	r3, [r2, #4]
 488 0004 23F00103 		bic	r3, r3, #1
 489 0008 5360     		str	r3, [r2, #4]
 490 000a 7047     		bx	lr
 491              	.L70:
 492              		.align	2
 493              	.L69:
 494 000c 002004E0 		.word	-536600576
 496              		.section	.text.HAL_DBGMCU_EnableDBGStopMode,"ax",%progbits
 497              		.align	1
 498              		.global	HAL_DBGMCU_EnableDBGStopMode
ARM GAS  /tmp/ccgOTq04.s 			page 9


 499              		.syntax unified
 500              		.thumb
 501              		.thumb_func
 502              		.fpu softvfp
 504              	HAL_DBGMCU_EnableDBGStopMode:
 505              		@ args = 0, pretend = 0, frame = 0
 506              		@ frame_needed = 0, uses_anonymous_args = 0
 507              		@ link register save eliminated.
 508 0000 024A     		ldr	r2, .L72
 509 0002 5368     		ldr	r3, [r2, #4]
 510 0004 43F00203 		orr	r3, r3, #2
 511 0008 5360     		str	r3, [r2, #4]
 512 000a 7047     		bx	lr
 513              	.L73:
 514              		.align	2
 515              	.L72:
 516 000c 002004E0 		.word	-536600576
 518              		.section	.text.HAL_DBGMCU_DisableDBGStopMode,"ax",%progbits
 519              		.align	1
 520              		.global	HAL_DBGMCU_DisableDBGStopMode
 521              		.syntax unified
 522              		.thumb
 523              		.thumb_func
 524              		.fpu softvfp
 526              	HAL_DBGMCU_DisableDBGStopMode:
 527              		@ args = 0, pretend = 0, frame = 0
 528              		@ frame_needed = 0, uses_anonymous_args = 0
 529              		@ link register save eliminated.
 530 0000 024A     		ldr	r2, .L75
 531 0002 5368     		ldr	r3, [r2, #4]
 532 0004 23F00203 		bic	r3, r3, #2
 533 0008 5360     		str	r3, [r2, #4]
 534 000a 7047     		bx	lr
 535              	.L76:
 536              		.align	2
 537              	.L75:
 538 000c 002004E0 		.word	-536600576
 540              		.section	.text.HAL_DBGMCU_EnableDBGStandbyMode,"ax",%progbits
 541              		.align	1
 542              		.global	HAL_DBGMCU_EnableDBGStandbyMode
 543              		.syntax unified
 544              		.thumb
 545              		.thumb_func
 546              		.fpu softvfp
 548              	HAL_DBGMCU_EnableDBGStandbyMode:
 549              		@ args = 0, pretend = 0, frame = 0
 550              		@ frame_needed = 0, uses_anonymous_args = 0
 551              		@ link register save eliminated.
 552 0000 024A     		ldr	r2, .L78
 553 0002 5368     		ldr	r3, [r2, #4]
 554 0004 43F00403 		orr	r3, r3, #4
 555 0008 5360     		str	r3, [r2, #4]
 556 000a 7047     		bx	lr
 557              	.L79:
 558              		.align	2
 559              	.L78:
 560 000c 002004E0 		.word	-536600576
ARM GAS  /tmp/ccgOTq04.s 			page 10


 562              		.section	.text.HAL_DBGMCU_DisableDBGStandbyMode,"ax",%progbits
 563              		.align	1
 564              		.global	HAL_DBGMCU_DisableDBGStandbyMode
 565              		.syntax unified
 566              		.thumb
 567              		.thumb_func
 568              		.fpu softvfp
 570              	HAL_DBGMCU_DisableDBGStandbyMode:
 571              		@ args = 0, pretend = 0, frame = 0
 572              		@ frame_needed = 0, uses_anonymous_args = 0
 573              		@ link register save eliminated.
 574 0000 024A     		ldr	r2, .L81
 575 0002 5368     		ldr	r3, [r2, #4]
 576 0004 23F00403 		bic	r3, r3, #4
 577 0008 5360     		str	r3, [r2, #4]
 578 000a 7047     		bx	lr
 579              	.L82:
 580              		.align	2
 581              	.L81:
 582 000c 002004E0 		.word	-536600576
 584              		.global	uwTickFreq
 585              		.global	uwTickPrio
 586              		.comm	uwTick,4,4
 587              		.section	.data.uwTickFreq,"aw",%progbits
 588              		.set	.LANCHOR0,. + 0
 591              	uwTickFreq:
 592 0000 01       		.byte	1
 593              		.section	.data.uwTickPrio,"aw",%progbits
 594              		.align	2
 595              		.set	.LANCHOR1,. + 0
 598              	uwTickPrio:
 599 0000 10000000 		.word	16
 600              		.ident	"GCC: (15:6.3.1+svn253039-1build1) 6.3.1 20170620"
ARM GAS  /tmp/ccgOTq04.s 			page 11

