ARM GAS  /tmp/ccXwxxh0.s 			page 1


   1              		.syntax unified
   2              		.cpu cortex-m3
   3              		.fpu softvfp
   4              		.eabi_attribute 20, 1
   5              		.eabi_attribute 21, 1
   6              		.eabi_attribute 23, 3
   7              		.eabi_attribute 24, 1
   8              		.eabi_attribute 25, 1
   9              		.eabi_attribute 26, 1
  10              		.eabi_attribute 30, 4
  11              		.eabi_attribute 34, 1
  12              		.eabi_attribute 18, 4
  13              		.thumb
  14              		.file	"stm32f1xx_hal_rcc_ex.c"
  15              		.section	.text.HAL_RCCEx_PeriphCLKConfig,"ax",%progbits
  16              		.align	1
  17              		.global	HAL_RCCEx_PeriphCLKConfig
  18              		.thumb
  19              		.thumb_func
  21              	HAL_RCCEx_PeriphCLKConfig:
  22              		@ args = 0, pretend = 0, frame = 8
  23              		@ frame_needed = 0, uses_anonymous_args = 0
  24 0000 0368     		ldr	r3, [r0]
  25 0002 F7B5     		push	{r0, r1, r2, r4, r5, r6, r7, lr}
  26 0004 DF07     		lsls	r7, r3, #31
  27 0006 0546     		mov	r5, r0
  28 0008 57D5     		bpl	.L3
  29 000a 334C     		ldr	r4, .L25
  30 000c E369     		ldr	r3, [r4, #28]
  31 000e DE00     		lsls	r6, r3, #3
  32 0010 5FBF     		itttt	pl
  33 0012 E369     		ldrpl	r3, [r4, #28]
  34 0014 0126     		movpl	r6, #1
  35 0016 43F08053 		orrpl	r3, r3, #268435456
  36 001a E361     		strpl	r3, [r4, #28]
  37 001c 57BF     		itett	pl
  38 001e E369     		ldrpl	r3, [r4, #28]
  39 0020 0026     		movmi	r6, #0
  40 0022 03F08053 		andpl	r3, r3, #268435456
  41 0026 0193     		strpl	r3, [sp, #4]
  42 0028 58BF     		it	pl
  43 002a 019B     		ldrpl	r3, [sp, #4]
  44 002c 2B4B     		ldr	r3, .L25+4
  45 002e 1A68     		ldr	r2, [r3]
  46 0030 D005     		lsls	r0, r2, #23
  47 0032 05D5     		bpl	.L5
  48              	.L11:
  49 0034 236A     		ldr	r3, [r4, #32]
  50 0036 2849     		ldr	r1, .L25
  51 0038 13F44073 		ands	r3, r3, #768
  52 003c 12D1     		bne	.L6
  53 003e 16E0     		b	.L7
  54              	.L5:
  55 0040 1A68     		ldr	r2, [r3]
  56 0042 42F48072 		orr	r2, r2, #256
  57 0046 1A60     		str	r2, [r3]
  58 0048 FFF7FEFF 		bl	HAL_GetTick
ARM GAS  /tmp/ccXwxxh0.s 			page 2


  59 004c 0746     		mov	r7, r0
  60              	.L8:
  61 004e 234B     		ldr	r3, .L25+4
  62 0050 1B68     		ldr	r3, [r3]
  63 0052 D905     		lsls	r1, r3, #23
  64 0054 EED4     		bmi	.L11
  65 0056 FFF7FEFF 		bl	HAL_GetTick
  66 005a C01B     		subs	r0, r0, r7
  67 005c 6428     		cmp	r0, #100
  68 005e F6D9     		bls	.L8
  69              	.L15:
  70 0060 0320     		movs	r0, #3
  71 0062 36E0     		b	.L9
  72              	.L6:
  73 0064 6A68     		ldr	r2, [r5, #4]
  74 0066 02F44072 		and	r2, r2, #768
  75 006a 9342     		cmp	r3, r2
  76 006c 0CD1     		bne	.L24
  77              	.L7:
  78 006e 236A     		ldr	r3, [r4, #32]
  79 0070 1949     		ldr	r1, .L25
  80 0072 23F44072 		bic	r2, r3, #768
  81 0076 6B68     		ldr	r3, [r5, #4]
  82 0078 1343     		orrs	r3, r3, r2
  83 007a 2362     		str	r3, [r4, #32]
  84 007c EEB1     		cbz	r6, .L3
  85 007e CB69     		ldr	r3, [r1, #28]
  86 0080 23F08053 		bic	r3, r3, #268435456
  87 0084 CB61     		str	r3, [r1, #28]
  88 0086 18E0     		b	.L3
  89              	.L24:
  90 0088 154A     		ldr	r2, .L25+8
  91 008a 0B6A     		ldr	r3, [r1, #32]
  92 008c 0127     		movs	r7, #1
  93 008e 1760     		str	r7, [r2]
  94 0090 0027     		movs	r7, #0
  95 0092 1760     		str	r7, [r2]
  96 0094 23F44070 		bic	r0, r3, #768
  97 0098 DA07     		lsls	r2, r3, #31
  98 009a 0862     		str	r0, [r1, #32]
  99 009c E7D5     		bpl	.L7
 100 009e FFF7FEFF 		bl	HAL_GetTick
 101 00a2 0746     		mov	r7, r0
 102              	.L14:
 103 00a4 236A     		ldr	r3, [r4, #32]
 104 00a6 9B07     		lsls	r3, r3, #30
 105 00a8 E1D4     		bmi	.L7
 106 00aa FFF7FEFF 		bl	HAL_GetTick
 107 00ae 41F28833 		movw	r3, #5000
 108 00b2 C01B     		subs	r0, r0, r7
 109 00b4 9842     		cmp	r0, r3
 110 00b6 F5D9     		bls	.L14
 111 00b8 D2E7     		b	.L15
 112              	.L3:
 113 00ba 2868     		ldr	r0, [r5]
 114 00bc 10F00200 		ands	r0, r0, #2
 115 00c0 07D0     		beq	.L9
ARM GAS  /tmp/ccXwxxh0.s 			page 3


 116 00c2 0549     		ldr	r1, .L25
 117 00c4 0020     		movs	r0, #0
 118 00c6 4B68     		ldr	r3, [r1, #4]
 119 00c8 23F44042 		bic	r2, r3, #49152
 120 00cc AB68     		ldr	r3, [r5, #8]
 121 00ce 1343     		orrs	r3, r3, r2
 122 00d0 4B60     		str	r3, [r1, #4]
 123              	.L9:
 124 00d2 03B0     		add	sp, sp, #12
 125              		@ sp needed
 126 00d4 F0BD     		pop	{r4, r5, r6, r7, pc}
 127              	.L26:
 128 00d6 00BF     		.align	2
 129              	.L25:
 130 00d8 00100240 		.word	1073876992
 131 00dc 00700040 		.word	1073770496
 132 00e0 40044242 		.word	1111622720
 134              		.section	.text.HAL_RCCEx_GetPeriphCLKConfig,"ax",%progbits
 135              		.align	1
 136              		.global	HAL_RCCEx_GetPeriphCLKConfig
 137              		.thumb
 138              		.thumb_func
 140              	HAL_RCCEx_GetPeriphCLKConfig:
 141              		@ args = 0, pretend = 0, frame = 0
 142              		@ frame_needed = 0, uses_anonymous_args = 0
 143              		@ link register save eliminated.
 144 0000 054A     		ldr	r2, .L28
 145 0002 136A     		ldr	r3, [r2, #32]
 146 0004 03F44073 		and	r3, r3, #768
 147 0008 4360     		str	r3, [r0, #4]
 148 000a 0323     		movs	r3, #3
 149 000c 0360     		str	r3, [r0]
 150 000e 5368     		ldr	r3, [r2, #4]
 151 0010 03F44043 		and	r3, r3, #49152
 152 0014 8360     		str	r3, [r0, #8]
 153 0016 7047     		bx	lr
 154              	.L29:
 155              		.align	2
 156              	.L28:
 157 0018 00100240 		.word	1073876992
 159              		.section	.text.HAL_RCCEx_GetPeriphCLKFreq,"ax",%progbits
 160              		.align	1
 161              		.global	HAL_RCCEx_GetPeriphCLKFreq
 162              		.thumb
 163              		.thumb_func
 165              	HAL_RCCEx_GetPeriphCLKFreq:
 166              		@ args = 0, pretend = 0, frame = 0
 167              		@ frame_needed = 0, uses_anonymous_args = 0
 168 0000 0128     		cmp	r0, #1
 169 0002 08B5     		push	{r3, lr}
 170 0004 0CD0     		beq	.L32
 171 0006 0228     		cmp	r0, #2
 172 0008 2AD1     		bne	.L38
 173 000a FFF7FEFF 		bl	HAL_RCC_GetPCLK2Freq
 174 000e 154B     		ldr	r3, .L42
 175 0010 5B68     		ldr	r3, [r3, #4]
 176 0012 C3F38133 		ubfx	r3, r3, #14, #2
ARM GAS  /tmp/ccXwxxh0.s 			page 4


 177 0016 0133     		adds	r3, r3, #1
 178 0018 5B00     		lsls	r3, r3, #1
 179 001a B0FBF3F0 		udiv	r0, r0, r3
 180 001e 08BD     		pop	{r3, pc}
 181              	.L32:
 182 0020 40F20231 		movw	r1, #770
 183 0024 0F4A     		ldr	r2, .L42
 184 0026 136A     		ldr	r3, [r2, #32]
 185 0028 1940     		ands	r1, r1, r3
 186 002a B1F5817F 		cmp	r1, #258
 187 002e 14D0     		beq	.L36
 188 0030 03F44073 		and	r3, r3, #768
 189 0034 B3F5007F 		cmp	r3, #512
 190 0038 05D1     		bne	.L34
 191 003a 536A     		ldr	r3, [r2, #36]
 192 003c 49F64040 		movw	r0, #40000
 193 0040 13F0020F 		tst	r3, #2
 194 0044 06E0     		b	.L41
 195              	.L34:
 196 0046 B3F5407F 		cmp	r3, #768
 197 004a 09D1     		bne	.L38
 198 004c 1368     		ldr	r3, [r2]
 199 004e 0648     		ldr	r0, .L42+4
 200 0050 13F4003F 		tst	r3, #131072
 201              	.L41:
 202 0054 08BF     		it	eq
 203 0056 0020     		moveq	r0, #0
 204 0058 08BD     		pop	{r3, pc}
 205              	.L36:
 206 005a 4FF40040 		mov	r0, #32768
 207 005e 08BD     		pop	{r3, pc}
 208              	.L38:
 209 0060 0020     		movs	r0, #0
 210 0062 08BD     		pop	{r3, pc}
 211              	.L43:
 212              		.align	2
 213              	.L42:
 214 0064 00100240 		.word	1073876992
 215 0068 48E80100 		.word	125000
 217              		.ident	"GCC: (15:4.9.3+svn231177-1) 4.9.3 20150529 (prerelease)"
ARM GAS  /tmp/ccXwxxh0.s 			page 5


DEFINED SYMBOLS
                            *ABS*:0000000000000000 stm32f1xx_hal_rcc_ex.c
     /tmp/ccXwxxh0.s:16     .text.HAL_RCCEx_PeriphCLKConfig:0000000000000000 $t
     /tmp/ccXwxxh0.s:21     .text.HAL_RCCEx_PeriphCLKConfig:0000000000000000 HAL_RCCEx_PeriphCLKConfig
     /tmp/ccXwxxh0.s:130    .text.HAL_RCCEx_PeriphCLKConfig:00000000000000d8 $d
     /tmp/ccXwxxh0.s:135    .text.HAL_RCCEx_GetPeriphCLKConfig:0000000000000000 $t
     /tmp/ccXwxxh0.s:140    .text.HAL_RCCEx_GetPeriphCLKConfig:0000000000000000 HAL_RCCEx_GetPeriphCLKConfig
     /tmp/ccXwxxh0.s:157    .text.HAL_RCCEx_GetPeriphCLKConfig:0000000000000018 $d
     /tmp/ccXwxxh0.s:160    .text.HAL_RCCEx_GetPeriphCLKFreq:0000000000000000 $t
     /tmp/ccXwxxh0.s:165    .text.HAL_RCCEx_GetPeriphCLKFreq:0000000000000000 HAL_RCCEx_GetPeriphCLKFreq
     /tmp/ccXwxxh0.s:214    .text.HAL_RCCEx_GetPeriphCLKFreq:0000000000000064 $d

UNDEFINED SYMBOLS
HAL_GetTick
HAL_RCC_GetPCLK2Freq
