ARM GAS  /tmp/ccI2jNRz.s 			page 1


   1              		.cpu cortex-m3
   2              		.eabi_attribute 20, 1
   3              		.eabi_attribute 21, 1
   4              		.eabi_attribute 23, 3
   5              		.eabi_attribute 24, 1
   6              		.eabi_attribute 25, 1
   7              		.eabi_attribute 26, 1
   8              		.eabi_attribute 30, 4
   9              		.eabi_attribute 34, 1
  10              		.eabi_attribute 18, 4
  11              		.file	"stm32f1xx_hal_wwdg.c"
  12              		.section	.text.HAL_WWDG_MspInit,"ax",%progbits
  13              		.align	1
  14              		.weak	HAL_WWDG_MspInit
  15              		.syntax unified
  16              		.thumb
  17              		.thumb_func
  18              		.fpu softvfp
  20              	HAL_WWDG_MspInit:
  21              		@ args = 0, pretend = 0, frame = 0
  22              		@ frame_needed = 0, uses_anonymous_args = 0
  23              		@ link register save eliminated.
  24 0000 7047     		bx	lr
  26              		.section	.text.HAL_WWDG_Init,"ax",%progbits
  27              		.align	1
  28              		.global	HAL_WWDG_Init
  29              		.syntax unified
  30              		.thumb
  31              		.thumb_func
  32              		.fpu softvfp
  34              	HAL_WWDG_Init:
  35              		@ args = 0, pretend = 0, frame = 0
  36              		@ frame_needed = 0, uses_anonymous_args = 0
  37 0000 10B5     		push	{r4, lr}
  38 0002 0446     		mov	r4, r0
  39 0004 70B1     		cbz	r0, .L4
  40 0006 FFF7FEFF 		bl	HAL_WWDG_MspInit
  41 000a E368     		ldr	r3, [r4, #12]
  42 000c 2268     		ldr	r2, [r4]
  43 000e 43F08003 		orr	r3, r3, #128
  44 0012 6168     		ldr	r1, [r4, #4]
  45 0014 1360     		str	r3, [r2]
  46 0016 2369     		ldr	r3, [r4, #16]
  47 0018 0020     		movs	r0, #0
  48 001a 0B43     		orrs	r3, r3, r1
  49 001c A168     		ldr	r1, [r4, #8]
  50 001e 0B43     		orrs	r3, r3, r1
  51 0020 5360     		str	r3, [r2, #4]
  52 0022 10BD     		pop	{r4, pc}
  53              	.L4:
  54 0024 0120     		movs	r0, #1
  55 0026 10BD     		pop	{r4, pc}
  57              		.section	.text.HAL_WWDG_Refresh,"ax",%progbits
  58              		.align	1
  59              		.global	HAL_WWDG_Refresh
  60              		.syntax unified
  61              		.thumb
ARM GAS  /tmp/ccI2jNRz.s 			page 2


  62              		.thumb_func
  63              		.fpu softvfp
  65              	HAL_WWDG_Refresh:
  66              		@ args = 0, pretend = 0, frame = 0
  67              		@ frame_needed = 0, uses_anonymous_args = 0
  68              		@ link register save eliminated.
  69 0000 0368     		ldr	r3, [r0]
  70 0002 C268     		ldr	r2, [r0, #12]
  71 0004 0020     		movs	r0, #0
  72 0006 1A60     		str	r2, [r3]
  73 0008 7047     		bx	lr
  75              		.section	.text.HAL_WWDG_EarlyWakeupCallback,"ax",%progbits
  76              		.align	1
  77              		.weak	HAL_WWDG_EarlyWakeupCallback
  78              		.syntax unified
  79              		.thumb
  80              		.thumb_func
  81              		.fpu softvfp
  83              	HAL_WWDG_EarlyWakeupCallback:
  84              		@ args = 0, pretend = 0, frame = 0
  85              		@ frame_needed = 0, uses_anonymous_args = 0
  86              		@ link register save eliminated.
  87 0000 7047     		bx	lr
  89              		.section	.text.HAL_WWDG_IRQHandler,"ax",%progbits
  90              		.align	1
  91              		.global	HAL_WWDG_IRQHandler
  92              		.syntax unified
  93              		.thumb
  94              		.thumb_func
  95              		.fpu softvfp
  97              	HAL_WWDG_IRQHandler:
  98              		@ args = 0, pretend = 0, frame = 0
  99              		@ frame_needed = 0, uses_anonymous_args = 0
 100 0000 08B5     		push	{r3, lr}
 101 0002 0368     		ldr	r3, [r0]
 102 0004 5A68     		ldr	r2, [r3, #4]
 103 0006 9105     		lsls	r1, r2, #22
 104 0008 07D5     		bpl	.L7
 105 000a 9A68     		ldr	r2, [r3, #8]
 106 000c D207     		lsls	r2, r2, #31
 107 000e 04D5     		bpl	.L7
 108 0010 6FF00102 		mvn	r2, #1
 109 0014 9A60     		str	r2, [r3, #8]
 110 0016 FFF7FEFF 		bl	HAL_WWDG_EarlyWakeupCallback
 111              	.L7:
 112 001a 08BD     		pop	{r3, pc}
 114              		.ident	"GCC: (15:6.3.1+svn253039-1build1) 6.3.1 20170620"
ARM GAS  /tmp/ccI2jNRz.s 			page 3

