ARM GAS  /tmp/cczGHsCY.s 			page 1


   1              		.syntax unified
   2              		.cpu cortex-m3
   3              		.fpu softvfp
   4              		.eabi_attribute 20, 1
   5              		.eabi_attribute 21, 1
   6              		.eabi_attribute 23, 3
   7              		.eabi_attribute 24, 1
   8              		.eabi_attribute 25, 1
   9              		.eabi_attribute 26, 1
  10              		.eabi_attribute 30, 4
  11              		.eabi_attribute 34, 1
  12              		.eabi_attribute 18, 4
  13              		.thumb
  14              		.file	"stm32f1xx_hal_spi.c"
  15              		.section	.text.SPI_AbortRx_ISR,"ax",%progbits
  16              		.align	1
  17              		.thumb
  18              		.thumb_func
  20              	SPI_AbortRx_ISR:
  21              		@ args = 0, pretend = 0, frame = 8
  22              		@ frame_needed = 0, uses_anonymous_args = 0
  23              		@ link register save eliminated.
  24 0000 45F6C052 		movw	r2, #24000
  25 0004 114B     		ldr	r3, .L8
  26 0006 82B0     		sub	sp, sp, #8
  27 0008 1B68     		ldr	r3, [r3]
  28 000a B3FBF2F2 		udiv	r2, r3, r2
  29 000e 6423     		movs	r3, #100
  30 0010 5343     		muls	r3, r2, r3
  31 0012 0193     		str	r3, [sp, #4]
  32              	.L4:
  33 0014 019A     		ldr	r2, [sp, #4]
  34 0016 0368     		ldr	r3, [r0]
  35 0018 22B9     		cbnz	r2, .L2
  36 001a 426D     		ldr	r2, [r0, #84]
  37 001c 42F04002 		orr	r2, r2, #64
  38 0020 4265     		str	r2, [r0, #84]
  39 0022 05E0     		b	.L3
  40              	.L2:
  41 0024 019A     		ldr	r2, [sp, #4]
  42 0026 013A     		subs	r2, r2, #1
  43 0028 0192     		str	r2, [sp, #4]
  44 002a 9A68     		ldr	r2, [r3, #8]
  45 002c 9207     		lsls	r2, r2, #30
  46 002e F1D5     		bpl	.L4
  47              	.L3:
  48 0030 1A68     		ldr	r2, [r3]
  49 0032 22F04002 		bic	r2, r2, #64
  50 0036 1A60     		str	r2, [r3]
  51 0038 5A68     		ldr	r2, [r3, #4]
  52 003a 22F0E002 		bic	r2, r2, #224
  53 003e 5A60     		str	r2, [r3, #4]
  54 0040 DB68     		ldr	r3, [r3, #12]
  55 0042 0723     		movs	r3, #7
  56 0044 80F85130 		strb	r3, [r0, #81]
  57 0048 02B0     		add	sp, sp, #8
  58              		@ sp needed
ARM GAS  /tmp/cczGHsCY.s 			page 2


  59 004a 7047     		bx	lr
  60              	.L9:
  61              		.align	2
  62              	.L8:
  63 004c 00000000 		.word	SystemCoreClock
  65              		.section	.text.SPI_AbortTx_ISR,"ax",%progbits
  66              		.align	1
  67              		.thumb
  68              		.thumb_func
  70              	SPI_AbortTx_ISR:
  71              		@ args = 0, pretend = 0, frame = 0
  72              		@ frame_needed = 0, uses_anonymous_args = 0
  73              		@ link register save eliminated.
  74 0000 0368     		ldr	r3, [r0]
  75 0002 5A68     		ldr	r2, [r3, #4]
  76 0004 22F08002 		bic	r2, r2, #128
  77 0008 5A60     		str	r2, [r3, #4]
  78 000a 1A68     		ldr	r2, [r3]
  79 000c 22F04002 		bic	r2, r2, #64
  80 0010 1A60     		str	r2, [r3]
  81 0012 0723     		movs	r3, #7
  82 0014 80F85130 		strb	r3, [r0, #81]
  83 0018 7047     		bx	lr
  85              		.section	.text.SPI_WaitFlagStateUntilTimeout,"ax",%progbits
  86              		.align	1
  87              		.thumb
  88              		.thumb_func
  90              	SPI_WaitFlagStateUntilTimeout:
  91              		@ args = 4, pretend = 0, frame = 0
  92              		@ frame_needed = 0, uses_anonymous_args = 0
  93 0000 2DE9F041 		push	{r4, r5, r6, r7, r8, lr}
  94 0004 0446     		mov	r4, r0
  95 0006 0E46     		mov	r6, r1
  96 0008 9046     		mov	r8, r2
  97 000a 1F46     		mov	r7, r3
  98 000c 069D     		ldr	r5, [sp, #24]
  99              	.L12:
 100 000e 2368     		ldr	r3, [r4]
 101              	.L13:
 102 0010 9868     		ldr	r0, [r3, #8]
 103 0012 3040     		ands	r0, r0, r6
 104 0014 821B     		subs	r2, r0, r6
 105 0016 5042     		rsbs	r0, r2, #0
 106 0018 5041     		adcs	r0, r0, r2
 107 001a 4045     		cmp	r0, r8
 108 001c 30D0     		beq	.L25
 109 001e 791C     		adds	r1, r7, #1
 110 0020 F6D0     		beq	.L13
 111 0022 FFF7FEFF 		bl	HAL_GetTick
 112 0026 401B     		subs	r0, r0, r5
 113 0028 B842     		cmp	r0, r7
 114 002a F0D3     		bcc	.L12
 115 002c 2368     		ldr	r3, [r4]
 116 002e 5A68     		ldr	r2, [r3, #4]
 117 0030 22F0E002 		bic	r2, r2, #224
 118 0034 5A60     		str	r2, [r3, #4]
 119 0036 6268     		ldr	r2, [r4, #4]
ARM GAS  /tmp/cczGHsCY.s 			page 3


 120 0038 B2F5827F 		cmp	r2, #260
 121 003c 0AD1     		bne	.L14
 122 003e A268     		ldr	r2, [r4, #8]
 123 0040 B2F5004F 		cmp	r2, #32768
 124 0044 02D0     		beq	.L15
 125 0046 B2F5806F 		cmp	r2, #1024
 126 004a 03D1     		bne	.L14
 127              	.L15:
 128 004c 1A68     		ldr	r2, [r3]
 129 004e 22F04002 		bic	r2, r2, #64
 130 0052 1A60     		str	r2, [r3]
 131              	.L14:
 132 0054 A26A     		ldr	r2, [r4, #40]
 133 0056 0320     		movs	r0, #3
 134 0058 B2F5005F 		cmp	r2, #8192
 135 005c 01BF     		itttt	eq
 136 005e 1A68     		ldreq	r2, [r3]
 137 0060 22F40052 		biceq	r2, r2, #8192
 138 0064 1A60     		streq	r2, [r3]
 139 0066 1A68     		ldreq	r2, [r3]
 140 0068 04BF     		itt	eq
 141 006a 42F40052 		orreq	r2, r2, #8192
 142 006e 1A60     		streq	r2, [r3]
 143 0070 0123     		movs	r3, #1
 144 0072 84F85130 		strb	r3, [r4, #81]
 145 0076 0023     		movs	r3, #0
 146 0078 84F85030 		strb	r3, [r4, #80]
 147 007c BDE8F081 		pop	{r4, r5, r6, r7, r8, pc}
 148              	.L25:
 149 0080 0020     		movs	r0, #0
 150 0082 BDE8F081 		pop	{r4, r5, r6, r7, r8, pc}
 152              		.section	.text.SPI_EndRxTxTransaction,"ax",%progbits
 153              		.align	1
 154              		.thumb
 155              		.thumb_func
 157              	SPI_EndRxTxTransaction:
 158              		@ args = 0, pretend = 0, frame = 0
 159              		@ frame_needed = 0, uses_anonymous_args = 0
 160 0000 13B5     		push	{r0, r1, r4, lr}
 161 0002 0B46     		mov	r3, r1
 162 0004 0092     		str	r2, [sp]
 163 0006 8021     		movs	r1, #128
 164 0008 0022     		movs	r2, #0
 165 000a 0446     		mov	r4, r0
 166 000c FFF7FEFF 		bl	SPI_WaitFlagStateUntilTimeout
 167 0010 20B1     		cbz	r0, .L27
 168 0012 636D     		ldr	r3, [r4, #84]
 169 0014 0320     		movs	r0, #3
 170 0016 43F02003 		orr	r3, r3, #32
 171 001a 6365     		str	r3, [r4, #84]
 172              	.L27:
 173 001c 02B0     		add	sp, sp, #8
 174              		@ sp needed
 175 001e 10BD     		pop	{r4, pc}
 177              		.section	.text.SPI_EndRxTransaction,"ax",%progbits
 178              		.align	1
 179              		.thumb
ARM GAS  /tmp/cczGHsCY.s 			page 4


 180              		.thumb_func
 182              	SPI_EndRxTransaction:
 183              		@ args = 0, pretend = 0, frame = 0
 184              		@ frame_needed = 0, uses_anonymous_args = 0
 185 0000 37B5     		push	{r0, r1, r2, r4, r5, lr}
 186 0002 0B46     		mov	r3, r1
 187 0004 4168     		ldr	r1, [r0, #4]
 188 0006 0446     		mov	r4, r0
 189 0008 B1F5827F 		cmp	r1, #260
 190 000c 17D1     		bne	.L32
 191 000e 8168     		ldr	r1, [r0, #8]
 192 0010 B1F5004F 		cmp	r1, #32768
 193 0014 02D0     		beq	.L33
 194 0016 B1F5806F 		cmp	r1, #1024
 195 001a 10D1     		bne	.L32
 196              	.L33:
 197 001c 2568     		ldr	r5, [r4]
 198 001e B1F5806F 		cmp	r1, #1024
 199 0022 2868     		ldr	r0, [r5]
 200 0024 20F04000 		bic	r0, r0, #64
 201 0028 2860     		str	r0, [r5]
 202 002a 08D1     		bne	.L32
 203 002c 2046     		mov	r0, r4
 204 002e 0092     		str	r2, [sp]
 205 0030 0121     		movs	r1, #1
 206              	.L44:
 207 0032 0022     		movs	r2, #0
 208 0034 FFF7FEFF 		bl	SPI_WaitFlagStateUntilTimeout
 209 0038 28B9     		cbnz	r0, .L43
 210 003a 0020     		movs	r0, #0
 211 003c 08E0     		b	.L35
 212              	.L32:
 213 003e 0092     		str	r2, [sp]
 214 0040 2046     		mov	r0, r4
 215 0042 8021     		movs	r1, #128
 216 0044 F5E7     		b	.L44
 217              	.L43:
 218 0046 636D     		ldr	r3, [r4, #84]
 219 0048 0320     		movs	r0, #3
 220 004a 43F02003 		orr	r3, r3, #32
 221 004e 6365     		str	r3, [r4, #84]
 222              	.L35:
 223 0050 03B0     		add	sp, sp, #12
 224              		@ sp needed
 225 0052 30BD     		pop	{r4, r5, pc}
 227              		.section	.text.HAL_SPI_MspInit,"ax",%progbits
 228              		.align	1
 229              		.weak	HAL_SPI_MspInit
 230              		.thumb
 231              		.thumb_func
 233              	HAL_SPI_MspInit:
 234              		@ args = 0, pretend = 0, frame = 0
 235              		@ frame_needed = 0, uses_anonymous_args = 0
 236              		@ link register save eliminated.
 237 0000 7047     		bx	lr
 239              		.section	.text.HAL_SPI_Init,"ax",%progbits
 240              		.align	1
ARM GAS  /tmp/cczGHsCY.s 			page 5


 241              		.global	HAL_SPI_Init
 242              		.thumb
 243              		.thumb_func
 245              	HAL_SPI_Init:
 246              		@ args = 0, pretend = 0, frame = 0
 247              		@ frame_needed = 0, uses_anonymous_args = 0
 248 0000 38B5     		push	{r3, r4, r5, lr}
 249 0002 0446     		mov	r4, r0
 250 0004 0028     		cmp	r0, #0
 251 0006 35D0     		beq	.L50
 252 0008 90F85130 		ldrb	r3, [r0, #81]	@ zero_extendqisi2
 253 000c 03F0FF02 		and	r2, r3, #255
 254 0010 1BB9     		cbnz	r3, .L48
 255 0012 80F85020 		strb	r2, [r0, #80]
 256 0016 FFF7FEFF 		bl	HAL_SPI_MspInit
 257              	.L48:
 258 001a 6168     		ldr	r1, [r4, #4]
 259 001c A068     		ldr	r0, [r4, #8]
 260 001e 2268     		ldr	r2, [r4]
 261 0020 0843     		orrs	r0, r0, r1
 262 0022 E168     		ldr	r1, [r4, #12]
 263 0024 0223     		movs	r3, #2
 264 0026 0843     		orrs	r0, r0, r1
 265 0028 2169     		ldr	r1, [r4, #16]
 266 002a 84F85130 		strb	r3, [r4, #81]
 267 002e 0843     		orrs	r0, r0, r1
 268 0030 6169     		ldr	r1, [r4, #20]
 269 0032 1368     		ldr	r3, [r2]
 270 0034 0843     		orrs	r0, r0, r1
 271 0036 E169     		ldr	r1, [r4, #28]
 272 0038 23F04003 		bic	r3, r3, #64
 273 003c 0843     		orrs	r0, r0, r1
 274 003e 216A     		ldr	r1, [r4, #32]
 275 0040 1360     		str	r3, [r2]
 276 0042 A56A     		ldr	r5, [r4, #40]
 277 0044 A369     		ldr	r3, [r4, #24]
 278 0046 0143     		orrs	r1, r1, r0
 279 0048 2943     		orrs	r1, r1, r5
 280 004a 03F40070 		and	r0, r3, #512
 281 004e 1B0C     		lsrs	r3, r3, #16
 282 0050 03F00403 		and	r3, r3, #4
 283 0054 0143     		orrs	r1, r1, r0
 284 0056 B5F5005F 		cmp	r5, #8192
 285 005a 1160     		str	r1, [r2]
 286 005c 5360     		str	r3, [r2, #4]
 287 005e 08BF     		it	eq
 288 0060 E36A     		ldreq	r3, [r4, #44]
 289 0062 4FF00000 		mov	r0, #0
 290 0066 08BF     		it	eq
 291 0068 1361     		streq	r3, [r2, #16]
 292 006a 0123     		movs	r3, #1
 293 006c 6065     		str	r0, [r4, #84]
 294 006e 84F85130 		strb	r3, [r4, #81]
 295 0072 38BD     		pop	{r3, r4, r5, pc}
 296              	.L50:
 297 0074 0120     		movs	r0, #1
 298 0076 38BD     		pop	{r3, r4, r5, pc}
ARM GAS  /tmp/cczGHsCY.s 			page 6


 300              		.section	.text.HAL_SPI_MspDeInit,"ax",%progbits
 301              		.align	1
 302              		.weak	HAL_SPI_MspDeInit
 303              		.thumb
 304              		.thumb_func
 306              	HAL_SPI_MspDeInit:
 307              		@ args = 0, pretend = 0, frame = 0
 308              		@ frame_needed = 0, uses_anonymous_args = 0
 309              		@ link register save eliminated.
 310 0000 7047     		bx	lr
 312              		.section	.text.HAL_SPI_DeInit,"ax",%progbits
 313              		.align	1
 314              		.global	HAL_SPI_DeInit
 315              		.thumb
 316              		.thumb_func
 318              	HAL_SPI_DeInit:
 319              		@ args = 0, pretend = 0, frame = 0
 320              		@ frame_needed = 0, uses_anonymous_args = 0
 321 0000 10B5     		push	{r4, lr}
 322 0002 0446     		mov	r4, r0
 323 0004 80B1     		cbz	r0, .L54
 324 0006 0268     		ldr	r2, [r0]
 325 0008 0223     		movs	r3, #2
 326 000a 80F85130 		strb	r3, [r0, #81]
 327 000e 1368     		ldr	r3, [r2]
 328 0010 23F04003 		bic	r3, r3, #64
 329 0014 1360     		str	r3, [r2]
 330 0016 FFF7FEFF 		bl	HAL_SPI_MspDeInit
 331 001a 0020     		movs	r0, #0
 332 001c 6065     		str	r0, [r4, #84]
 333 001e 84F85000 		strb	r0, [r4, #80]
 334 0022 84F85100 		strb	r0, [r4, #81]
 335 0026 10BD     		pop	{r4, pc}
 336              	.L54:
 337 0028 0120     		movs	r0, #1
 338 002a 10BD     		pop	{r4, pc}
 340              		.section	.text.HAL_SPI_Transmit,"ax",%progbits
 341              		.align	1
 342              		.global	HAL_SPI_Transmit
 343              		.thumb
 344              		.thumb_func
 346              	HAL_SPI_Transmit:
 347              		@ args = 0, pretend = 0, frame = 8
 348              		@ frame_needed = 0, uses_anonymous_args = 0
 349 0000 2DE9F341 		push	{r0, r1, r4, r5, r6, r7, r8, lr}
 350 0004 1E46     		mov	r6, r3
 351 0006 90F85030 		ldrb	r3, [r0, #80]	@ zero_extendqisi2
 352 000a 0446     		mov	r4, r0
 353 000c 012B     		cmp	r3, #1
 354 000e 0D46     		mov	r5, r1
 355 0010 9046     		mov	r8, r2
 356 0012 00F0B280 		beq	.L80
 357 0016 0123     		movs	r3, #1
 358 0018 80F85030 		strb	r3, [r0, #80]
 359 001c FFF7FEFF 		bl	HAL_GetTick
 360 0020 0746     		mov	r7, r0
 361 0022 94F85100 		ldrb	r0, [r4, #81]	@ zero_extendqisi2
ARM GAS  /tmp/cczGHsCY.s 			page 7


 362 0026 C0B2     		uxtb	r0, r0
 363 0028 0128     		cmp	r0, #1
 364 002a 40F09E80 		bne	.L81
 365 002e 002D     		cmp	r5, #0
 366 0030 00F09C80 		beq	.L57
 367 0034 B8F1000F 		cmp	r8, #0
 368 0038 00F09880 		beq	.L57
 369 003c 0323     		movs	r3, #3
 370 003e 84F85130 		strb	r3, [r4, #81]
 371 0042 0020     		movs	r0, #0
 372 0044 A368     		ldr	r3, [r4, #8]
 373 0046 6065     		str	r0, [r4, #84]
 374 0048 A063     		str	r0, [r4, #56]
 375 004a A4F83680 		strh	r8, [r4, #54]	@ movhi
 376 004e A087     		strh	r0, [r4, #60]	@ movhi
 377 0050 E087     		strh	r0, [r4, #62]	@ movhi
 378 0052 6064     		str	r0, [r4, #68]
 379 0054 2064     		str	r0, [r4, #64]
 380 0056 2068     		ldr	r0, [r4]
 381 0058 B3F5004F 		cmp	r3, #32768
 382 005c 08BF     		it	eq
 383 005e 0368     		ldreq	r3, [r0]
 384 0060 2563     		str	r5, [r4, #48]
 385 0062 08BF     		it	eq
 386 0064 43F48043 		orreq	r3, r3, #16384
 387 0068 A4F83480 		strh	r8, [r4, #52]	@ movhi
 388 006c 08BF     		it	eq
 389 006e 0360     		streq	r3, [r0]
 390 0070 A36A     		ldr	r3, [r4, #40]
 391 0072 B3F5005F 		cmp	r3, #8192
 392 0076 01BF     		itttt	eq
 393 0078 0368     		ldreq	r3, [r0]
 394 007a 23F40053 		biceq	r3, r3, #8192
 395 007e 0360     		streq	r3, [r0]
 396 0080 0368     		ldreq	r3, [r0]
 397 0082 04BF     		itt	eq
 398 0084 43F40053 		orreq	r3, r3, #8192
 399 0088 0360     		streq	r3, [r0]
 400 008a 0368     		ldr	r3, [r0]
 401 008c 5B06     		lsls	r3, r3, #25
 402 008e 5EBF     		ittt	pl
 403 0090 0368     		ldrpl	r3, [r0]
 404 0092 43F04003 		orrpl	r3, r3, #64
 405 0096 0360     		strpl	r3, [r0]
 406 0098 E368     		ldr	r3, [r4, #12]
 407 009a B3F5006F 		cmp	r3, #2048
 408 009e 6368     		ldr	r3, [r4, #4]
 409 00a0 22D1     		bne	.L61
 410 00a2 13B1     		cbz	r3, .L62
 411 00a4 B8F1010F 		cmp	r8, #1
 412 00a8 0DD1     		bne	.L64
 413              	.L62:
 414 00aa 35F8023B 		ldrh	r3, [r5], #2
 415 00ae C360     		str	r3, [r0, #12]
 416 00b0 2563     		str	r5, [r4, #48]
 417              	.L96:
 418 00b2 E38E     		ldrh	r3, [r4, #54]
ARM GAS  /tmp/cczGHsCY.s 			page 8


 419 00b4 013B     		subs	r3, r3, #1
 420 00b6 9BB2     		uxth	r3, r3
 421 00b8 E386     		strh	r3, [r4, #54]	@ movhi
 422 00ba 04E0     		b	.L64
 423              	.L65:
 424 00bc FFF7FEFF 		bl	HAL_GetTick
 425 00c0 C01B     		subs	r0, r0, r7
 426 00c2 B042     		cmp	r0, r6
 427 00c4 0CD2     		bcs	.L98
 428              	.L64:
 429 00c6 E38E     		ldrh	r3, [r4, #54]
 430 00c8 9BB2     		uxth	r3, r3
 431 00ca A3B1     		cbz	r3, .L77
 432 00cc 2268     		ldr	r2, [r4]
 433 00ce 9368     		ldr	r3, [r2, #8]
 434 00d0 9807     		lsls	r0, r3, #30
 435 00d2 F3D5     		bpl	.L65
 436 00d4 236B     		ldr	r3, [r4, #48]
 437 00d6 33F8021B 		ldrh	r1, [r3], #2
 438 00da D160     		str	r1, [r2, #12]
 439 00dc 2363     		str	r3, [r4, #48]
 440 00de E8E7     		b	.L96
 441              	.L98:
 442 00e0 711C     		adds	r1, r6, #1
 443 00e2 F0D0     		beq	.L64
 444              	.L75:
 445 00e4 0320     		movs	r0, #3
 446 00e6 41E0     		b	.L57
 447              	.L61:
 448 00e8 7BB1     		cbz	r3, .L70
 449 00ea B8F1010F 		cmp	r8, #1
 450 00ee 0CD0     		beq	.L70
 451              	.L72:
 452 00f0 E38E     		ldrh	r3, [r4, #54]
 453 00f2 9BB2     		uxth	r3, r3
 454 00f4 9BB9     		cbnz	r3, .L76
 455              	.L77:
 456 00f6 A36A     		ldr	r3, [r4, #40]
 457 00f8 B3F5005F 		cmp	r3, #8192
 458 00fc 1FD1     		bne	.L69
 459 00fe 2268     		ldr	r2, [r4]
 460 0100 1368     		ldr	r3, [r2]
 461 0102 43F48053 		orr	r3, r3, #4096
 462 0106 1360     		str	r3, [r2]
 463 0108 19E0     		b	.L69
 464              	.L70:
 465 010a 2B78     		ldrb	r3, [r5]	@ zero_extendqisi2
 466 010c 0373     		strb	r3, [r0, #12]
 467              	.L97:
 468 010e 236B     		ldr	r3, [r4, #48]
 469 0110 0133     		adds	r3, r3, #1
 470 0112 2363     		str	r3, [r4, #48]
 471 0114 E38E     		ldrh	r3, [r4, #54]
 472 0116 013B     		subs	r3, r3, #1
 473 0118 9BB2     		uxth	r3, r3
 474 011a E386     		strh	r3, [r4, #54]	@ movhi
 475 011c E8E7     		b	.L72
ARM GAS  /tmp/cczGHsCY.s 			page 9


 476              	.L76:
 477 011e 2368     		ldr	r3, [r4]
 478 0120 9A68     		ldr	r2, [r3, #8]
 479 0122 9207     		lsls	r2, r2, #30
 480 0124 03D5     		bpl	.L73
 481 0126 226B     		ldr	r2, [r4, #48]
 482 0128 1278     		ldrb	r2, [r2]	@ zero_extendqisi2
 483 012a 1A73     		strb	r2, [r3, #12]
 484 012c EFE7     		b	.L97
 485              	.L73:
 486 012e FFF7FEFF 		bl	HAL_GetTick
 487 0132 C01B     		subs	r0, r0, r7
 488 0134 B042     		cmp	r0, r6
 489 0136 DBD3     		bcc	.L72
 490 0138 731C     		adds	r3, r6, #1
 491 013a D9D0     		beq	.L72
 492 013c D2E7     		b	.L75
 493              	.L69:
 494 013e 2046     		mov	r0, r4
 495 0140 3146     		mov	r1, r6
 496 0142 3A46     		mov	r2, r7
 497 0144 FFF7FEFF 		bl	SPI_EndRxTxTransaction
 498 0148 08B1     		cbz	r0, .L78
 499 014a 2023     		movs	r3, #32
 500 014c 6365     		str	r3, [r4, #84]
 501              	.L78:
 502 014e A368     		ldr	r3, [r4, #8]
 503 0150 33B9     		cbnz	r3, .L79
 504 0152 0193     		str	r3, [sp, #4]
 505 0154 2368     		ldr	r3, [r4]
 506 0156 DA68     		ldr	r2, [r3, #12]
 507 0158 0192     		str	r2, [sp, #4]
 508 015a 9B68     		ldr	r3, [r3, #8]
 509 015c 0193     		str	r3, [sp, #4]
 510 015e 019B     		ldr	r3, [sp, #4]
 511              	.L79:
 512 0160 606D     		ldr	r0, [r4, #84]
 513 0162 0030     		adds	r0, r0, #0
 514 0164 18BF     		it	ne
 515 0166 0120     		movne	r0, #1
 516 0168 00E0     		b	.L57
 517              	.L81:
 518 016a 0220     		movs	r0, #2
 519              	.L57:
 520 016c 0123     		movs	r3, #1
 521 016e 84F85130 		strb	r3, [r4, #81]
 522 0172 0023     		movs	r3, #0
 523 0174 84F85030 		strb	r3, [r4, #80]
 524 0178 00E0     		b	.L56
 525              	.L80:
 526 017a 0220     		movs	r0, #2
 527              	.L56:
 528 017c 02B0     		add	sp, sp, #8
 529              		@ sp needed
 530 017e BDE8F081 		pop	{r4, r5, r6, r7, r8, pc}
 532              		.section	.text.HAL_SPI_TransmitReceive,"ax",%progbits
 533              		.align	1
ARM GAS  /tmp/cczGHsCY.s 			page 10


 534              		.global	HAL_SPI_TransmitReceive
 535              		.thumb
 536              		.thumb_func
 538              	HAL_SPI_TransmitReceive:
 539              		@ args = 4, pretend = 0, frame = 8
 540              		@ frame_needed = 0, uses_anonymous_args = 0
 541 0000 2DE9F043 		push	{r4, r5, r6, r7, r8, r9, lr}
 542 0004 9846     		mov	r8, r3
 543 0006 90F85030 		ldrb	r3, [r0, #80]	@ zero_extendqisi2
 544 000a 85B0     		sub	sp, sp, #20
 545 000c 012B     		cmp	r3, #1
 546 000e 0446     		mov	r4, r0
 547 0010 0D46     		mov	r5, r1
 548 0012 9146     		mov	r9, r2
 549 0014 0C9E     		ldr	r6, [sp, #48]
 550 0016 00F03781 		beq	.L132
 551 001a 0123     		movs	r3, #1
 552 001c 80F85030 		strb	r3, [r0, #80]
 553 0020 FFF7FEFF 		bl	HAL_GetTick
 554 0024 94F85130 		ldrb	r3, [r4, #81]	@ zero_extendqisi2
 555 0028 0746     		mov	r7, r0
 556 002a DBB2     		uxtb	r3, r3
 557 002c 012B     		cmp	r3, #1
 558 002e 6168     		ldr	r1, [r4, #4]
 559 0030 0AD0     		beq	.L101
 560 0032 B1F5827F 		cmp	r1, #260
 561 0036 40F01C81 		bne	.L135
 562 003a A068     		ldr	r0, [r4, #8]
 563 003c 0028     		cmp	r0, #0
 564 003e 40F01881 		bne	.L135
 565 0042 042B     		cmp	r3, #4
 566 0044 40F01581 		bne	.L135
 567              	.L101:
 568 0048 002D     		cmp	r5, #0
 569 004a 00F01481 		beq	.L138
 570 004e B9F1000F 		cmp	r9, #0
 571 0052 00F01081 		beq	.L138
 572 0056 B8F1000F 		cmp	r8, #0
 573 005a 00F00C81 		beq	.L138
 574 005e 94F85130 		ldrb	r3, [r4, #81]	@ zero_extendqisi2
 575 0062 2268     		ldr	r2, [r4]
 576 0064 042B     		cmp	r3, #4
 577 0066 1CBF     		itt	ne
 578 0068 0523     		movne	r3, #5
 579 006a 84F85130 		strbne	r3, [r4, #81]
 580 006e 0023     		movs	r3, #0
 581 0070 6365     		str	r3, [r4, #84]
 582 0072 2364     		str	r3, [r4, #64]
 583 0074 6364     		str	r3, [r4, #68]
 584 0076 A36A     		ldr	r3, [r4, #40]
 585 0078 A4F83E80 		strh	r8, [r4, #62]	@ movhi
 586 007c B3F5005F 		cmp	r3, #8192
 587 0080 A4F83680 		strh	r8, [r4, #54]	@ movhi
 588 0084 08BF     		it	eq
 589 0086 1368     		ldreq	r3, [r2]
 590 0088 C4F83890 		str	r9, [r4, #56]
 591 008c 08BF     		it	eq
ARM GAS  /tmp/cczGHsCY.s 			page 11


 592 008e 23F40053 		biceq	r3, r3, #8192
 593 0092 A4F83C80 		strh	r8, [r4, #60]	@ movhi
 594 0096 2563     		str	r5, [r4, #48]
 595 0098 A4F83480 		strh	r8, [r4, #52]	@ movhi
 596 009c 01BF     		itttt	eq
 597 009e 1360     		streq	r3, [r2]
 598 00a0 1368     		ldreq	r3, [r2]
 599 00a2 43F40053 		orreq	r3, r3, #8192
 600 00a6 1360     		streq	r3, [r2]
 601 00a8 1368     		ldr	r3, [r2]
 602 00aa 5B06     		lsls	r3, r3, #25
 603 00ac 5EBF     		ittt	pl
 604 00ae 1368     		ldrpl	r3, [r2]
 605 00b0 43F04003 		orrpl	r3, r3, #64
 606 00b4 1360     		strpl	r3, [r2]
 607 00b6 E368     		ldr	r3, [r4, #12]
 608 00b8 B3F5006F 		cmp	r3, #2048
 609 00bc 51D1     		bne	.L106
 610 00be 11B1     		cbz	r1, .L107
 611 00c0 B8F1010F 		cmp	r8, #1
 612 00c4 07D1     		bne	.L108
 613              	.L107:
 614 00c6 35F8023B 		ldrh	r3, [r5], #2
 615 00ca D360     		str	r3, [r2, #12]
 616 00cc E38E     		ldrh	r3, [r4, #54]
 617 00ce 2563     		str	r5, [r4, #48]
 618 00d0 013B     		subs	r3, r3, #1
 619 00d2 9BB2     		uxth	r3, r3
 620 00d4 E386     		strh	r3, [r4, #54]	@ movhi
 621              	.L108:
 622 00d6 0125     		movs	r5, #1
 623              	.L109:
 624 00d8 E38E     		ldrh	r3, [r4, #54]
 625 00da 9BB2     		uxth	r3, r3
 626 00dc 002B     		cmp	r3, #0
 627 00de 37D0     		beq	.L180
 628              	.L115:
 629 00e0 2268     		ldr	r2, [r4]
 630 00e2 9368     		ldr	r3, [r2, #8]
 631 00e4 9807     		lsls	r0, r3, #30
 632 00e6 1BD5     		bpl	.L110
 633 00e8 E38E     		ldrh	r3, [r4, #54]
 634 00ea 9BB2     		uxth	r3, r3
 635 00ec C3B1     		cbz	r3, .L110
 636 00ee 012D     		cmp	r5, #1
 637 00f0 01D0     		beq	.L111
 638              	.L112:
 639 00f2 0025     		movs	r5, #0
 640 00f4 14E0     		b	.L110
 641              	.L111:
 642 00f6 236B     		ldr	r3, [r4, #48]
 643 00f8 33F8021B 		ldrh	r1, [r3], #2
 644 00fc D160     		str	r1, [r2, #12]
 645 00fe 2363     		str	r3, [r4, #48]
 646 0100 E38E     		ldrh	r3, [r4, #54]
 647 0102 013B     		subs	r3, r3, #1
 648 0104 9BB2     		uxth	r3, r3
ARM GAS  /tmp/cczGHsCY.s 			page 12


 649 0106 E386     		strh	r3, [r4, #54]	@ movhi
 650 0108 E58E     		ldrh	r5, [r4, #54]
 651 010a ADB2     		uxth	r5, r5
 652 010c 002D     		cmp	r5, #0
 653 010e F0D1     		bne	.L112
 654 0110 A36A     		ldr	r3, [r4, #40]
 655 0112 B3F5005F 		cmp	r3, #8192
 656 0116 ECD1     		bne	.L112
 657 0118 1368     		ldr	r3, [r2]
 658 011a 43F48053 		orr	r3, r3, #4096
 659 011e 1360     		str	r3, [r2]
 660              	.L110:
 661 0120 9368     		ldr	r3, [r2, #8]
 662 0122 D907     		lsls	r1, r3, #31
 663 0124 0CD5     		bpl	.L113
 664 0126 E38F     		ldrh	r3, [r4, #62]
 665 0128 9BB2     		uxth	r3, r3
 666 012a 4BB1     		cbz	r3, .L113
 667 012c D268     		ldr	r2, [r2, #12]
 668 012e A36B     		ldr	r3, [r4, #56]
 669 0130 0125     		movs	r5, #1
 670 0132 23F8022B 		strh	r2, [r3], #2	@ movhi
 671 0136 A363     		str	r3, [r4, #56]
 672 0138 E38F     		ldrh	r3, [r4, #62]
 673 013a 013B     		subs	r3, r3, #1
 674 013c 9BB2     		uxth	r3, r3
 675 013e E387     		strh	r3, [r4, #62]	@ movhi
 676              	.L113:
 677 0140 FFF7FEFF 		bl	HAL_GetTick
 678 0144 C01B     		subs	r0, r0, r7
 679 0146 B042     		cmp	r0, r6
 680 0148 C6D3     		bcc	.L109
 681 014a 731C     		adds	r3, r6, #1
 682 014c C4D0     		beq	.L109
 683 014e 67E0     		b	.L179
 684              	.L180:
 685 0150 E38F     		ldrh	r3, [r4, #62]
 686 0152 9BB2     		uxth	r3, r3
 687 0154 002B     		cmp	r3, #0
 688 0156 C3D1     		bne	.L115
 689              	.L128:
 690 0158 A36A     		ldr	r3, [r4, #40]
 691 015a B3F5005F 		cmp	r3, #8192
 692 015e 63D1     		bne	.L117
 693 0160 52E0     		b	.L181
 694              	.L106:
 695 0162 11B1     		cbz	r1, .L118
 696 0164 B8F1010F 		cmp	r8, #1
 697 0168 08D1     		bne	.L119
 698              	.L118:
 699 016a 2B78     		ldrb	r3, [r5]	@ zero_extendqisi2
 700 016c 1373     		strb	r3, [r2, #12]
 701 016e 236B     		ldr	r3, [r4, #48]
 702 0170 0133     		adds	r3, r3, #1
 703 0172 2363     		str	r3, [r4, #48]
 704 0174 E38E     		ldrh	r3, [r4, #54]
 705 0176 013B     		subs	r3, r3, #1
ARM GAS  /tmp/cczGHsCY.s 			page 13


 706 0178 9BB2     		uxth	r3, r3
 707 017a E386     		strh	r3, [r4, #54]	@ movhi
 708              	.L119:
 709 017c 0125     		movs	r5, #1
 710              	.L126:
 711 017e E38E     		ldrh	r3, [r4, #54]
 712 0180 9BB2     		uxth	r3, r3
 713 0182 002B     		cmp	r3, #0
 714 0184 3BD0     		beq	.L182
 715              	.L127:
 716 0186 2268     		ldr	r2, [r4]
 717 0188 9368     		ldr	r3, [r2, #8]
 718 018a 9807     		lsls	r0, r3, #30
 719 018c 1DD5     		bpl	.L120
 720 018e E38E     		ldrh	r3, [r4, #54]
 721 0190 9BB2     		uxth	r3, r3
 722 0192 D3B1     		cbz	r3, .L120
 723 0194 012D     		cmp	r5, #1
 724 0196 01D0     		beq	.L121
 725              	.L122:
 726 0198 0025     		movs	r5, #0
 727 019a 16E0     		b	.L120
 728              	.L121:
 729 019c 236B     		ldr	r3, [r4, #48]
 730 019e 1B78     		ldrb	r3, [r3]	@ zero_extendqisi2
 731 01a0 1373     		strb	r3, [r2, #12]
 732 01a2 236B     		ldr	r3, [r4, #48]
 733 01a4 0133     		adds	r3, r3, #1
 734 01a6 2363     		str	r3, [r4, #48]
 735 01a8 E38E     		ldrh	r3, [r4, #54]
 736 01aa 013B     		subs	r3, r3, #1
 737 01ac 9BB2     		uxth	r3, r3
 738 01ae E386     		strh	r3, [r4, #54]	@ movhi
 739 01b0 E58E     		ldrh	r5, [r4, #54]
 740 01b2 ADB2     		uxth	r5, r5
 741 01b4 002D     		cmp	r5, #0
 742 01b6 EFD1     		bne	.L122
 743 01b8 A36A     		ldr	r3, [r4, #40]
 744 01ba B3F5005F 		cmp	r3, #8192
 745 01be EBD1     		bne	.L122
 746 01c0 2268     		ldr	r2, [r4]
 747 01c2 1368     		ldr	r3, [r2]
 748 01c4 43F48053 		orr	r3, r3, #4096
 749 01c8 1360     		str	r3, [r2]
 750              	.L120:
 751 01ca 2268     		ldr	r2, [r4]
 752 01cc 9368     		ldr	r3, [r2, #8]
 753 01ce D907     		lsls	r1, r3, #31
 754 01d0 0DD5     		bpl	.L123
 755 01d2 E38F     		ldrh	r3, [r4, #62]
 756 01d4 9BB2     		uxth	r3, r3
 757 01d6 53B1     		cbz	r3, .L123
 758 01d8 D268     		ldr	r2, [r2, #12]
 759 01da A36B     		ldr	r3, [r4, #56]
 760 01dc 0125     		movs	r5, #1
 761 01de 1A70     		strb	r2, [r3]
 762 01e0 A36B     		ldr	r3, [r4, #56]
ARM GAS  /tmp/cczGHsCY.s 			page 14


 763 01e2 0133     		adds	r3, r3, #1
 764 01e4 A363     		str	r3, [r4, #56]
 765 01e6 E38F     		ldrh	r3, [r4, #62]
 766 01e8 013B     		subs	r3, r3, #1
 767 01ea 9BB2     		uxth	r3, r3
 768 01ec E387     		strh	r3, [r4, #62]	@ movhi
 769              	.L123:
 770 01ee FFF7FEFF 		bl	HAL_GetTick
 771 01f2 C01B     		subs	r0, r0, r7
 772 01f4 B042     		cmp	r0, r6
 773 01f6 C2D3     		bcc	.L126
 774 01f8 731C     		adds	r3, r6, #1
 775 01fa C0D0     		beq	.L126
 776 01fc 10E0     		b	.L179
 777              	.L182:
 778 01fe E38F     		ldrh	r3, [r4, #62]
 779 0200 9BB2     		uxth	r3, r3
 780 0202 002B     		cmp	r3, #0
 781 0204 BFD1     		bne	.L127
 782 0206 A7E7     		b	.L128
 783              	.L181:
 784 0208 0121     		movs	r1, #1
 785 020a 0097     		str	r7, [sp]
 786 020c 2046     		mov	r0, r4
 787 020e 0A46     		mov	r2, r1
 788 0210 3346     		mov	r3, r6
 789 0212 FFF7FEFF 		bl	SPI_WaitFlagStateUntilTimeout
 790 0216 28B1     		cbz	r0, .L129
 791 0218 636D     		ldr	r3, [r4, #84]
 792 021a 43F00203 		orr	r3, r3, #2
 793 021e 6365     		str	r3, [r4, #84]
 794              	.L179:
 795 0220 0325     		movs	r5, #3
 796 0222 29E0     		b	.L102
 797              	.L129:
 798 0224 2368     		ldr	r3, [r4]
 799 0226 DB68     		ldr	r3, [r3, #12]
 800              	.L117:
 801 0228 2368     		ldr	r3, [r4]
 802 022a 9D68     		ldr	r5, [r3, #8]
 803 022c 15F01005 		ands	r5, r5, #16
 804 0230 0CD0     		beq	.L130
 805 0232 626D     		ldr	r2, [r4, #84]
 806 0234 0125     		movs	r5, #1
 807 0236 42F00202 		orr	r2, r2, #2
 808 023a 6265     		str	r2, [r4, #84]
 809 023c 1A68     		ldr	r2, [r3]
 810 023e 22F40052 		bic	r2, r2, #8192
 811 0242 1A60     		str	r2, [r3]
 812 0244 1A68     		ldr	r2, [r3]
 813 0246 42F40052 		orr	r2, r2, #8192
 814 024a 1A60     		str	r2, [r3]
 815              	.L130:
 816 024c 2046     		mov	r0, r4
 817 024e 3146     		mov	r1, r6
 818 0250 3A46     		mov	r2, r7
 819 0252 FFF7FEFF 		bl	SPI_EndRxTxTransaction
ARM GAS  /tmp/cczGHsCY.s 			page 15


 820 0256 10B1     		cbz	r0, .L131
 821 0258 2023     		movs	r3, #32
 822 025a 6365     		str	r3, [r4, #84]
 823 025c 0BE0     		b	.L138
 824              	.L131:
 825 025e A368     		ldr	r3, [r4, #8]
 826 0260 53B9     		cbnz	r3, .L102
 827 0262 0393     		str	r3, [sp, #12]
 828 0264 2368     		ldr	r3, [r4]
 829 0266 DA68     		ldr	r2, [r3, #12]
 830 0268 0392     		str	r2, [sp, #12]
 831 026a 9B68     		ldr	r3, [r3, #8]
 832 026c 0393     		str	r3, [sp, #12]
 833 026e 039B     		ldr	r3, [sp, #12]
 834 0270 02E0     		b	.L102
 835              	.L135:
 836 0272 0225     		movs	r5, #2
 837 0274 00E0     		b	.L102
 838              	.L138:
 839 0276 0125     		movs	r5, #1
 840              	.L102:
 841 0278 0123     		movs	r3, #1
 842 027a 84F85130 		strb	r3, [r4, #81]
 843 027e 0023     		movs	r3, #0
 844 0280 84F85030 		strb	r3, [r4, #80]
 845 0284 2846     		mov	r0, r5
 846 0286 00E0     		b	.L100
 847              	.L132:
 848 0288 0220     		movs	r0, #2
 849              	.L100:
 850 028a 05B0     		add	sp, sp, #20
 851              		@ sp needed
 852 028c BDE8F083 		pop	{r4, r5, r6, r7, r8, r9, pc}
 854              		.section	.text.HAL_SPI_Receive,"ax",%progbits
 855              		.align	1
 856              		.global	HAL_SPI_Receive
 857              		.thumb
 858              		.thumb_func
 860              	HAL_SPI_Receive:
 861              		@ args = 0, pretend = 0, frame = 0
 862              		@ frame_needed = 0, uses_anonymous_args = 0
 863 0000 2DE9F341 		push	{r0, r1, r4, r5, r6, r7, r8, lr}
 864 0004 1D46     		mov	r5, r3
 865 0006 4368     		ldr	r3, [r0, #4]
 866 0008 0446     		mov	r4, r0
 867 000a B3F5827F 		cmp	r3, #260
 868 000e 8846     		mov	r8, r1
 869 0010 1746     		mov	r7, r2
 870 0012 0AD1     		bne	.L184
 871 0014 8368     		ldr	r3, [r0, #8]
 872 0016 43B9     		cbnz	r3, .L184
 873 0018 0423     		movs	r3, #4
 874 001a 80F85130 		strb	r3, [r0, #81]
 875 001e 0A46     		mov	r2, r1
 876 0020 0095     		str	r5, [sp]
 877 0022 3B46     		mov	r3, r7
 878 0024 FFF7FEFF 		bl	HAL_SPI_TransmitReceive
ARM GAS  /tmp/cczGHsCY.s 			page 16


 879 0028 DAE0     		b	.L185
 880              	.L184:
 881 002a 94F85030 		ldrb	r3, [r4, #80]	@ zero_extendqisi2
 882 002e 012B     		cmp	r3, #1
 883 0030 00F0D580 		beq	.L208
 884 0034 0123     		movs	r3, #1
 885 0036 84F85030 		strb	r3, [r4, #80]
 886 003a FFF7FEFF 		bl	HAL_GetTick
 887 003e 0646     		mov	r6, r0
 888 0040 94F85100 		ldrb	r0, [r4, #81]	@ zero_extendqisi2
 889 0044 C0B2     		uxtb	r0, r0
 890 0046 0128     		cmp	r0, #1
 891 0048 40F0C180 		bne	.L209
 892 004c B8F1000F 		cmp	r8, #0
 893 0050 00F0BE80 		beq	.L186
 894 0054 002F     		cmp	r7, #0
 895 0056 00F0BB80 		beq	.L186
 896 005a 0423     		movs	r3, #4
 897 005c 84F85130 		strb	r3, [r4, #81]
 898 0060 0023     		movs	r3, #0
 899 0062 6365     		str	r3, [r4, #84]
 900 0064 2363     		str	r3, [r4, #48]
 901 0066 E787     		strh	r7, [r4, #62]	@ movhi
 902 0068 A386     		strh	r3, [r4, #52]	@ movhi
 903 006a E386     		strh	r3, [r4, #54]	@ movhi
 904 006c 2364     		str	r3, [r4, #64]
 905 006e 6364     		str	r3, [r4, #68]
 906 0070 A36A     		ldr	r3, [r4, #40]
 907 0072 C4F83880 		str	r8, [r4, #56]
 908 0076 B3F5005F 		cmp	r3, #8192
 909 007a A787     		strh	r7, [r4, #60]	@ movhi
 910 007c 2368     		ldr	r3, [r4]
 911 007e 0BD1     		bne	.L187
 912 0080 1A68     		ldr	r2, [r3]
 913 0082 22F40052 		bic	r2, r2, #8192
 914 0086 1A60     		str	r2, [r3]
 915 0088 1A68     		ldr	r2, [r3]
 916 008a 42F40052 		orr	r2, r2, #8192
 917 008e 1A60     		str	r2, [r3]
 918 0090 E28F     		ldrh	r2, [r4, #62]
 919 0092 013A     		subs	r2, r2, #1
 920 0094 92B2     		uxth	r2, r2
 921 0096 E287     		strh	r2, [r4, #62]	@ movhi
 922              	.L187:
 923 0098 A268     		ldr	r2, [r4, #8]
 924 009a B2F5004F 		cmp	r2, #32768
 925 009e 02BF     		ittt	eq
 926 00a0 1A68     		ldreq	r2, [r3]
 927 00a2 22F48042 		biceq	r2, r2, #16384
 928 00a6 1A60     		streq	r2, [r3]
 929 00a8 1A68     		ldr	r2, [r3]
 930 00aa 5106     		lsls	r1, r2, #25
 931 00ac 5EBF     		ittt	pl
 932 00ae 1A68     		ldrpl	r2, [r3]
 933 00b0 42F04002 		orrpl	r2, r2, #64
 934 00b4 1A60     		strpl	r2, [r3]
 935 00b6 E368     		ldr	r3, [r4, #12]
ARM GAS  /tmp/cczGHsCY.s 			page 17


 936 00b8 002B     		cmp	r3, #0
 937 00ba 28D1     		bne	.L191
 938              	.L190:
 939 00bc E38F     		ldrh	r3, [r4, #62]
 940 00be 9BB2     		uxth	r3, r3
 941 00c0 002B     		cmp	r3, #0
 942 00c2 28D0     		beq	.L201
 943 00c4 2368     		ldr	r3, [r4]
 944 00c6 9A68     		ldr	r2, [r3, #8]
 945 00c8 D207     		lsls	r2, r2, #31
 946 00ca 0AD5     		bpl	.L192
 947 00cc 1B7B     		ldrb	r3, [r3, #12]	@ zero_extendqisi2
 948 00ce A26B     		ldr	r2, [r4, #56]
 949 00d0 1370     		strb	r3, [r2]
 950 00d2 A36B     		ldr	r3, [r4, #56]
 951 00d4 0133     		adds	r3, r3, #1
 952 00d6 A363     		str	r3, [r4, #56]
 953 00d8 E38F     		ldrh	r3, [r4, #62]
 954 00da 013B     		subs	r3, r3, #1
 955 00dc 9BB2     		uxth	r3, r3
 956 00de E387     		strh	r3, [r4, #62]	@ movhi
 957 00e0 ECE7     		b	.L190
 958              	.L192:
 959 00e2 FFF7FEFF 		bl	HAL_GetTick
 960 00e6 801B     		subs	r0, r0, r6
 961 00e8 A842     		cmp	r0, r5
 962 00ea E7D3     		bcc	.L190
 963 00ec 6B1C     		adds	r3, r5, #1
 964 00ee E5D0     		beq	.L190
 965 00f0 4CE0     		b	.L226
 966              	.L200:
 967 00f2 2368     		ldr	r3, [r4]
 968 00f4 9A68     		ldr	r2, [r3, #8]
 969 00f6 D707     		lsls	r7, r2, #31
 970 00f8 12D5     		bpl	.L197
 971 00fa DA68     		ldr	r2, [r3, #12]
 972 00fc A36B     		ldr	r3, [r4, #56]
 973 00fe 1A80     		strh	r2, [r3]	@ movhi
 974 0100 A36B     		ldr	r3, [r4, #56]
 975 0102 0233     		adds	r3, r3, #2
 976 0104 A363     		str	r3, [r4, #56]
 977 0106 E38F     		ldrh	r3, [r4, #62]
 978 0108 013B     		subs	r3, r3, #1
 979 010a 9BB2     		uxth	r3, r3
 980 010c E387     		strh	r3, [r4, #62]	@ movhi
 981              	.L191:
 982 010e E38F     		ldrh	r3, [r4, #62]
 983 0110 9BB2     		uxth	r3, r3
 984 0112 002B     		cmp	r3, #0
 985 0114 EDD1     		bne	.L200
 986              	.L201:
 987 0116 A36A     		ldr	r3, [r4, #40]
 988 0118 B3F5005F 		cmp	r3, #8192
 989 011c 3AD1     		bne	.L196
 990 011e 07E0     		b	.L227
 991              	.L197:
 992 0120 FFF7FEFF 		bl	HAL_GetTick
ARM GAS  /tmp/cczGHsCY.s 			page 18


 993 0124 801B     		subs	r0, r0, r6
 994 0126 A842     		cmp	r0, r5
 995 0128 F1D3     		bcc	.L191
 996 012a 681C     		adds	r0, r5, #1
 997 012c EFD0     		beq	.L191
 998 012e 2DE0     		b	.L226
 999              	.L227:
 1000 0130 2368     		ldr	r3, [r4]
 1001 0132 2046     		mov	r0, r4
 1002 0134 1A68     		ldr	r2, [r3]
 1003 0136 42F48052 		orr	r2, r2, #4096
 1004 013a 1A60     		str	r2, [r3]
 1005 013c 1A68     		ldr	r2, [r3]
 1006 013e D104     		lsls	r1, r2, #19
 1007 0140 48BF     		it	mi
 1008 0142 1A68     		ldrmi	r2, [r3]
 1009 0144 4FF00101 		mov	r1, #1
 1010 0148 44BF     		itt	mi
 1011 014a 22F48052 		bicmi	r2, r2, #4096
 1012 014e 1A60     		strmi	r2, [r3]
 1013 0150 0096     		str	r6, [sp]
 1014 0152 0A46     		mov	r2, r1
 1015 0154 2B46     		mov	r3, r5
 1016 0156 FFF7FEFF 		bl	SPI_WaitFlagStateUntilTimeout
 1017 015a B8B9     		cbnz	r0, .L226
 1018 015c E368     		ldr	r3, [r4, #12]
 1019 015e 2268     		ldr	r2, [r4]
 1020 0160 B3F5006F 		cmp	r3, #2048
 1021 0164 0CBF     		ite	eq
 1022 0166 D268     		ldreq	r2, [r2, #12]
 1023 0168 127B     		ldrbne	r2, [r2, #12]	@ zero_extendqisi2
 1024 016a A36B     		ldr	r3, [r4, #56]
 1025 016c 4FF00101 		mov	r1, #1
 1026 0170 0CBF     		ite	eq
 1027 0172 1A80     		strheq	r2, [r3]	@ movhi
 1028 0174 1A70     		strbne	r2, [r3]
 1029 0176 2046     		mov	r0, r4
 1030 0178 0096     		str	r6, [sp]
 1031 017a 0A46     		mov	r2, r1
 1032 017c 2B46     		mov	r3, r5
 1033 017e FFF7FEFF 		bl	SPI_WaitFlagStateUntilTimeout
 1034 0182 28B1     		cbz	r0, .L205
 1035 0184 636D     		ldr	r3, [r4, #84]
 1036 0186 43F00203 		orr	r3, r3, #2
 1037 018a 6365     		str	r3, [r4, #84]
 1038              	.L226:
 1039 018c 0320     		movs	r0, #3
 1040 018e 1FE0     		b	.L186
 1041              	.L205:
 1042 0190 2368     		ldr	r3, [r4]
 1043 0192 DB68     		ldr	r3, [r3, #12]
 1044              	.L196:
 1045 0194 2046     		mov	r0, r4
 1046 0196 2946     		mov	r1, r5
 1047 0198 3246     		mov	r2, r6
 1048 019a FFF7FEFF 		bl	SPI_EndRxTransaction
 1049 019e 08B1     		cbz	r0, .L206
ARM GAS  /tmp/cczGHsCY.s 			page 19


 1050 01a0 2023     		movs	r3, #32
 1051 01a2 6365     		str	r3, [r4, #84]
 1052              	.L206:
 1053 01a4 2368     		ldr	r3, [r4]
 1054 01a6 9A68     		ldr	r2, [r3, #8]
 1055 01a8 D206     		lsls	r2, r2, #27
 1056 01aa 0BD5     		bpl	.L207
 1057 01ac 626D     		ldr	r2, [r4, #84]
 1058 01ae 42F00202 		orr	r2, r2, #2
 1059 01b2 6265     		str	r2, [r4, #84]
 1060 01b4 1A68     		ldr	r2, [r3]
 1061 01b6 22F40052 		bic	r2, r2, #8192
 1062 01ba 1A60     		str	r2, [r3]
 1063 01bc 1A68     		ldr	r2, [r3]
 1064 01be 42F40052 		orr	r2, r2, #8192
 1065 01c2 1A60     		str	r2, [r3]
 1066              	.L207:
 1067 01c4 606D     		ldr	r0, [r4, #84]
 1068 01c6 0030     		adds	r0, r0, #0
 1069 01c8 18BF     		it	ne
 1070 01ca 0120     		movne	r0, #1
 1071 01cc 00E0     		b	.L186
 1072              	.L209:
 1073 01ce 0220     		movs	r0, #2
 1074              	.L186:
 1075 01d0 0123     		movs	r3, #1
 1076 01d2 84F85130 		strb	r3, [r4, #81]
 1077 01d6 0023     		movs	r3, #0
 1078 01d8 84F85030 		strb	r3, [r4, #80]
 1079 01dc 00E0     		b	.L185
 1080              	.L208:
 1081 01de 0220     		movs	r0, #2
 1082              	.L185:
 1083 01e0 02B0     		add	sp, sp, #8
 1084              		@ sp needed
 1085 01e2 BDE8F081 		pop	{r4, r5, r6, r7, r8, pc}
 1087              		.section	.text.HAL_SPI_Transmit_IT,"ax",%progbits
 1088              		.align	1
 1089              		.global	HAL_SPI_Transmit_IT
 1090              		.thumb
 1091              		.thumb_func
 1093              	HAL_SPI_Transmit_IT:
 1094              		@ args = 0, pretend = 0, frame = 0
 1095              		@ frame_needed = 0, uses_anonymous_args = 0
 1096              		@ link register save eliminated.
 1097 0000 90F85030 		ldrb	r3, [r0, #80]	@ zero_extendqisi2
 1098 0004 012B     		cmp	r3, #1
 1099 0006 47D0     		beq	.L235
 1100 0008 0123     		movs	r3, #1
 1101 000a 80F85030 		strb	r3, [r0, #80]
 1102 000e 0029     		cmp	r1, #0
 1103 0010 3DD0     		beq	.L230
 1104 0012 002A     		cmp	r2, #0
 1105 0014 3BD0     		beq	.L230
 1106 0016 90F85130 		ldrb	r3, [r0, #81]	@ zero_extendqisi2
 1107 001a 012B     		cmp	r3, #1
 1108 001c 34D1     		bne	.L238
ARM GAS  /tmp/cczGHsCY.s 			page 20


 1109 001e 0323     		movs	r3, #3
 1110 0020 80F85130 		strb	r3, [r0, #81]
 1111 0024 0023     		movs	r3, #0
 1112 0026 4365     		str	r3, [r0, #84]
 1113 0028 8363     		str	r3, [r0, #56]
 1114 002a C286     		strh	r2, [r0, #54]	@ movhi
 1115 002c 8387     		strh	r3, [r0, #60]	@ movhi
 1116 002e C387     		strh	r3, [r0, #62]	@ movhi
 1117 0030 0364     		str	r3, [r0, #64]
 1118 0032 C368     		ldr	r3, [r0, #12]
 1119 0034 0163     		str	r1, [r0, #48]
 1120 0036 8286     		strh	r2, [r0, #52]	@ movhi
 1121 0038 0BB1     		cbz	r3, .L231
 1122 003a 184B     		ldr	r3, .L241
 1123 003c 00E0     		b	.L240
 1124              	.L231:
 1125 003e 184B     		ldr	r3, .L241+4
 1126              	.L240:
 1127 0040 4364     		str	r3, [r0, #68]
 1128 0042 8368     		ldr	r3, [r0, #8]
 1129 0044 0268     		ldr	r2, [r0]
 1130 0046 B3F5004F 		cmp	r3, #32768
 1131 004a 02BF     		ittt	eq
 1132 004c 1368     		ldreq	r3, [r2]
 1133 004e 43F48043 		orreq	r3, r3, #16384
 1134 0052 1360     		streq	r3, [r2]
 1135 0054 836A     		ldr	r3, [r0, #40]
 1136 0056 B3F5005F 		cmp	r3, #8192
 1137 005a 01BF     		itttt	eq
 1138 005c 1368     		ldreq	r3, [r2]
 1139 005e 23F40053 		biceq	r3, r3, #8192
 1140 0062 1360     		streq	r3, [r2]
 1141 0064 1368     		ldreq	r3, [r2]
 1142 0066 04BF     		itt	eq
 1143 0068 43F40053 		orreq	r3, r3, #8192
 1144 006c 1360     		streq	r3, [r2]
 1145 006e 5368     		ldr	r3, [r2, #4]
 1146 0070 43F0A003 		orr	r3, r3, #160
 1147 0074 5360     		str	r3, [r2, #4]
 1148 0076 1368     		ldr	r3, [r2]
 1149 0078 13F04003 		ands	r3, r3, #64
 1150 007c 06D1     		bne	.L239
 1151 007e 1168     		ldr	r1, [r2]
 1152 0080 41F04001 		orr	r1, r1, #64
 1153 0084 1160     		str	r1, [r2]
 1154 0086 02E0     		b	.L230
 1155              	.L238:
 1156 0088 0223     		movs	r3, #2
 1157 008a 00E0     		b	.L230
 1158              	.L239:
 1159 008c 0023     		movs	r3, #0
 1160              	.L230:
 1161 008e 0022     		movs	r2, #0
 1162 0090 80F85020 		strb	r2, [r0, #80]
 1163 0094 1846     		mov	r0, r3
 1164 0096 7047     		bx	lr
 1165              	.L235:
ARM GAS  /tmp/cczGHsCY.s 			page 21


 1166 0098 0220     		movs	r0, #2
 1167 009a 7047     		bx	lr
 1168              	.L242:
 1169              		.align	2
 1170              	.L241:
 1171 009c 00000000 		.word	SPI_TxISR_16BIT
 1172 00a0 00000000 		.word	SPI_TxISR_8BIT
 1174              		.section	.text.HAL_SPI_TransmitReceive_IT,"ax",%progbits
 1175              		.align	1
 1176              		.global	HAL_SPI_TransmitReceive_IT
 1177              		.thumb
 1178              		.thumb_func
 1180              	HAL_SPI_TransmitReceive_IT:
 1181              		@ args = 0, pretend = 0, frame = 0
 1182              		@ frame_needed = 0, uses_anonymous_args = 0
 1183 0000 30B5     		push	{r4, r5, lr}
 1184 0002 90F85040 		ldrb	r4, [r0, #80]	@ zero_extendqisi2
 1185 0006 012C     		cmp	r4, #1
 1186 0008 54D0     		beq	.L251
 1187 000a 0124     		movs	r4, #1
 1188 000c 80F85040 		strb	r4, [r0, #80]
 1189 0010 90F85140 		ldrb	r4, [r0, #81]	@ zero_extendqisi2
 1190 0014 4568     		ldr	r5, [r0, #4]
 1191 0016 E4B2     		uxtb	r4, r4
 1192 0018 012C     		cmp	r4, #1
 1193 001a 07D0     		beq	.L245
 1194 001c B5F5827F 		cmp	r5, #260
 1195 0020 3ED1     		bne	.L254
 1196 0022 8568     		ldr	r5, [r0, #8]
 1197 0024 002D     		cmp	r5, #0
 1198 0026 3BD1     		bne	.L254
 1199 0028 042C     		cmp	r4, #4
 1200 002a 39D1     		bne	.L254
 1201              	.L245:
 1202 002c 0029     		cmp	r1, #0
 1203 002e 39D0     		beq	.L257
 1204 0030 002A     		cmp	r2, #0
 1205 0032 37D0     		beq	.L257
 1206 0034 002B     		cmp	r3, #0
 1207 0036 35D0     		beq	.L257
 1208 0038 90F85140 		ldrb	r4, [r0, #81]	@ zero_extendqisi2
 1209 003c 8386     		strh	r3, [r0, #52]	@ movhi
 1210 003e 042C     		cmp	r4, #4
 1211 0040 1CBF     		itt	ne
 1212 0042 0524     		movne	r4, #5
 1213 0044 80F85140 		strbne	r4, [r0, #81]
 1214 0048 0024     		movs	r4, #0
 1215 004a 4465     		str	r4, [r0, #84]
 1216 004c 8387     		strh	r3, [r0, #60]	@ movhi
 1217 004e C386     		strh	r3, [r0, #54]	@ movhi
 1218 0050 C387     		strh	r3, [r0, #62]	@ movhi
 1219 0052 C368     		ldr	r3, [r0, #12]
 1220 0054 0163     		str	r1, [r0, #48]
 1221 0056 8263     		str	r2, [r0, #56]
 1222 0058 1BB1     		cbz	r3, .L248
 1223 005a 174B     		ldr	r3, .L266
 1224 005c 0364     		str	r3, [r0, #64]
ARM GAS  /tmp/cczGHsCY.s 			page 22


 1225 005e 174B     		ldr	r3, .L266+4
 1226 0060 02E0     		b	.L265
 1227              	.L248:
 1228 0062 174B     		ldr	r3, .L266+8
 1229 0064 0364     		str	r3, [r0, #64]
 1230 0066 174B     		ldr	r3, .L266+12
 1231              	.L265:
 1232 0068 4364     		str	r3, [r0, #68]
 1233 006a 836A     		ldr	r3, [r0, #40]
 1234 006c 0268     		ldr	r2, [r0]
 1235 006e B3F5005F 		cmp	r3, #8192
 1236 0072 01BF     		itttt	eq
 1237 0074 1368     		ldreq	r3, [r2]
 1238 0076 23F40053 		biceq	r3, r3, #8192
 1239 007a 1360     		streq	r3, [r2]
 1240 007c 1368     		ldreq	r3, [r2]
 1241 007e 04BF     		itt	eq
 1242 0080 43F40053 		orreq	r3, r3, #8192
 1243 0084 1360     		streq	r3, [r2]
 1244 0086 5368     		ldr	r3, [r2, #4]
 1245 0088 43F0E003 		orr	r3, r3, #224
 1246 008c 5360     		str	r3, [r2, #4]
 1247 008e 1368     		ldr	r3, [r2]
 1248 0090 13F04003 		ands	r3, r3, #64
 1249 0094 08D1     		bne	.L258
 1250 0096 1168     		ldr	r1, [r2]
 1251 0098 41F04001 		orr	r1, r1, #64
 1252 009c 1160     		str	r1, [r2]
 1253 009e 04E0     		b	.L246
 1254              	.L254:
 1255 00a0 0223     		movs	r3, #2
 1256 00a2 02E0     		b	.L246
 1257              	.L257:
 1258 00a4 0123     		movs	r3, #1
 1259 00a6 00E0     		b	.L246
 1260              	.L258:
 1261 00a8 0023     		movs	r3, #0
 1262              	.L246:
 1263 00aa 0022     		movs	r2, #0
 1264 00ac 80F85020 		strb	r2, [r0, #80]
 1265 00b0 1846     		mov	r0, r3
 1266 00b2 30BD     		pop	{r4, r5, pc}
 1267              	.L251:
 1268 00b4 0220     		movs	r0, #2
 1269 00b6 30BD     		pop	{r4, r5, pc}
 1270              	.L267:
 1271              		.align	2
 1272              	.L266:
 1273 00b8 00000000 		.word	SPI_2linesRxISR_16BIT
 1274 00bc 00000000 		.word	SPI_2linesTxISR_16BIT
 1275 00c0 00000000 		.word	SPI_2linesRxISR_8BIT
 1276 00c4 00000000 		.word	SPI_2linesTxISR_8BIT
 1278              		.section	.text.HAL_SPI_Receive_IT,"ax",%progbits
 1279              		.align	1
 1280              		.global	HAL_SPI_Receive_IT
 1281              		.thumb
 1282              		.thumb_func
ARM GAS  /tmp/cczGHsCY.s 			page 23


 1284              	HAL_SPI_Receive_IT:
 1285              		@ args = 0, pretend = 0, frame = 0
 1286              		@ frame_needed = 0, uses_anonymous_args = 0
 1287 0000 70B5     		push	{r4, r5, r6, lr}
 1288 0002 8668     		ldr	r6, [r0, #8]
 1289 0004 0446     		mov	r4, r0
 1290 0006 0D46     		mov	r5, r1
 1291 0008 1346     		mov	r3, r2
 1292 000a 5EB9     		cbnz	r6, .L269
 1293 000c 4268     		ldr	r2, [r0, #4]
 1294 000e B2F5827F 		cmp	r2, #260
 1295 0012 07D1     		bne	.L269
 1296 0014 0422     		movs	r2, #4
 1297 0016 80F85120 		strb	r2, [r0, #81]
 1298 001a BDE87040 		pop	{r4, r5, r6, lr}
 1299 001e 0A46     		mov	r2, r1
 1300 0020 FFF7FEBF 		b	HAL_SPI_TransmitReceive_IT
 1301              	.L269:
 1302 0024 94F85020 		ldrb	r2, [r4, #80]	@ zero_extendqisi2
 1303 0028 012A     		cmp	r2, #1
 1304 002a 46D0     		beq	.L276
 1305 002c 94F85100 		ldrb	r0, [r4, #81]	@ zero_extendqisi2
 1306 0030 0122     		movs	r2, #1
 1307 0032 C0B2     		uxtb	r0, r0
 1308 0034 9042     		cmp	r0, r2
 1309 0036 84F85020 		strb	r2, [r4, #80]
 1310 003a 37D1     		bne	.L277
 1311 003c 002D     		cmp	r5, #0
 1312 003e 38D0     		beq	.L271
 1313 0040 002B     		cmp	r3, #0
 1314 0042 36D0     		beq	.L271
 1315 0044 0422     		movs	r2, #4
 1316 0046 84F85120 		strb	r2, [r4, #81]
 1317 004a 0022     		movs	r2, #0
 1318 004c 6265     		str	r2, [r4, #84]
 1319 004e A387     		strh	r3, [r4, #60]	@ movhi
 1320 0050 E387     		strh	r3, [r4, #62]	@ movhi
 1321 0052 E368     		ldr	r3, [r4, #12]
 1322 0054 A563     		str	r5, [r4, #56]
 1323 0056 2263     		str	r2, [r4, #48]
 1324 0058 A286     		strh	r2, [r4, #52]	@ movhi
 1325 005a E286     		strh	r2, [r4, #54]	@ movhi
 1326 005c 6264     		str	r2, [r4, #68]
 1327 005e 0BB1     		cbz	r3, .L272
 1328 0060 174B     		ldr	r3, .L282
 1329 0062 00E0     		b	.L281
 1330              	.L272:
 1331 0064 174B     		ldr	r3, .L282+4
 1332              	.L281:
 1333 0066 2364     		str	r3, [r4, #64]
 1334 0068 2368     		ldr	r3, [r4]
 1335 006a B6F5004F 		cmp	r6, #32768
 1336 006e 02BF     		ittt	eq
 1337 0070 1A68     		ldreq	r2, [r3]
 1338 0072 22F48042 		biceq	r2, r2, #16384
 1339 0076 1A60     		streq	r2, [r3]
 1340 0078 A26A     		ldr	r2, [r4, #40]
ARM GAS  /tmp/cczGHsCY.s 			page 24


 1341 007a B2F5005F 		cmp	r2, #8192
 1342 007e 01BF     		itttt	eq
 1343 0080 1A68     		ldreq	r2, [r3]
 1344 0082 22F40052 		biceq	r2, r2, #8192
 1345 0086 1A60     		streq	r2, [r3]
 1346 0088 1A68     		ldreq	r2, [r3]
 1347 008a 04BF     		itt	eq
 1348 008c 42F40052 		orreq	r2, r2, #8192
 1349 0090 1A60     		streq	r2, [r3]
 1350 0092 5A68     		ldr	r2, [r3, #4]
 1351 0094 42F06002 		orr	r2, r2, #96
 1352 0098 5A60     		str	r2, [r3, #4]
 1353 009a 1868     		ldr	r0, [r3]
 1354 009c 10F04000 		ands	r0, r0, #64
 1355 00a0 06D1     		bne	.L280
 1356 00a2 1A68     		ldr	r2, [r3]
 1357 00a4 42F04002 		orr	r2, r2, #64
 1358 00a8 1A60     		str	r2, [r3]
 1359 00aa 02E0     		b	.L271
 1360              	.L277:
 1361 00ac 0220     		movs	r0, #2
 1362 00ae 00E0     		b	.L271
 1363              	.L280:
 1364 00b0 0020     		movs	r0, #0
 1365              	.L271:
 1366 00b2 0023     		movs	r3, #0
 1367 00b4 84F85030 		strb	r3, [r4, #80]
 1368 00b8 70BD     		pop	{r4, r5, r6, pc}
 1369              	.L276:
 1370 00ba 0220     		movs	r0, #2
 1371 00bc 70BD     		pop	{r4, r5, r6, pc}
 1372              	.L283:
 1373 00be 00BF     		.align	2
 1374              	.L282:
 1375 00c0 00000000 		.word	SPI_RxISR_16BIT
 1376 00c4 00000000 		.word	SPI_RxISR_8BIT
 1378              		.section	.text.HAL_SPI_Transmit_DMA,"ax",%progbits
 1379              		.align	1
 1380              		.global	HAL_SPI_Transmit_DMA
 1381              		.thumb
 1382              		.thumb_func
 1384              	HAL_SPI_Transmit_DMA:
 1385              		@ args = 0, pretend = 0, frame = 0
 1386              		@ frame_needed = 0, uses_anonymous_args = 0
 1387 0000 90F85030 		ldrb	r3, [r0, #80]	@ zero_extendqisi2
 1388 0004 10B5     		push	{r4, lr}
 1389 0006 012B     		cmp	r3, #1
 1390 0008 0446     		mov	r4, r0
 1391 000a 62D0     		beq	.L291
 1392 000c 0123     		movs	r3, #1
 1393 000e 80F85030 		strb	r3, [r0, #80]
 1394 0012 90F85100 		ldrb	r0, [r0, #81]	@ zero_extendqisi2
 1395 0016 C0B2     		uxtb	r0, r0
 1396 0018 9842     		cmp	r0, r3
 1397 001a 55D1     		bne	.L292
 1398 001c 0029     		cmp	r1, #0
 1399 001e 54D0     		beq	.L286
ARM GAS  /tmp/cczGHsCY.s 			page 25


 1400 0020 002A     		cmp	r2, #0
 1401 0022 52D0     		beq	.L286
 1402 0024 0323     		movs	r3, #3
 1403 0026 84F85130 		strb	r3, [r4, #81]
 1404 002a 0023     		movs	r3, #0
 1405 002c 6365     		str	r3, [r4, #84]
 1406 002e A363     		str	r3, [r4, #56]
 1407 0030 E286     		strh	r2, [r4, #54]	@ movhi
 1408 0032 6364     		str	r3, [r4, #68]
 1409 0034 E387     		strh	r3, [r4, #62]	@ movhi
 1410 0036 2364     		str	r3, [r4, #64]
 1411 0038 A387     		strh	r3, [r4, #60]	@ movhi
 1412 003a A368     		ldr	r3, [r4, #8]
 1413 003c A286     		strh	r2, [r4, #52]	@ movhi
 1414 003e 2268     		ldr	r2, [r4]
 1415 0040 B3F5004F 		cmp	r3, #32768
 1416 0044 08BF     		it	eq
 1417 0046 1368     		ldreq	r3, [r2]
 1418 0048 2163     		str	r1, [r4, #48]
 1419 004a 04BF     		itt	eq
 1420 004c 43F48043 		orreq	r3, r3, #16384
 1421 0050 1360     		streq	r3, [r2]
 1422 0052 A36A     		ldr	r3, [r4, #40]
 1423 0054 A06C     		ldr	r0, [r4, #72]
 1424 0056 B3F5005F 		cmp	r3, #8192
 1425 005a 08BF     		it	eq
 1426 005c 1368     		ldreq	r3, [r2]
 1427 005e 02F10C02 		add	r2, r2, #12
 1428 0062 01BF     		itttt	eq
 1429 0064 23F40053 		biceq	r3, r3, #8192
 1430 0068 42F80C3C 		streq	r3, [r2, #-12]
 1431 006c 52F80C3C 		ldreq	r3, [r2, #-12]
 1432 0070 43F40053 		orreq	r3, r3, #8192
 1433 0074 08BF     		it	eq
 1434 0076 42F80C3C 		streq	r3, [r2, #-12]
 1435 007a 174B     		ldr	r3, .L295
 1436 007c C362     		str	r3, [r0, #44]
 1437 007e 174B     		ldr	r3, .L295+4
 1438 0080 8362     		str	r3, [r0, #40]
 1439 0082 174B     		ldr	r3, .L295+8
 1440 0084 0363     		str	r3, [r0, #48]
 1441 0086 0023     		movs	r3, #0
 1442 0088 4363     		str	r3, [r0, #52]
 1443 008a E38E     		ldrh	r3, [r4, #54]
 1444 008c 9BB2     		uxth	r3, r3
 1445 008e FFF7FEFF 		bl	HAL_DMA_Start_IT
 1446 0092 38B1     		cbz	r0, .L289
 1447 0094 636D     		ldr	r3, [r4, #84]
 1448 0096 0120     		movs	r0, #1
 1449 0098 43F01003 		orr	r3, r3, #16
 1450 009c 6365     		str	r3, [r4, #84]
 1451 009e 84F85100 		strb	r0, [r4, #81]
 1452 00a2 12E0     		b	.L286
 1453              	.L289:
 1454 00a4 2368     		ldr	r3, [r4]
 1455 00a6 0020     		movs	r0, #0
 1456 00a8 1A68     		ldr	r2, [r3]
ARM GAS  /tmp/cczGHsCY.s 			page 26


 1457 00aa 5206     		lsls	r2, r2, #25
 1458 00ac 5EBF     		ittt	pl
 1459 00ae 1A68     		ldrpl	r2, [r3]
 1460 00b0 42F04002 		orrpl	r2, r2, #64
 1461 00b4 1A60     		strpl	r2, [r3]
 1462 00b6 5A68     		ldr	r2, [r3, #4]
 1463 00b8 42F02002 		orr	r2, r2, #32
 1464 00bc 5A60     		str	r2, [r3, #4]
 1465 00be 5A68     		ldr	r2, [r3, #4]
 1466 00c0 42F00202 		orr	r2, r2, #2
 1467 00c4 5A60     		str	r2, [r3, #4]
 1468 00c6 00E0     		b	.L286
 1469              	.L292:
 1470 00c8 0220     		movs	r0, #2
 1471              	.L286:
 1472 00ca 0023     		movs	r3, #0
 1473 00cc 84F85030 		strb	r3, [r4, #80]
 1474 00d0 10BD     		pop	{r4, pc}
 1475              	.L291:
 1476 00d2 0220     		movs	r0, #2
 1477 00d4 10BD     		pop	{r4, pc}
 1478              	.L296:
 1479 00d6 00BF     		.align	2
 1480              	.L295:
 1481 00d8 00000000 		.word	SPI_DMAHalfTransmitCplt
 1482 00dc 00000000 		.word	SPI_DMATransmitCplt
 1483 00e0 00000000 		.word	SPI_DMAError
 1485              		.section	.text.HAL_SPI_TransmitReceive_DMA,"ax",%progbits
 1486              		.align	1
 1487              		.global	HAL_SPI_TransmitReceive_DMA
 1488              		.thumb
 1489              		.thumb_func
 1491              	HAL_SPI_TransmitReceive_DMA:
 1492              		@ args = 0, pretend = 0, frame = 0
 1493              		@ frame_needed = 0, uses_anonymous_args = 0
 1494 0000 38B5     		push	{r3, r4, r5, lr}
 1495 0002 0446     		mov	r4, r0
 1496 0004 90F85000 		ldrb	r0, [r0, #80]	@ zero_extendqisi2
 1497 0008 0128     		cmp	r0, #1
 1498 000a 00F08380 		beq	.L308
 1499 000e 0120     		movs	r0, #1
 1500 0010 84F85000 		strb	r0, [r4, #80]
 1501 0014 94F85100 		ldrb	r0, [r4, #81]	@ zero_extendqisi2
 1502 0018 6568     		ldr	r5, [r4, #4]
 1503 001a C0B2     		uxtb	r0, r0
 1504 001c 0128     		cmp	r0, #1
 1505 001e 07D0     		beq	.L299
 1506 0020 B5F5827F 		cmp	r5, #260
 1507 0024 6FD1     		bne	.L311
 1508 0026 A568     		ldr	r5, [r4, #8]
 1509 0028 002D     		cmp	r5, #0
 1510 002a 6CD1     		bne	.L311
 1511 002c 0428     		cmp	r0, #4
 1512 002e 6AD1     		bne	.L311
 1513              	.L299:
 1514 0030 0029     		cmp	r1, #0
 1515 0032 6AD0     		beq	.L314
ARM GAS  /tmp/cczGHsCY.s 			page 27


 1516 0034 002A     		cmp	r2, #0
 1517 0036 68D0     		beq	.L314
 1518 0038 002B     		cmp	r3, #0
 1519 003a 66D0     		beq	.L314
 1520 003c 94F85100 		ldrb	r0, [r4, #81]	@ zero_extendqisi2
 1521 0040 A386     		strh	r3, [r4, #52]	@ movhi
 1522 0042 0428     		cmp	r0, #4
 1523 0044 1CBF     		itt	ne
 1524 0046 0520     		movne	r0, #5
 1525 0048 84F85100 		strbne	r0, [r4, #81]
 1526 004c 0020     		movs	r0, #0
 1527 004e 6065     		str	r0, [r4, #84]
 1528 0050 A387     		strh	r3, [r4, #60]	@ movhi
 1529 0052 E386     		strh	r3, [r4, #54]	@ movhi
 1530 0054 E387     		strh	r3, [r4, #62]	@ movhi
 1531 0056 A36A     		ldr	r3, [r4, #40]
 1532 0058 2163     		str	r1, [r4, #48]
 1533 005a 2168     		ldr	r1, [r4]
 1534 005c B3F5005F 		cmp	r3, #8192
 1535 0060 08BF     		it	eq
 1536 0062 0B68     		ldreq	r3, [r1]
 1537 0064 2064     		str	r0, [r4, #64]
 1538 0066 08BF     		it	eq
 1539 0068 23F40053 		biceq	r3, r3, #8192
 1540 006c 6064     		str	r0, [r4, #68]
 1541 006e A263     		str	r2, [r4, #56]
 1542 0070 04BF     		itt	eq
 1543 0072 0B60     		streq	r3, [r1]
 1544 0074 0B68     		ldreq	r3, [r1]
 1545 0076 E06C     		ldr	r0, [r4, #76]
 1546 0078 04BF     		itt	eq
 1547 007a 43F40053 		orreq	r3, r3, #8192
 1548 007e 0B60     		streq	r3, [r1]
 1549 0080 94F85130 		ldrb	r3, [r4, #81]	@ zero_extendqisi2
 1550 0084 0C31     		adds	r1, r1, #12
 1551 0086 042B     		cmp	r3, #4
 1552 0088 0BBF     		itete	eq
 1553 008a 234B     		ldreq	r3, .L323
 1554 008c 234B     		ldrne	r3, .L323+4
 1555 008e C362     		streq	r3, [r0, #44]
 1556 0090 C362     		strne	r3, [r0, #44]
 1557 0092 0CBF     		ite	eq
 1558 0094 224B     		ldreq	r3, .L323+8
 1559 0096 234B     		ldrne	r3, .L323+12
 1560 0098 8362     		str	r3, [r0, #40]
 1561 009a 234B     		ldr	r3, .L323+16
 1562 009c 0363     		str	r3, [r0, #48]
 1563 009e 0023     		movs	r3, #0
 1564 00a0 4363     		str	r3, [r0, #52]
 1565 00a2 E38F     		ldrh	r3, [r4, #62]
 1566 00a4 9BB2     		uxth	r3, r3
 1567 00a6 FFF7FEFF 		bl	HAL_DMA_Start_IT
 1568 00aa 90B9     		cbnz	r0, .L322
 1569 00ac 2268     		ldr	r2, [r4]
 1570 00ae A16C     		ldr	r1, [r4, #72]
 1571 00b0 5368     		ldr	r3, [r2, #4]
 1572 00b2 0C32     		adds	r2, r2, #12
ARM GAS  /tmp/cczGHsCY.s 			page 28


 1573 00b4 43F00103 		orr	r3, r3, #1
 1574 00b8 42F8083C 		str	r3, [r2, #-8]
 1575 00bc E38E     		ldrh	r3, [r4, #54]
 1576 00be C862     		str	r0, [r1, #44]
 1577 00c0 8862     		str	r0, [r1, #40]
 1578 00c2 0863     		str	r0, [r1, #48]
 1579 00c4 4863     		str	r0, [r1, #52]
 1580 00c6 9BB2     		uxth	r3, r3
 1581 00c8 0846     		mov	r0, r1
 1582 00ca 216B     		ldr	r1, [r4, #48]
 1583 00cc FFF7FEFF 		bl	HAL_DMA_Start_IT
 1584 00d0 38B1     		cbz	r0, .L306
 1585              	.L322:
 1586 00d2 636D     		ldr	r3, [r4, #84]
 1587 00d4 0120     		movs	r0, #1
 1588 00d6 43F01003 		orr	r3, r3, #16
 1589 00da 6365     		str	r3, [r4, #84]
 1590 00dc 84F85100 		strb	r0, [r4, #81]
 1591 00e0 14E0     		b	.L300
 1592              	.L306:
 1593 00e2 2368     		ldr	r3, [r4]
 1594 00e4 0020     		movs	r0, #0
 1595 00e6 1A68     		ldr	r2, [r3]
 1596 00e8 5206     		lsls	r2, r2, #25
 1597 00ea 5EBF     		ittt	pl
 1598 00ec 1A68     		ldrpl	r2, [r3]
 1599 00ee 42F04002 		orrpl	r2, r2, #64
 1600 00f2 1A60     		strpl	r2, [r3]
 1601 00f4 5A68     		ldr	r2, [r3, #4]
 1602 00f6 42F02002 		orr	r2, r2, #32
 1603 00fa 5A60     		str	r2, [r3, #4]
 1604 00fc 5A68     		ldr	r2, [r3, #4]
 1605 00fe 42F00202 		orr	r2, r2, #2
 1606 0102 5A60     		str	r2, [r3, #4]
 1607 0104 02E0     		b	.L300
 1608              	.L311:
 1609 0106 0220     		movs	r0, #2
 1610 0108 00E0     		b	.L300
 1611              	.L314:
 1612 010a 0120     		movs	r0, #1
 1613              	.L300:
 1614 010c 0023     		movs	r3, #0
 1615 010e 84F85030 		strb	r3, [r4, #80]
 1616 0112 38BD     		pop	{r3, r4, r5, pc}
 1617              	.L308:
 1618 0114 0220     		movs	r0, #2
 1619 0116 38BD     		pop	{r3, r4, r5, pc}
 1620              	.L324:
 1621              		.align	2
 1622              	.L323:
 1623 0118 00000000 		.word	SPI_DMAHalfReceiveCplt
 1624 011c 00000000 		.word	SPI_DMAHalfTransmitReceiveCplt
 1625 0120 00000000 		.word	SPI_DMAReceiveCplt
 1626 0124 00000000 		.word	SPI_DMATransmitReceiveCplt
 1627 0128 00000000 		.word	SPI_DMAError
 1629              		.section	.text.HAL_SPI_Receive_DMA,"ax",%progbits
 1630              		.align	1
ARM GAS  /tmp/cczGHsCY.s 			page 29


 1631              		.global	HAL_SPI_Receive_DMA
 1632              		.thumb
 1633              		.thumb_func
 1635              	HAL_SPI_Receive_DMA:
 1636              		@ args = 0, pretend = 0, frame = 0
 1637              		@ frame_needed = 0, uses_anonymous_args = 0
 1638 0000 70B5     		push	{r4, r5, r6, lr}
 1639 0002 8668     		ldr	r6, [r0, #8]
 1640 0004 0446     		mov	r4, r0
 1641 0006 0D46     		mov	r5, r1
 1642 0008 1346     		mov	r3, r2
 1643 000a 5EB9     		cbnz	r6, .L326
 1644 000c 4268     		ldr	r2, [r0, #4]
 1645 000e B2F5827F 		cmp	r2, #260
 1646 0012 07D1     		bne	.L326
 1647 0014 0422     		movs	r2, #4
 1648 0016 80F85120 		strb	r2, [r0, #81]
 1649 001a BDE87040 		pop	{r4, r5, r6, lr}
 1650 001e 0A46     		mov	r2, r1
 1651 0020 FFF7FEBF 		b	HAL_SPI_TransmitReceive_DMA
 1652              	.L326:
 1653 0024 94F85020 		ldrb	r2, [r4, #80]	@ zero_extendqisi2
 1654 0028 012A     		cmp	r2, #1
 1655 002a 60D0     		beq	.L333
 1656 002c 94F85100 		ldrb	r0, [r4, #81]	@ zero_extendqisi2
 1657 0030 0122     		movs	r2, #1
 1658 0032 C0B2     		uxtb	r0, r0
 1659 0034 9042     		cmp	r0, r2
 1660 0036 84F85020 		strb	r2, [r4, #80]
 1661 003a 53D1     		bne	.L334
 1662 003c 002D     		cmp	r5, #0
 1663 003e 52D0     		beq	.L328
 1664 0040 002B     		cmp	r3, #0
 1665 0042 50D0     		beq	.L328
 1666 0044 0422     		movs	r2, #4
 1667 0046 84F85120 		strb	r2, [r4, #81]
 1668 004a 2168     		ldr	r1, [r4]
 1669 004c 0022     		movs	r2, #0
 1670 004e 6265     		str	r2, [r4, #84]
 1671 0050 B6F5004F 		cmp	r6, #32768
 1672 0054 E387     		strh	r3, [r4, #62]	@ movhi
 1673 0056 E286     		strh	r2, [r4, #54]	@ movhi
 1674 0058 A387     		strh	r3, [r4, #60]	@ movhi
 1675 005a 08BF     		it	eq
 1676 005c 0B68     		ldreq	r3, [r1]
 1677 005e 2264     		str	r2, [r4, #64]
 1678 0060 08BF     		it	eq
 1679 0062 23F48043 		biceq	r3, r3, #16384
 1680 0066 6264     		str	r2, [r4, #68]
 1681 0068 A286     		strh	r2, [r4, #52]	@ movhi
 1682 006a A563     		str	r5, [r4, #56]
 1683 006c 08BF     		it	eq
 1684 006e 0B60     		streq	r3, [r1]
 1685 0070 A36A     		ldr	r3, [r4, #40]
 1686 0072 E06C     		ldr	r0, [r4, #76]
 1687 0074 B3F5005F 		cmp	r3, #8192
 1688 0078 08BF     		it	eq
ARM GAS  /tmp/cczGHsCY.s 			page 30


 1689 007a 0B68     		ldreq	r3, [r1]
 1690 007c 2A46     		mov	r2, r5
 1691 007e 02BF     		ittt	eq
 1692 0080 23F40053 		biceq	r3, r3, #8192
 1693 0084 0B60     		streq	r3, [r1]
 1694 0086 0B68     		ldreq	r3, [r1]
 1695 0088 01F10C01 		add	r1, r1, #12
 1696 008c 04BF     		itt	eq
 1697 008e 43F40053 		orreq	r3, r3, #8192
 1698 0092 41F80C3C 		streq	r3, [r1, #-12]
 1699 0096 174B     		ldr	r3, .L337
 1700 0098 C362     		str	r3, [r0, #44]
 1701 009a 174B     		ldr	r3, .L337+4
 1702 009c 8362     		str	r3, [r0, #40]
 1703 009e 174B     		ldr	r3, .L337+8
 1704 00a0 0363     		str	r3, [r0, #48]
 1705 00a2 0023     		movs	r3, #0
 1706 00a4 4363     		str	r3, [r0, #52]
 1707 00a6 E38F     		ldrh	r3, [r4, #62]
 1708 00a8 9BB2     		uxth	r3, r3
 1709 00aa FFF7FEFF 		bl	HAL_DMA_Start_IT
 1710 00ae 38B1     		cbz	r0, .L331
 1711 00b0 636D     		ldr	r3, [r4, #84]
 1712 00b2 0120     		movs	r0, #1
 1713 00b4 43F01003 		orr	r3, r3, #16
 1714 00b8 6365     		str	r3, [r4, #84]
 1715 00ba 84F85100 		strb	r0, [r4, #81]
 1716 00be 12E0     		b	.L328
 1717              	.L331:
 1718 00c0 2368     		ldr	r3, [r4]
 1719 00c2 0020     		movs	r0, #0
 1720 00c4 1A68     		ldr	r2, [r3]
 1721 00c6 5206     		lsls	r2, r2, #25
 1722 00c8 5EBF     		ittt	pl
 1723 00ca 1A68     		ldrpl	r2, [r3]
 1724 00cc 42F04002 		orrpl	r2, r2, #64
 1725 00d0 1A60     		strpl	r2, [r3]
 1726 00d2 5A68     		ldr	r2, [r3, #4]
 1727 00d4 42F02002 		orr	r2, r2, #32
 1728 00d8 5A60     		str	r2, [r3, #4]
 1729 00da 5A68     		ldr	r2, [r3, #4]
 1730 00dc 42F00102 		orr	r2, r2, #1
 1731 00e0 5A60     		str	r2, [r3, #4]
 1732 00e2 00E0     		b	.L328
 1733              	.L334:
 1734 00e4 0220     		movs	r0, #2
 1735              	.L328:
 1736 00e6 0023     		movs	r3, #0
 1737 00e8 84F85030 		strb	r3, [r4, #80]
 1738 00ec 70BD     		pop	{r4, r5, r6, pc}
 1739              	.L333:
 1740 00ee 0220     		movs	r0, #2
 1741 00f0 70BD     		pop	{r4, r5, r6, pc}
 1742              	.L338:
 1743 00f2 00BF     		.align	2
 1744              	.L337:
 1745 00f4 00000000 		.word	SPI_DMAHalfReceiveCplt
ARM GAS  /tmp/cczGHsCY.s 			page 31


 1746 00f8 00000000 		.word	SPI_DMAReceiveCplt
 1747 00fc 00000000 		.word	SPI_DMAError
 1749              		.section	.text.HAL_SPI_Abort,"ax",%progbits
 1750              		.align	1
 1751              		.global	HAL_SPI_Abort
 1752              		.thumb
 1753              		.thumb_func
 1755              	HAL_SPI_Abort:
 1756              		@ args = 0, pretend = 0, frame = 16
 1757              		@ frame_needed = 0, uses_anonymous_args = 0
 1758 0000 1FB5     		push	{r0, r1, r2, r3, r4, lr}
 1759 0002 45F6C052 		movw	r2, #24000
 1760 0006 414B     		ldr	r3, .L383
 1761 0008 0446     		mov	r4, r0
 1762 000a 1B68     		ldr	r3, [r3]
 1763 000c B3FBF2F2 		udiv	r2, r3, r2
 1764 0010 6423     		movs	r3, #100
 1765 0012 5343     		muls	r3, r2, r3
 1766 0014 0293     		str	r3, [sp, #8]
 1767 0016 029B     		ldr	r3, [sp, #8]
 1768 0018 0193     		str	r3, [sp, #4]
 1769 001a 0368     		ldr	r3, [r0]
 1770 001c 5A68     		ldr	r2, [r3, #4]
 1771 001e 22F02002 		bic	r2, r2, #32
 1772 0022 5A60     		str	r2, [r3, #4]
 1773 0024 5A68     		ldr	r2, [r3, #4]
 1774 0026 1206     		lsls	r2, r2, #24
 1775 0028 11D5     		bpl	.L340
 1776 002a 394A     		ldr	r2, .L383+4
 1777 002c 4264     		str	r2, [r0, #68]
 1778              	.L343:
 1779 002e 019A     		ldr	r2, [sp, #4]
 1780 0030 22B9     		cbnz	r2, .L341
 1781 0032 626D     		ldr	r2, [r4, #84]
 1782 0034 42F04002 		orr	r2, r2, #64
 1783 0038 6265     		str	r2, [r4, #84]
 1784 003a 06E0     		b	.L342
 1785              	.L341:
 1786 003c 019A     		ldr	r2, [sp, #4]
 1787 003e 013A     		subs	r2, r2, #1
 1788 0040 0192     		str	r2, [sp, #4]
 1789 0042 94F85120 		ldrb	r2, [r4, #81]	@ zero_extendqisi2
 1790 0046 072A     		cmp	r2, #7
 1791 0048 F1D1     		bne	.L343
 1792              	.L342:
 1793 004a 029A     		ldr	r2, [sp, #8]
 1794 004c 0192     		str	r2, [sp, #4]
 1795              	.L340:
 1796 004e 5A68     		ldr	r2, [r3, #4]
 1797 0050 5006     		lsls	r0, r2, #25
 1798 0052 11D5     		bpl	.L344
 1799 0054 2F4A     		ldr	r2, .L383+8
 1800 0056 2264     		str	r2, [r4, #64]
 1801              	.L347:
 1802 0058 019A     		ldr	r2, [sp, #4]
 1803 005a 22B9     		cbnz	r2, .L345
 1804 005c 626D     		ldr	r2, [r4, #84]
ARM GAS  /tmp/cczGHsCY.s 			page 32


 1805 005e 42F04002 		orr	r2, r2, #64
 1806 0062 6265     		str	r2, [r4, #84]
 1807 0064 06E0     		b	.L346
 1808              	.L345:
 1809 0066 019A     		ldr	r2, [sp, #4]
 1810 0068 013A     		subs	r2, r2, #1
 1811 006a 0192     		str	r2, [sp, #4]
 1812 006c 94F85120 		ldrb	r2, [r4, #81]	@ zero_extendqisi2
 1813 0070 072A     		cmp	r2, #7
 1814 0072 F1D1     		bne	.L347
 1815              	.L346:
 1816 0074 029A     		ldr	r2, [sp, #8]
 1817 0076 0192     		str	r2, [sp, #4]
 1818              	.L344:
 1819 0078 5B68     		ldr	r3, [r3, #4]
 1820 007a 9907     		lsls	r1, r3, #30
 1821 007c 1AD5     		bpl	.L349
 1822 007e A06C     		ldr	r0, [r4, #72]
 1823 0080 C0B1     		cbz	r0, .L349
 1824 0082 0023     		movs	r3, #0
 1825 0084 4363     		str	r3, [r0, #52]
 1826 0086 FFF7FEFF 		bl	HAL_DMA_Abort
 1827 008a 08B1     		cbz	r0, .L351
 1828 008c 4023     		movs	r3, #64
 1829 008e 6365     		str	r3, [r4, #84]
 1830              	.L351:
 1831 0090 2368     		ldr	r3, [r4]
 1832 0092 5A68     		ldr	r2, [r3, #4]
 1833 0094 22F00202 		bic	r2, r2, #2
 1834 0098 5A60     		str	r2, [r3, #4]
 1835              	.L353:
 1836 009a 019A     		ldr	r2, [sp, #4]
 1837 009c 22B9     		cbnz	r2, .L352
 1838 009e 636D     		ldr	r3, [r4, #84]
 1839 00a0 43F04003 		orr	r3, r3, #64
 1840 00a4 6365     		str	r3, [r4, #84]
 1841 00a6 05E0     		b	.L349
 1842              	.L352:
 1843 00a8 019A     		ldr	r2, [sp, #4]
 1844 00aa 013A     		subs	r2, r2, #1
 1845 00ac 0192     		str	r2, [sp, #4]
 1846 00ae 9A68     		ldr	r2, [r3, #8]
 1847 00b0 9207     		lsls	r2, r2, #30
 1848 00b2 F2D5     		bpl	.L353
 1849              	.L349:
 1850 00b4 2368     		ldr	r3, [r4]
 1851 00b6 5B68     		ldr	r3, [r3, #4]
 1852 00b8 DB07     		lsls	r3, r3, #31
 1853 00ba 11D5     		bpl	.L354
 1854 00bc E06C     		ldr	r0, [r4, #76]
 1855 00be 78B1     		cbz	r0, .L354
 1856 00c0 0023     		movs	r3, #0
 1857 00c2 4363     		str	r3, [r0, #52]
 1858 00c4 FFF7FEFF 		bl	HAL_DMA_Abort
 1859 00c8 08B1     		cbz	r0, .L355
 1860 00ca 4023     		movs	r3, #64
 1861 00cc 6365     		str	r3, [r4, #84]
ARM GAS  /tmp/cczGHsCY.s 			page 33


 1862              	.L355:
 1863 00ce 2368     		ldr	r3, [r4]
 1864 00d0 1A68     		ldr	r2, [r3]
 1865 00d2 22F04002 		bic	r2, r2, #64
 1866 00d6 1A60     		str	r2, [r3]
 1867 00d8 5A68     		ldr	r2, [r3, #4]
 1868 00da 22F00102 		bic	r2, r2, #1
 1869 00de 5A60     		str	r2, [r3, #4]
 1870              	.L354:
 1871 00e0 0023     		movs	r3, #0
 1872 00e2 E387     		strh	r3, [r4, #62]	@ movhi
 1873 00e4 E386     		strh	r3, [r4, #54]	@ movhi
 1874 00e6 626D     		ldr	r2, [r4, #84]
 1875 00e8 402A     		cmp	r2, #64
 1876 00ea 1CBF     		itt	ne
 1877 00ec 1846     		movne	r0, r3
 1878 00ee 6365     		strne	r3, [r4, #84]
 1879 00f0 0393     		str	r3, [sp, #12]
 1880 00f2 2368     		ldr	r3, [r4]
 1881 00f4 08BF     		it	eq
 1882 00f6 0120     		moveq	r0, #1
 1883 00f8 DA68     		ldr	r2, [r3, #12]
 1884 00fa 0392     		str	r2, [sp, #12]
 1885 00fc 9B68     		ldr	r3, [r3, #8]
 1886 00fe 0393     		str	r3, [sp, #12]
 1887 0100 039B     		ldr	r3, [sp, #12]
 1888 0102 0123     		movs	r3, #1
 1889 0104 84F85130 		strb	r3, [r4, #81]
 1890 0108 04B0     		add	sp, sp, #16
 1891              		@ sp needed
 1892 010a 10BD     		pop	{r4, pc}
 1893              	.L384:
 1894              		.align	2
 1895              	.L383:
 1896 010c 00000000 		.word	SystemCoreClock
 1897 0110 00000000 		.word	SPI_AbortTx_ISR
 1898 0114 00000000 		.word	SPI_AbortRx_ISR
 1900              		.section	.text.HAL_SPI_DMAPause,"ax",%progbits
 1901              		.align	1
 1902              		.global	HAL_SPI_DMAPause
 1903              		.thumb
 1904              		.thumb_func
 1906              	HAL_SPI_DMAPause:
 1907              		@ args = 0, pretend = 0, frame = 0
 1908              		@ frame_needed = 0, uses_anonymous_args = 0
 1909              		@ link register save eliminated.
 1910 0000 90F85030 		ldrb	r3, [r0, #80]	@ zero_extendqisi2
 1911 0004 012B     		cmp	r3, #1
 1912 0006 1FBF     		itttt	ne
 1913 0008 0268     		ldrne	r2, [r0]
 1914 000a 5368     		ldrne	r3, [r2, #4]
 1915 000c 23F00303 		bicne	r3, r3, #3
 1916 0010 5360     		strne	r3, [r2, #4]
 1917 0012 1DBF     		ittte	ne
 1918 0014 0023     		movne	r3, #0
 1919 0016 80F85030 		strbne	r3, [r0, #80]
 1920 001a 1846     		movne	r0, r3
ARM GAS  /tmp/cczGHsCY.s 			page 34


 1921 001c 0220     		moveq	r0, #2
 1922 001e 7047     		bx	lr
 1924              		.section	.text.HAL_SPI_DMAResume,"ax",%progbits
 1925              		.align	1
 1926              		.global	HAL_SPI_DMAResume
 1927              		.thumb
 1928              		.thumb_func
 1930              	HAL_SPI_DMAResume:
 1931              		@ args = 0, pretend = 0, frame = 0
 1932              		@ frame_needed = 0, uses_anonymous_args = 0
 1933              		@ link register save eliminated.
 1934 0000 90F85030 		ldrb	r3, [r0, #80]	@ zero_extendqisi2
 1935 0004 012B     		cmp	r3, #1
 1936 0006 1FBF     		itttt	ne
 1937 0008 0268     		ldrne	r2, [r0]
 1938 000a 5368     		ldrne	r3, [r2, #4]
 1939 000c 43F00303 		orrne	r3, r3, #3
 1940 0010 5360     		strne	r3, [r2, #4]
 1941 0012 1DBF     		ittte	ne
 1942 0014 0023     		movne	r3, #0
 1943 0016 80F85030 		strbne	r3, [r0, #80]
 1944 001a 1846     		movne	r0, r3
 1945 001c 0220     		moveq	r0, #2
 1946 001e 7047     		bx	lr
 1948              		.section	.text.HAL_SPI_DMAStop,"ax",%progbits
 1949              		.align	1
 1950              		.global	HAL_SPI_DMAStop
 1951              		.thumb
 1952              		.thumb_func
 1954              	HAL_SPI_DMAStop:
 1955              		@ args = 0, pretend = 0, frame = 0
 1956              		@ frame_needed = 0, uses_anonymous_args = 0
 1957 0000 38B5     		push	{r3, r4, r5, lr}
 1958 0002 0446     		mov	r4, r0
 1959 0004 806C     		ldr	r0, [r0, #72]
 1960 0006 08B9     		cbnz	r0, .L392
 1961              	.L394:
 1962 0008 0025     		movs	r5, #0
 1963 000a 08E0     		b	.L393
 1964              	.L392:
 1965 000c FFF7FEFF 		bl	HAL_DMA_Abort
 1966 0010 0028     		cmp	r0, #0
 1967 0012 F9D0     		beq	.L394
 1968 0014 636D     		ldr	r3, [r4, #84]
 1969 0016 0125     		movs	r5, #1
 1970 0018 43F01003 		orr	r3, r3, #16
 1971 001c 6365     		str	r3, [r4, #84]
 1972              	.L393:
 1973 001e E06C     		ldr	r0, [r4, #76]
 1974 0020 38B1     		cbz	r0, .L395
 1975 0022 FFF7FEFF 		bl	HAL_DMA_Abort
 1976 0026 20B1     		cbz	r0, .L395
 1977 0028 636D     		ldr	r3, [r4, #84]
 1978 002a 0125     		movs	r5, #1
 1979 002c 43F01003 		orr	r3, r3, #16
 1980 0030 6365     		str	r3, [r4, #84]
 1981              	.L395:
ARM GAS  /tmp/cczGHsCY.s 			page 35


 1982 0032 2268     		ldr	r2, [r4]
 1983 0034 2846     		mov	r0, r5
 1984 0036 5368     		ldr	r3, [r2, #4]
 1985 0038 23F00303 		bic	r3, r3, #3
 1986 003c 5360     		str	r3, [r2, #4]
 1987 003e 0123     		movs	r3, #1
 1988 0040 84F85130 		strb	r3, [r4, #81]
 1989 0044 38BD     		pop	{r3, r4, r5, pc}
 1991              		.section	.text.HAL_SPI_TxCpltCallback,"ax",%progbits
 1992              		.align	1
 1993              		.weak	HAL_SPI_TxCpltCallback
 1994              		.thumb
 1995              		.thumb_func
 1997              	HAL_SPI_TxCpltCallback:
 1998              		@ args = 0, pretend = 0, frame = 0
 1999              		@ frame_needed = 0, uses_anonymous_args = 0
 2000              		@ link register save eliminated.
 2001 0000 7047     		bx	lr
 2003              		.section	.text.HAL_SPI_RxCpltCallback,"ax",%progbits
 2004              		.align	1
 2005              		.weak	HAL_SPI_RxCpltCallback
 2006              		.thumb
 2007              		.thumb_func
 2009              	HAL_SPI_RxCpltCallback:
 2010              		@ args = 0, pretend = 0, frame = 0
 2011              		@ frame_needed = 0, uses_anonymous_args = 0
 2012              		@ link register save eliminated.
 2013 0000 7047     		bx	lr
 2015              		.section	.text.HAL_SPI_TxRxCpltCallback,"ax",%progbits
 2016              		.align	1
 2017              		.weak	HAL_SPI_TxRxCpltCallback
 2018              		.thumb
 2019              		.thumb_func
 2021              	HAL_SPI_TxRxCpltCallback:
 2022              		@ args = 0, pretend = 0, frame = 0
 2023              		@ frame_needed = 0, uses_anonymous_args = 0
 2024              		@ link register save eliminated.
 2025 0000 7047     		bx	lr
 2027              		.section	.text.HAL_SPI_TxHalfCpltCallback,"ax",%progbits
 2028              		.align	1
 2029              		.weak	HAL_SPI_TxHalfCpltCallback
 2030              		.thumb
 2031              		.thumb_func
 2033              	HAL_SPI_TxHalfCpltCallback:
 2034              		@ args = 0, pretend = 0, frame = 0
 2035              		@ frame_needed = 0, uses_anonymous_args = 0
 2036              		@ link register save eliminated.
 2037 0000 7047     		bx	lr
 2039              		.section	.text.SPI_DMAHalfTransmitCplt,"ax",%progbits
 2040              		.align	1
 2041              		.thumb
 2042              		.thumb_func
 2044              	SPI_DMAHalfTransmitCplt:
 2045              		@ args = 0, pretend = 0, frame = 0
 2046              		@ frame_needed = 0, uses_anonymous_args = 0
 2047 0000 08B5     		push	{r3, lr}
 2048 0002 406A     		ldr	r0, [r0, #36]
ARM GAS  /tmp/cczGHsCY.s 			page 36


 2049 0004 FFF7FEFF 		bl	HAL_SPI_TxHalfCpltCallback
 2050 0008 08BD     		pop	{r3, pc}
 2052              		.section	.text.HAL_SPI_RxHalfCpltCallback,"ax",%progbits
 2053              		.align	1
 2054              		.weak	HAL_SPI_RxHalfCpltCallback
 2055              		.thumb
 2056              		.thumb_func
 2058              	HAL_SPI_RxHalfCpltCallback:
 2059              		@ args = 0, pretend = 0, frame = 0
 2060              		@ frame_needed = 0, uses_anonymous_args = 0
 2061              		@ link register save eliminated.
 2062 0000 7047     		bx	lr
 2064              		.section	.text.SPI_DMAHalfReceiveCplt,"ax",%progbits
 2065              		.align	1
 2066              		.thumb
 2067              		.thumb_func
 2069              	SPI_DMAHalfReceiveCplt:
 2070              		@ args = 0, pretend = 0, frame = 0
 2071              		@ frame_needed = 0, uses_anonymous_args = 0
 2072 0000 08B5     		push	{r3, lr}
 2073 0002 406A     		ldr	r0, [r0, #36]
 2074 0004 FFF7FEFF 		bl	HAL_SPI_RxHalfCpltCallback
 2075 0008 08BD     		pop	{r3, pc}
 2077              		.section	.text.HAL_SPI_TxRxHalfCpltCallback,"ax",%progbits
 2078              		.align	1
 2079              		.weak	HAL_SPI_TxRxHalfCpltCallback
 2080              		.thumb
 2081              		.thumb_func
 2083              	HAL_SPI_TxRxHalfCpltCallback:
 2084              		@ args = 0, pretend = 0, frame = 0
 2085              		@ frame_needed = 0, uses_anonymous_args = 0
 2086              		@ link register save eliminated.
 2087 0000 7047     		bx	lr
 2089              		.section	.text.SPI_DMAHalfTransmitReceiveCplt,"ax",%progbits
 2090              		.align	1
 2091              		.thumb
 2092              		.thumb_func
 2094              	SPI_DMAHalfTransmitReceiveCplt:
 2095              		@ args = 0, pretend = 0, frame = 0
 2096              		@ frame_needed = 0, uses_anonymous_args = 0
 2097 0000 08B5     		push	{r3, lr}
 2098 0002 406A     		ldr	r0, [r0, #36]
 2099 0004 FFF7FEFF 		bl	HAL_SPI_TxRxHalfCpltCallback
 2100 0008 08BD     		pop	{r3, pc}
 2102              		.section	.text.HAL_SPI_ErrorCallback,"ax",%progbits
 2103              		.align	1
 2104              		.weak	HAL_SPI_ErrorCallback
 2105              		.thumb
 2106              		.thumb_func
 2108              	HAL_SPI_ErrorCallback:
 2109              		@ args = 0, pretend = 0, frame = 0
 2110              		@ frame_needed = 0, uses_anonymous_args = 0
 2111              		@ link register save eliminated.
 2112 0000 7047     		bx	lr
 2114              		.section	.text.SPI_CloseTx_ISR,"ax",%progbits
 2115              		.align	1
 2116              		.thumb
ARM GAS  /tmp/cczGHsCY.s 			page 37


 2117              		.thumb_func
 2119              	SPI_CloseTx_ISR:
 2120              		@ args = 0, pretend = 0, frame = 8
 2121              		@ frame_needed = 0, uses_anonymous_args = 0
 2122 0000 45F6C052 		movw	r2, #24000
 2123 0004 1E4B     		ldr	r3, .L428
 2124 0006 13B5     		push	{r0, r1, r4, lr}
 2125 0008 1B68     		ldr	r3, [r3]
 2126 000a 0446     		mov	r4, r0
 2127 000c B3FBF2F2 		udiv	r2, r3, r2
 2128 0010 6423     		movs	r3, #100
 2129 0012 5343     		muls	r3, r2, r3
 2130 0014 0093     		str	r3, [sp]
 2131 0016 FFF7FEFF 		bl	HAL_GetTick
 2132 001a 0246     		mov	r2, r0
 2133              	.L418:
 2134 001c 0099     		ldr	r1, [sp]
 2135 001e 2368     		ldr	r3, [r4]
 2136 0020 21B9     		cbnz	r1, .L416
 2137 0022 616D     		ldr	r1, [r4, #84]
 2138 0024 41F02001 		orr	r1, r1, #32
 2139 0028 6165     		str	r1, [r4, #84]
 2140 002a 05E0     		b	.L417
 2141              	.L416:
 2142 002c 0099     		ldr	r1, [sp]
 2143 002e 0139     		subs	r1, r1, #1
 2144 0030 0091     		str	r1, [sp]
 2145 0032 9968     		ldr	r1, [r3, #8]
 2146 0034 8907     		lsls	r1, r1, #30
 2147 0036 F1D5     		bpl	.L418
 2148              	.L417:
 2149 0038 5968     		ldr	r1, [r3, #4]
 2150 003a 2046     		mov	r0, r4
 2151 003c 21F0A001 		bic	r1, r1, #160
 2152 0040 5960     		str	r1, [r3, #4]
 2153 0042 6421     		movs	r1, #100
 2154 0044 FFF7FEFF 		bl	SPI_EndRxTxTransaction
 2155 0048 18B1     		cbz	r0, .L419
 2156 004a 636D     		ldr	r3, [r4, #84]
 2157 004c 43F02003 		orr	r3, r3, #32
 2158 0050 6365     		str	r3, [r4, #84]
 2159              	.L419:
 2160 0052 A368     		ldr	r3, [r4, #8]
 2161 0054 33B9     		cbnz	r3, .L420
 2162 0056 0193     		str	r3, [sp, #4]
 2163 0058 2368     		ldr	r3, [r4]
 2164 005a DA68     		ldr	r2, [r3, #12]
 2165 005c 0192     		str	r2, [sp, #4]
 2166 005e 9B68     		ldr	r3, [r3, #8]
 2167 0060 0193     		str	r3, [sp, #4]
 2168 0062 019B     		ldr	r3, [sp, #4]
 2169              	.L420:
 2170 0064 0123     		movs	r3, #1
 2171 0066 84F85130 		strb	r3, [r4, #81]
 2172 006a 636D     		ldr	r3, [r4, #84]
 2173 006c 2046     		mov	r0, r4
 2174 006e 13B1     		cbz	r3, .L421
ARM GAS  /tmp/cczGHsCY.s 			page 38


 2175 0070 FFF7FEFF 		bl	HAL_SPI_ErrorCallback
 2176 0074 01E0     		b	.L415
 2177              	.L421:
 2178 0076 FFF7FEFF 		bl	HAL_SPI_TxCpltCallback
 2179              	.L415:
 2180 007a 02B0     		add	sp, sp, #8
 2181              		@ sp needed
 2182 007c 10BD     		pop	{r4, pc}
 2183              	.L429:
 2184 007e 00BF     		.align	2
 2185              	.L428:
 2186 0080 00000000 		.word	SystemCoreClock
 2188              		.section	.text.SPI_TxISR_8BIT,"ax",%progbits
 2189              		.align	1
 2190              		.thumb
 2191              		.thumb_func
 2193              	SPI_TxISR_8BIT:
 2194              		@ args = 0, pretend = 0, frame = 0
 2195              		@ frame_needed = 0, uses_anonymous_args = 0
 2196              		@ link register save eliminated.
 2197 0000 026B     		ldr	r2, [r0, #48]
 2198 0002 0368     		ldr	r3, [r0]
 2199 0004 1278     		ldrb	r2, [r2]	@ zero_extendqisi2
 2200 0006 1A73     		strb	r2, [r3, #12]
 2201 0008 036B     		ldr	r3, [r0, #48]
 2202 000a 0133     		adds	r3, r3, #1
 2203 000c 0363     		str	r3, [r0, #48]
 2204 000e C38E     		ldrh	r3, [r0, #54]
 2205 0010 013B     		subs	r3, r3, #1
 2206 0012 9BB2     		uxth	r3, r3
 2207 0014 C386     		strh	r3, [r0, #54]	@ movhi
 2208 0016 C38E     		ldrh	r3, [r0, #54]
 2209 0018 9BB2     		uxth	r3, r3
 2210 001a 53B9     		cbnz	r3, .L430
 2211 001c 836A     		ldr	r3, [r0, #40]
 2212 001e B3F5005F 		cmp	r3, #8192
 2213 0022 01BF     		itttt	eq
 2214 0024 0268     		ldreq	r2, [r0]
 2215 0026 1368     		ldreq	r3, [r2]
 2216 0028 43F48053 		orreq	r3, r3, #4096
 2217 002c 1360     		streq	r3, [r2]
 2218 002e FFF7FEBF 		b	SPI_CloseTx_ISR
 2219              	.L430:
 2220 0032 7047     		bx	lr
 2222              		.section	.text.SPI_TxISR_16BIT,"ax",%progbits
 2223              		.align	1
 2224              		.thumb
 2225              		.thumb_func
 2227              	SPI_TxISR_16BIT:
 2228              		@ args = 0, pretend = 0, frame = 0
 2229              		@ frame_needed = 0, uses_anonymous_args = 0
 2230              		@ link register save eliminated.
 2231 0000 036B     		ldr	r3, [r0, #48]
 2232 0002 0268     		ldr	r2, [r0]
 2233 0004 33F8021B 		ldrh	r1, [r3], #2
 2234 0008 D160     		str	r1, [r2, #12]
 2235 000a 0363     		str	r3, [r0, #48]
ARM GAS  /tmp/cczGHsCY.s 			page 39


 2236 000c C38E     		ldrh	r3, [r0, #54]
 2237 000e 013B     		subs	r3, r3, #1
 2238 0010 9BB2     		uxth	r3, r3
 2239 0012 C386     		strh	r3, [r0, #54]	@ movhi
 2240 0014 C38E     		ldrh	r3, [r0, #54]
 2241 0016 9BB2     		uxth	r3, r3
 2242 0018 4BB9     		cbnz	r3, .L433
 2243 001a 836A     		ldr	r3, [r0, #40]
 2244 001c B3F5005F 		cmp	r3, #8192
 2245 0020 02BF     		ittt	eq
 2246 0022 1368     		ldreq	r3, [r2]
 2247 0024 43F48053 		orreq	r3, r3, #4096
 2248 0028 1360     		streq	r3, [r2]
 2249 002a FFF7FEBF 		b	SPI_CloseTx_ISR
 2250              	.L433:
 2251 002e 7047     		bx	lr
 2253              		.section	.text.SPI_DMAError,"ax",%progbits
 2254              		.align	1
 2255              		.thumb
 2256              		.thumb_func
 2258              	SPI_DMAError:
 2259              		@ args = 0, pretend = 0, frame = 0
 2260              		@ frame_needed = 0, uses_anonymous_args = 0
 2261 0000 406A     		ldr	r0, [r0, #36]
 2262 0002 08B5     		push	{r3, lr}
 2263 0004 0268     		ldr	r2, [r0]
 2264 0006 5368     		ldr	r3, [r2, #4]
 2265 0008 23F00303 		bic	r3, r3, #3
 2266 000c 5360     		str	r3, [r2, #4]
 2267 000e 436D     		ldr	r3, [r0, #84]
 2268 0010 43F01003 		orr	r3, r3, #16
 2269 0014 4365     		str	r3, [r0, #84]
 2270 0016 0123     		movs	r3, #1
 2271 0018 80F85130 		strb	r3, [r0, #81]
 2272 001c FFF7FEFF 		bl	HAL_SPI_ErrorCallback
 2273 0020 08BD     		pop	{r3, pc}
 2275              		.section	.text.SPI_DMATransmitCplt,"ax",%progbits
 2276              		.align	1
 2277              		.thumb
 2278              		.thumb_func
 2280              	SPI_DMATransmitCplt:
 2281              		@ args = 0, pretend = 0, frame = 8
 2282              		@ frame_needed = 0, uses_anonymous_args = 0
 2283 0000 37B5     		push	{r0, r1, r2, r4, r5, lr}
 2284 0002 0546     		mov	r5, r0
 2285 0004 446A     		ldr	r4, [r0, #36]
 2286 0006 FFF7FEFF 		bl	HAL_GetTick
 2287 000a 2B68     		ldr	r3, [r5]
 2288 000c 0246     		mov	r2, r0
 2289 000e 1B68     		ldr	r3, [r3]
 2290 0010 9B06     		lsls	r3, r3, #26
 2291 0012 25D4     		bmi	.L438
 2292 0014 2368     		ldr	r3, [r4]
 2293 0016 2046     		mov	r0, r4
 2294 0018 5968     		ldr	r1, [r3, #4]
 2295 001a 21F02001 		bic	r1, r1, #32
 2296 001e 5960     		str	r1, [r3, #4]
ARM GAS  /tmp/cczGHsCY.s 			page 40


 2297 0020 5968     		ldr	r1, [r3, #4]
 2298 0022 21F00201 		bic	r1, r1, #2
 2299 0026 5960     		str	r1, [r3, #4]
 2300 0028 6421     		movs	r1, #100
 2301 002a FFF7FEFF 		bl	SPI_EndRxTxTransaction
 2302 002e 18B1     		cbz	r0, .L439
 2303 0030 636D     		ldr	r3, [r4, #84]
 2304 0032 43F02003 		orr	r3, r3, #32
 2305 0036 6365     		str	r3, [r4, #84]
 2306              	.L439:
 2307 0038 A368     		ldr	r3, [r4, #8]
 2308 003a 33B9     		cbnz	r3, .L440
 2309 003c 0193     		str	r3, [sp, #4]
 2310 003e 2368     		ldr	r3, [r4]
 2311 0040 DA68     		ldr	r2, [r3, #12]
 2312 0042 0192     		str	r2, [sp, #4]
 2313 0044 9B68     		ldr	r3, [r3, #8]
 2314 0046 0193     		str	r3, [sp, #4]
 2315 0048 019B     		ldr	r3, [sp, #4]
 2316              	.L440:
 2317 004a 0023     		movs	r3, #0
 2318 004c E386     		strh	r3, [r4, #54]	@ movhi
 2319 004e 0123     		movs	r3, #1
 2320 0050 84F85130 		strb	r3, [r4, #81]
 2321 0054 636D     		ldr	r3, [r4, #84]
 2322 0056 1BB1     		cbz	r3, .L438
 2323 0058 2046     		mov	r0, r4
 2324 005a FFF7FEFF 		bl	HAL_SPI_ErrorCallback
 2325 005e 02E0     		b	.L437
 2326              	.L438:
 2327 0060 2046     		mov	r0, r4
 2328 0062 FFF7FEFF 		bl	HAL_SPI_TxCpltCallback
 2329              	.L437:
 2330 0066 03B0     		add	sp, sp, #12
 2331              		@ sp needed
 2332 0068 30BD     		pop	{r4, r5, pc}
 2334              		.section	.text.HAL_SPI_IRQHandler,"ax",%progbits
 2335              		.align	1
 2336              		.global	HAL_SPI_IRQHandler
 2337              		.thumb
 2338              		.thumb_func
 2340              	HAL_SPI_IRQHandler:
 2341              		@ args = 0, pretend = 0, frame = 16
 2342              		@ frame_needed = 0, uses_anonymous_args = 0
 2343 0000 0368     		ldr	r3, [r0]
 2344 0002 30B5     		push	{r4, r5, lr}
 2345 0004 5968     		ldr	r1, [r3, #4]
 2346 0006 9A68     		ldr	r2, [r3, #8]
 2347 0008 85B0     		sub	sp, sp, #20
 2348 000a 02F04105 		and	r5, r2, #65
 2349 000e 012D     		cmp	r5, #1
 2350 0010 0446     		mov	r4, r0
 2351 0012 03D1     		bne	.L449
 2352 0014 4D06     		lsls	r5, r1, #25
 2353 0016 01D5     		bpl	.L449
 2354 0018 036C     		ldr	r3, [r0, #64]
 2355 001a 05E0     		b	.L491
ARM GAS  /tmp/cczGHsCY.s 			page 41


 2356              	.L449:
 2357 001c 9007     		lsls	r0, r2, #30
 2358 001e 05D5     		bpl	.L451
 2359 0020 0D06     		lsls	r5, r1, #24
 2360 0022 03D5     		bpl	.L451
 2361 0024 2046     		mov	r0, r4
 2362 0026 636C     		ldr	r3, [r4, #68]
 2363              	.L491:
 2364 0028 9847     		blx	r3
 2365 002a 55E0     		b	.L448
 2366              	.L451:
 2367 002c 12F0600F 		tst	r2, #96
 2368 0030 52D0     		beq	.L448
 2369 0032 8806     		lsls	r0, r1, #26
 2370 0034 50D5     		bpl	.L448
 2371 0036 5506     		lsls	r5, r2, #25
 2372 0038 16D5     		bpl	.L454
 2373 003a 94F85100 		ldrb	r0, [r4, #81]	@ zero_extendqisi2
 2374 003e 0025     		movs	r5, #0
 2375 0040 0328     		cmp	r0, #3
 2376 0042 0AD0     		beq	.L455
 2377 0044 606D     		ldr	r0, [r4, #84]
 2378 0046 40F00400 		orr	r0, r0, #4
 2379 004a 6065     		str	r0, [r4, #84]
 2380 004c 0195     		str	r5, [sp, #4]
 2381 004e D868     		ldr	r0, [r3, #12]
 2382 0050 0190     		str	r0, [sp, #4]
 2383 0052 9868     		ldr	r0, [r3, #8]
 2384 0054 0190     		str	r0, [sp, #4]
 2385 0056 0198     		ldr	r0, [sp, #4]
 2386 0058 06E0     		b	.L454
 2387              	.L455:
 2388 005a 0295     		str	r5, [sp, #8]
 2389 005c DA68     		ldr	r2, [r3, #12]
 2390 005e 0292     		str	r2, [sp, #8]
 2391 0060 9B68     		ldr	r3, [r3, #8]
 2392 0062 0293     		str	r3, [sp, #8]
 2393 0064 029B     		ldr	r3, [sp, #8]
 2394 0066 37E0     		b	.L448
 2395              	.L454:
 2396 0068 9006     		lsls	r0, r2, #26
 2397 006a 0CD5     		bpl	.L456
 2398 006c 626D     		ldr	r2, [r4, #84]
 2399 006e 42F00102 		orr	r2, r2, #1
 2400 0072 6265     		str	r2, [r4, #84]
 2401 0074 0022     		movs	r2, #0
 2402 0076 0392     		str	r2, [sp, #12]
 2403 0078 9A68     		ldr	r2, [r3, #8]
 2404 007a 0392     		str	r2, [sp, #12]
 2405 007c 1A68     		ldr	r2, [r3]
 2406 007e 22F04002 		bic	r2, r2, #64
 2407 0082 1A60     		str	r2, [r3]
 2408 0084 039A     		ldr	r2, [sp, #12]
 2409              	.L456:
 2410 0086 626D     		ldr	r2, [r4, #84]
 2411 0088 32B3     		cbz	r2, .L448
 2412 008a 5A68     		ldr	r2, [r3, #4]
ARM GAS  /tmp/cczGHsCY.s 			page 42


 2413 008c 22F0E002 		bic	r2, r2, #224
 2414 0090 5A60     		str	r2, [r3, #4]
 2415 0092 0122     		movs	r2, #1
 2416 0094 84F85120 		strb	r2, [r4, #81]
 2417 0098 8A07     		lsls	r2, r1, #30
 2418 009a 1AD0     		beq	.L457
 2419 009c 5A68     		ldr	r2, [r3, #4]
 2420 009e E06C     		ldr	r0, [r4, #76]
 2421 00a0 22F00302 		bic	r2, r2, #3
 2422 00a4 5A60     		str	r2, [r3, #4]
 2423 00a6 40B1     		cbz	r0, .L459
 2424 00a8 0C4B     		ldr	r3, .L492
 2425 00aa 4363     		str	r3, [r0, #52]
 2426 00ac FFF7FEFF 		bl	HAL_DMA_Abort_IT
 2427 00b0 18B1     		cbz	r0, .L459
 2428 00b2 636D     		ldr	r3, [r4, #84]
 2429 00b4 43F04003 		orr	r3, r3, #64
 2430 00b8 6365     		str	r3, [r4, #84]
 2431              	.L459:
 2432 00ba A06C     		ldr	r0, [r4, #72]
 2433 00bc 60B1     		cbz	r0, .L448
 2434 00be 074B     		ldr	r3, .L492
 2435 00c0 4363     		str	r3, [r0, #52]
 2436 00c2 FFF7FEFF 		bl	HAL_DMA_Abort_IT
 2437 00c6 38B1     		cbz	r0, .L448
 2438 00c8 636D     		ldr	r3, [r4, #84]
 2439 00ca 43F04003 		orr	r3, r3, #64
 2440 00ce 6365     		str	r3, [r4, #84]
 2441 00d0 02E0     		b	.L448
 2442              	.L457:
 2443 00d2 2046     		mov	r0, r4
 2444 00d4 FFF7FEFF 		bl	HAL_SPI_ErrorCallback
 2445              	.L448:
 2446 00d8 05B0     		add	sp, sp, #20
 2447              		@ sp needed
 2448 00da 30BD     		pop	{r4, r5, pc}
 2449              	.L493:
 2450              		.align	2
 2451              	.L492:
 2452 00dc 00000000 		.word	SPI_DMAAbortOnError
 2454              		.section	.text.SPI_DMAAbortOnError,"ax",%progbits
 2455              		.align	1
 2456              		.thumb
 2457              		.thumb_func
 2459              	SPI_DMAAbortOnError:
 2460              		@ args = 0, pretend = 0, frame = 0
 2461              		@ frame_needed = 0, uses_anonymous_args = 0
 2462 0000 08B5     		push	{r3, lr}
 2463 0002 406A     		ldr	r0, [r0, #36]
 2464 0004 0023     		movs	r3, #0
 2465 0006 C387     		strh	r3, [r0, #62]	@ movhi
 2466 0008 C386     		strh	r3, [r0, #54]	@ movhi
 2467 000a FFF7FEFF 		bl	HAL_SPI_ErrorCallback
 2468 000e 08BD     		pop	{r3, pc}
 2470              		.section	.text.SPI_CloseRx_ISR,"ax",%progbits
 2471              		.align	1
 2472              		.thumb
ARM GAS  /tmp/cczGHsCY.s 			page 43


 2473              		.thumb_func
 2475              	SPI_CloseRx_ISR:
 2476              		@ args = 0, pretend = 0, frame = 8
 2477              		@ frame_needed = 0, uses_anonymous_args = 0
 2478 0000 0268     		ldr	r2, [r0]
 2479 0002 13B5     		push	{r0, r1, r4, lr}
 2480 0004 5368     		ldr	r3, [r2, #4]
 2481 0006 0446     		mov	r4, r0
 2482 0008 23F06003 		bic	r3, r3, #96
 2483 000c 5360     		str	r3, [r2, #4]
 2484 000e FFF7FEFF 		bl	HAL_GetTick
 2485 0012 6421     		movs	r1, #100
 2486 0014 0246     		mov	r2, r0
 2487 0016 2046     		mov	r0, r4
 2488 0018 FFF7FEFF 		bl	SPI_EndRxTransaction
 2489 001c 18B1     		cbz	r0, .L496
 2490 001e 636D     		ldr	r3, [r4, #84]
 2491 0020 43F02003 		orr	r3, r3, #32
 2492 0024 6365     		str	r3, [r4, #84]
 2493              	.L496:
 2494 0026 A268     		ldr	r2, [r4, #8]
 2495 0028 2368     		ldr	r3, [r4]
 2496 002a 2AB9     		cbnz	r2, .L497
 2497 002c 0192     		str	r2, [sp, #4]
 2498 002e DA68     		ldr	r2, [r3, #12]
 2499 0030 0192     		str	r2, [sp, #4]
 2500 0032 9A68     		ldr	r2, [r3, #8]
 2501 0034 0192     		str	r2, [sp, #4]
 2502 0036 019A     		ldr	r2, [sp, #4]
 2503              	.L497:
 2504 0038 0122     		movs	r2, #1
 2505 003a 84F85120 		strb	r2, [r4, #81]
 2506 003e 9A68     		ldr	r2, [r3, #8]
 2507 0040 D206     		lsls	r2, r2, #27
 2508 0042 0DD5     		bpl	.L498
 2509 0044 626D     		ldr	r2, [r4, #84]
 2510 0046 2046     		mov	r0, r4
 2511 0048 42F00202 		orr	r2, r2, #2
 2512 004c 6265     		str	r2, [r4, #84]
 2513 004e 1A68     		ldr	r2, [r3]
 2514 0050 22F40052 		bic	r2, r2, #8192
 2515 0054 1A60     		str	r2, [r3]
 2516 0056 1A68     		ldr	r2, [r3]
 2517 0058 42F40052 		orr	r2, r2, #8192
 2518 005c 1A60     		str	r2, [r3]
 2519 005e 05E0     		b	.L500
 2520              	.L498:
 2521 0060 636D     		ldr	r3, [r4, #84]
 2522 0062 2046     		mov	r0, r4
 2523 0064 13B9     		cbnz	r3, .L500
 2524 0066 FFF7FEFF 		bl	HAL_SPI_RxCpltCallback
 2525 006a 01E0     		b	.L495
 2526              	.L500:
 2527 006c FFF7FEFF 		bl	HAL_SPI_ErrorCallback
 2528              	.L495:
 2529 0070 02B0     		add	sp, sp, #8
 2530              		@ sp needed
ARM GAS  /tmp/cczGHsCY.s 			page 44


 2531 0072 10BD     		pop	{r4, pc}
 2533              		.section	.text.SPI_RxISR_8BIT,"ax",%progbits
 2534              		.align	1
 2535              		.thumb
 2536              		.thumb_func
 2538              	SPI_RxISR_8BIT:
 2539              		@ args = 0, pretend = 0, frame = 0
 2540              		@ frame_needed = 0, uses_anonymous_args = 0
 2541              		@ link register save eliminated.
 2542 0000 0268     		ldr	r2, [r0]
 2543 0002 836B     		ldr	r3, [r0, #56]
 2544 0004 127B     		ldrb	r2, [r2, #12]	@ zero_extendqisi2
 2545 0006 1A70     		strb	r2, [r3]
 2546 0008 836B     		ldr	r3, [r0, #56]
 2547 000a 0133     		adds	r3, r3, #1
 2548 000c 8363     		str	r3, [r0, #56]
 2549 000e C38F     		ldrh	r3, [r0, #62]
 2550 0010 013B     		subs	r3, r3, #1
 2551 0012 9BB2     		uxth	r3, r3
 2552 0014 C387     		strh	r3, [r0, #62]	@ movhi
 2553 0016 C38F     		ldrh	r3, [r0, #62]
 2554 0018 9BB2     		uxth	r3, r3
 2555 001a 012B     		cmp	r3, #1
 2556 001c 0368     		ldr	r3, [r0]
 2557 001e 07D1     		bne	.L505
 2558 0020 826A     		ldr	r2, [r0, #40]
 2559 0022 B2F5005F 		cmp	r2, #8192
 2560 0026 02BF     		ittt	eq
 2561 0028 1A68     		ldreq	r2, [r3]
 2562 002a 42F48052 		orreq	r2, r2, #4096
 2563 002e 1A60     		streq	r2, [r3]
 2564              	.L505:
 2565 0030 1A68     		ldr	r2, [r3]
 2566 0032 D204     		lsls	r2, r2, #19
 2567 0034 42BF     		ittt	mi
 2568 0036 1A68     		ldrmi	r2, [r3]
 2569 0038 22F48052 		bicmi	r2, r2, #4096
 2570 003c 1A60     		strmi	r2, [r3]
 2571 003e C38F     		ldrh	r3, [r0, #62]
 2572 0040 9BB2     		uxth	r3, r3
 2573 0042 43B9     		cbnz	r3, .L504
 2574 0044 836A     		ldr	r3, [r0, #40]
 2575 0046 B3F5005F 		cmp	r3, #8192
 2576 004a 02D1     		bne	.L508
 2577 004c 024B     		ldr	r3, .L512
 2578 004e 0364     		str	r3, [r0, #64]
 2579 0050 7047     		bx	lr
 2580              	.L508:
 2581 0052 FFF7FEBF 		b	SPI_CloseRx_ISR
 2582              	.L504:
 2583 0056 7047     		bx	lr
 2584              	.L513:
 2585              		.align	2
 2586              	.L512:
 2587 0058 00000000 		.word	SPI_RxISR_8BITCRC
 2589              		.section	.text.SPI_RxISR_8BITCRC,"ax",%progbits
 2590              		.align	1
ARM GAS  /tmp/cczGHsCY.s 			page 45


 2591              		.thumb
 2592              		.thumb_func
 2594              	SPI_RxISR_8BITCRC:
 2595              		@ args = 0, pretend = 0, frame = 0
 2596              		@ frame_needed = 0, uses_anonymous_args = 0
 2597              		@ link register save eliminated.
 2598 0000 0368     		ldr	r3, [r0]
 2599 0002 1B7B     		ldrb	r3, [r3, #12]	@ zero_extendqisi2
 2600 0004 FFF7FEBF 		b	SPI_CloseRx_ISR
 2602              		.section	.text.SPI_RxISR_16BIT,"ax",%progbits
 2603              		.align	1
 2604              		.thumb
 2605              		.thumb_func
 2607              	SPI_RxISR_16BIT:
 2608              		@ args = 0, pretend = 0, frame = 0
 2609              		@ frame_needed = 0, uses_anonymous_args = 0
 2610              		@ link register save eliminated.
 2611 0000 0368     		ldr	r3, [r0]
 2612 0002 826B     		ldr	r2, [r0, #56]
 2613 0004 D968     		ldr	r1, [r3, #12]
 2614 0006 22F8021B 		strh	r1, [r2], #2	@ movhi
 2615 000a 8263     		str	r2, [r0, #56]
 2616 000c C28F     		ldrh	r2, [r0, #62]
 2617 000e 013A     		subs	r2, r2, #1
 2618 0010 92B2     		uxth	r2, r2
 2619 0012 C287     		strh	r2, [r0, #62]	@ movhi
 2620 0014 C28F     		ldrh	r2, [r0, #62]
 2621 0016 92B2     		uxth	r2, r2
 2622 0018 012A     		cmp	r2, #1
 2623 001a 07D1     		bne	.L516
 2624 001c 826A     		ldr	r2, [r0, #40]
 2625 001e B2F5005F 		cmp	r2, #8192
 2626 0022 02BF     		ittt	eq
 2627 0024 1A68     		ldreq	r2, [r3]
 2628 0026 42F48052 		orreq	r2, r2, #4096
 2629 002a 1A60     		streq	r2, [r3]
 2630              	.L516:
 2631 002c 1A68     		ldr	r2, [r3]
 2632 002e D204     		lsls	r2, r2, #19
 2633 0030 42BF     		ittt	mi
 2634 0032 1A68     		ldrmi	r2, [r3]
 2635 0034 22F48052 		bicmi	r2, r2, #4096
 2636 0038 1A60     		strmi	r2, [r3]
 2637 003a C38F     		ldrh	r3, [r0, #62]
 2638 003c 9BB2     		uxth	r3, r3
 2639 003e 43B9     		cbnz	r3, .L515
 2640 0040 836A     		ldr	r3, [r0, #40]
 2641 0042 B3F5005F 		cmp	r3, #8192
 2642 0046 02D1     		bne	.L519
 2643 0048 024B     		ldr	r3, .L523
 2644 004a 0364     		str	r3, [r0, #64]
 2645 004c 7047     		bx	lr
 2646              	.L519:
 2647 004e FFF7FEBF 		b	SPI_CloseRx_ISR
 2648              	.L515:
 2649 0052 7047     		bx	lr
 2650              	.L524:
ARM GAS  /tmp/cczGHsCY.s 			page 46


 2651              		.align	2
 2652              	.L523:
 2653 0054 00000000 		.word	SPI_RxISR_16BITCRC
 2655              		.section	.text.SPI_RxISR_16BITCRC,"ax",%progbits
 2656              		.align	1
 2657              		.thumb
 2658              		.thumb_func
 2660              	SPI_RxISR_16BITCRC:
 2661              		@ args = 0, pretend = 0, frame = 0
 2662              		@ frame_needed = 0, uses_anonymous_args = 0
 2663              		@ link register save eliminated.
 2664 0000 0368     		ldr	r3, [r0]
 2665 0002 DA68     		ldr	r2, [r3, #12]
 2666 0004 5A68     		ldr	r2, [r3, #4]
 2667 0006 22F06002 		bic	r2, r2, #96
 2668 000a 5A60     		str	r2, [r3, #4]
 2669 000c FFF7FEBF 		b	SPI_CloseRx_ISR
 2671              		.section	.text.SPI_CloseRxTx_ISR,"ax",%progbits
 2672              		.align	1
 2673              		.thumb
 2674              		.thumb_func
 2676              	SPI_CloseRxTx_ISR:
 2677              		@ args = 0, pretend = 0, frame = 8
 2678              		@ frame_needed = 0, uses_anonymous_args = 0
 2679 0000 45F6C052 		movw	r2, #24000
 2680 0004 2D4B     		ldr	r3, .L542
 2681 0006 13B5     		push	{r0, r1, r4, lr}
 2682 0008 1B68     		ldr	r3, [r3]
 2683 000a 0446     		mov	r4, r0
 2684 000c B3FBF2F2 		udiv	r2, r3, r2
 2685 0010 6423     		movs	r3, #100
 2686 0012 5343     		muls	r3, r2, r3
 2687 0014 0093     		str	r3, [sp]
 2688 0016 FFF7FEFF 		bl	HAL_GetTick
 2689 001a 0246     		mov	r2, r0
 2690 001c 2368     		ldr	r3, [r4]
 2691 001e 5968     		ldr	r1, [r3, #4]
 2692 0020 21F02001 		bic	r1, r1, #32
 2693 0024 5960     		str	r1, [r3, #4]
 2694              	.L529:
 2695 0026 0099     		ldr	r1, [sp]
 2696 0028 21B9     		cbnz	r1, .L527
 2697 002a 636D     		ldr	r3, [r4, #84]
 2698 002c 43F02003 		orr	r3, r3, #32
 2699 0030 6365     		str	r3, [r4, #84]
 2700 0032 05E0     		b	.L528
 2701              	.L527:
 2702 0034 0099     		ldr	r1, [sp]
 2703 0036 0139     		subs	r1, r1, #1
 2704 0038 0091     		str	r1, [sp]
 2705 003a 9968     		ldr	r1, [r3, #8]
 2706 003c 8907     		lsls	r1, r1, #30
 2707 003e F2D5     		bpl	.L529
 2708              	.L528:
 2709 0040 2046     		mov	r0, r4
 2710 0042 6421     		movs	r1, #100
 2711 0044 FFF7FEFF 		bl	SPI_EndRxTxTransaction
ARM GAS  /tmp/cczGHsCY.s 			page 47


 2712 0048 18B1     		cbz	r0, .L530
 2713 004a 636D     		ldr	r3, [r4, #84]
 2714 004c 43F02003 		orr	r3, r3, #32
 2715 0050 6365     		str	r3, [r4, #84]
 2716              	.L530:
 2717 0052 A268     		ldr	r2, [r4, #8]
 2718 0054 2368     		ldr	r3, [r4]
 2719 0056 2AB9     		cbnz	r2, .L531
 2720 0058 0192     		str	r2, [sp, #4]
 2721 005a DA68     		ldr	r2, [r3, #12]
 2722 005c 0192     		str	r2, [sp, #4]
 2723 005e 9A68     		ldr	r2, [r3, #8]
 2724 0060 0192     		str	r2, [sp, #4]
 2725 0062 019A     		ldr	r2, [sp, #4]
 2726              	.L531:
 2727 0064 9A68     		ldr	r2, [r3, #8]
 2728 0066 12F0100F 		tst	r2, #16
 2729 006a 4FF00102 		mov	r2, #1
 2730 006e 0ED0     		beq	.L532
 2731 0070 84F85120 		strb	r2, [r4, #81]
 2732 0074 626D     		ldr	r2, [r4, #84]
 2733 0076 42F00202 		orr	r2, r2, #2
 2734 007a 6265     		str	r2, [r4, #84]
 2735 007c 1A68     		ldr	r2, [r3]
 2736 007e 22F40052 		bic	r2, r2, #8192
 2737 0082 1A60     		str	r2, [r3]
 2738 0084 1A68     		ldr	r2, [r3]
 2739 0086 42F40052 		orr	r2, r2, #8192
 2740 008a 1A60     		str	r2, [r3]
 2741 008c 10E0     		b	.L541
 2742              	.L532:
 2743 008e 636D     		ldr	r3, [r4, #84]
 2744 0090 63B9     		cbnz	r3, .L534
 2745 0092 94F85130 		ldrb	r3, [r4, #81]	@ zero_extendqisi2
 2746 0096 2046     		mov	r0, r4
 2747 0098 042B     		cmp	r3, #4
 2748 009a 84F85120 		strb	r2, [r4, #81]
 2749 009e 02D1     		bne	.L535
 2750 00a0 FFF7FEFF 		bl	HAL_SPI_RxCpltCallback
 2751 00a4 07E0     		b	.L526
 2752              	.L535:
 2753 00a6 FFF7FEFF 		bl	HAL_SPI_TxRxCpltCallback
 2754 00aa 04E0     		b	.L526
 2755              	.L534:
 2756 00ac 84F85120 		strb	r2, [r4, #81]
 2757              	.L541:
 2758 00b0 2046     		mov	r0, r4
 2759 00b2 FFF7FEFF 		bl	HAL_SPI_ErrorCallback
 2760              	.L526:
 2761 00b6 02B0     		add	sp, sp, #8
 2762              		@ sp needed
 2763 00b8 10BD     		pop	{r4, pc}
 2764              	.L543:
 2765 00ba 00BF     		.align	2
 2766              	.L542:
 2767 00bc 00000000 		.word	SystemCoreClock
 2769              		.section	.text.SPI_2linesTxISR_8BIT,"ax",%progbits
ARM GAS  /tmp/cczGHsCY.s 			page 48


 2770              		.align	1
 2771              		.thumb
 2772              		.thumb_func
 2774              	SPI_2linesTxISR_8BIT:
 2775              		@ args = 0, pretend = 0, frame = 0
 2776              		@ frame_needed = 0, uses_anonymous_args = 0
 2777              		@ link register save eliminated.
 2778 0000 016B     		ldr	r1, [r0, #48]
 2779 0002 0268     		ldr	r2, [r0]
 2780 0004 0978     		ldrb	r1, [r1]	@ zero_extendqisi2
 2781 0006 1173     		strb	r1, [r2, #12]
 2782 0008 026B     		ldr	r2, [r0, #48]
 2783 000a 0132     		adds	r2, r2, #1
 2784 000c 0263     		str	r2, [r0, #48]
 2785 000e C28E     		ldrh	r2, [r0, #54]
 2786 0010 013A     		subs	r2, r2, #1
 2787 0012 92B2     		uxth	r2, r2
 2788 0014 C286     		strh	r2, [r0, #54]	@ movhi
 2789 0016 C28E     		ldrh	r2, [r0, #54]
 2790 0018 92B2     		uxth	r2, r2
 2791 001a B2B9     		cbnz	r2, .L544
 2792 001c 826A     		ldr	r2, [r0, #40]
 2793 001e B2F5005F 		cmp	r2, #8192
 2794 0022 0268     		ldr	r2, [r0]
 2795 0024 08D1     		bne	.L547
 2796 0026 1368     		ldr	r3, [r2]
 2797 0028 43F48053 		orr	r3, r3, #4096
 2798 002c 1360     		str	r3, [r2]
 2799 002e 5368     		ldr	r3, [r2, #4]
 2800 0030 23F08003 		bic	r3, r3, #128
 2801 0034 5360     		str	r3, [r2, #4]
 2802 0036 7047     		bx	lr
 2803              	.L547:
 2804 0038 5168     		ldr	r1, [r2, #4]
 2805 003a 21F08001 		bic	r1, r1, #128
 2806 003e 5160     		str	r1, [r2, #4]
 2807 0040 C38F     		ldrh	r3, [r0, #62]
 2808 0042 9BB2     		uxth	r3, r3
 2809 0044 0BB9     		cbnz	r3, .L544
 2810 0046 FFF7FEBF 		b	SPI_CloseRxTx_ISR
 2811              	.L544:
 2812 004a 7047     		bx	lr
 2814              		.section	.text.SPI_2linesRxISR_8BIT,"ax",%progbits
 2815              		.align	1
 2816              		.thumb
 2817              		.thumb_func
 2819              	SPI_2linesRxISR_8BIT:
 2820              		@ args = 0, pretend = 0, frame = 0
 2821              		@ frame_needed = 0, uses_anonymous_args = 0
 2822              		@ link register save eliminated.
 2823 0000 0168     		ldr	r1, [r0]
 2824 0002 826B     		ldr	r2, [r0, #56]
 2825 0004 097B     		ldrb	r1, [r1, #12]	@ zero_extendqisi2
 2826 0006 1170     		strb	r1, [r2]
 2827 0008 826B     		ldr	r2, [r0, #56]
 2828 000a 0132     		adds	r2, r2, #1
 2829 000c 8263     		str	r2, [r0, #56]
ARM GAS  /tmp/cczGHsCY.s 			page 49


 2830 000e C28F     		ldrh	r2, [r0, #62]
 2831 0010 013A     		subs	r2, r2, #1
 2832 0012 92B2     		uxth	r2, r2
 2833 0014 C287     		strh	r2, [r0, #62]	@ movhi
 2834 0016 C28F     		ldrh	r2, [r0, #62]
 2835 0018 92B2     		uxth	r2, r2
 2836 001a 82B9     		cbnz	r2, .L549
 2837 001c 826A     		ldr	r2, [r0, #40]
 2838 001e B2F5005F 		cmp	r2, #8192
 2839 0022 02D1     		bne	.L552
 2840 0024 064A     		ldr	r2, .L554
 2841 0026 0264     		str	r2, [r0, #64]
 2842 0028 7047     		bx	lr
 2843              	.L552:
 2844 002a 0168     		ldr	r1, [r0]
 2845 002c 4A68     		ldr	r2, [r1, #4]
 2846 002e 22F06002 		bic	r2, r2, #96
 2847 0032 4A60     		str	r2, [r1, #4]
 2848 0034 C38E     		ldrh	r3, [r0, #54]
 2849 0036 9BB2     		uxth	r3, r3
 2850 0038 0BB9     		cbnz	r3, .L549
 2851 003a FFF7FEBF 		b	SPI_CloseRxTx_ISR
 2852              	.L549:
 2853 003e 7047     		bx	lr
 2854              	.L555:
 2855              		.align	2
 2856              	.L554:
 2857 0040 00000000 		.word	SPI_2linesRxISR_8BITCRC
 2859              		.section	.text.SPI_2linesRxISR_8BITCRC,"ax",%progbits
 2860              		.align	1
 2861              		.thumb
 2862              		.thumb_func
 2864              	SPI_2linesRxISR_8BITCRC:
 2865              		@ args = 0, pretend = 0, frame = 0
 2866              		@ frame_needed = 0, uses_anonymous_args = 0
 2867              		@ link register save eliminated.
 2868 0000 0368     		ldr	r3, [r0]
 2869 0002 1A7B     		ldrb	r2, [r3, #12]	@ zero_extendqisi2
 2870 0004 5A68     		ldr	r2, [r3, #4]
 2871 0006 22F06002 		bic	r2, r2, #96
 2872 000a 5A60     		str	r2, [r3, #4]
 2873 000c C38E     		ldrh	r3, [r0, #54]
 2874 000e 9BB2     		uxth	r3, r3
 2875 0010 0BB9     		cbnz	r3, .L556
 2876 0012 FFF7FEBF 		b	SPI_CloseRxTx_ISR
 2877              	.L556:
 2878 0016 7047     		bx	lr
 2880              		.section	.text.SPI_2linesTxISR_16BIT,"ax",%progbits
 2881              		.align	1
 2882              		.thumb
 2883              		.thumb_func
 2885              	SPI_2linesTxISR_16BIT:
 2886              		@ args = 0, pretend = 0, frame = 0
 2887              		@ frame_needed = 0, uses_anonymous_args = 0
 2888 0000 016B     		ldr	r1, [r0, #48]
 2889 0002 10B5     		push	{r4, lr}
 2890 0004 0268     		ldr	r2, [r0]
ARM GAS  /tmp/cczGHsCY.s 			page 50


 2891 0006 31F8024B 		ldrh	r4, [r1], #2
 2892 000a D460     		str	r4, [r2, #12]
 2893 000c 0163     		str	r1, [r0, #48]
 2894 000e C18E     		ldrh	r1, [r0, #54]
 2895 0010 0139     		subs	r1, r1, #1
 2896 0012 89B2     		uxth	r1, r1
 2897 0014 C186     		strh	r1, [r0, #54]	@ movhi
 2898 0016 C18E     		ldrh	r1, [r0, #54]
 2899 0018 89B2     		uxth	r1, r1
 2900 001a B9B9     		cbnz	r1, .L558
 2901 001c 816A     		ldr	r1, [r0, #40]
 2902 001e B1F5005F 		cmp	r1, #8192
 2903 0022 08D1     		bne	.L561
 2904 0024 1368     		ldr	r3, [r2]
 2905 0026 43F48053 		orr	r3, r3, #4096
 2906 002a 1360     		str	r3, [r2]
 2907 002c 5368     		ldr	r3, [r2, #4]
 2908 002e 23F08003 		bic	r3, r3, #128
 2909 0032 5360     		str	r3, [r2, #4]
 2910 0034 10BD     		pop	{r4, pc}
 2911              	.L561:
 2912 0036 5168     		ldr	r1, [r2, #4]
 2913 0038 21F08001 		bic	r1, r1, #128
 2914 003c 5160     		str	r1, [r2, #4]
 2915 003e C38F     		ldrh	r3, [r0, #62]
 2916 0040 9BB2     		uxth	r3, r3
 2917 0042 1BB9     		cbnz	r3, .L558
 2918 0044 BDE81040 		pop	{r4, lr}
 2919 0048 FFF7FEBF 		b	SPI_CloseRxTx_ISR
 2920              	.L558:
 2921 004c 10BD     		pop	{r4, pc}
 2923              		.section	.text.SPI_2linesRxISR_16BIT,"ax",%progbits
 2924              		.align	1
 2925              		.thumb
 2926              		.thumb_func
 2928              	SPI_2linesRxISR_16BIT:
 2929              		@ args = 0, pretend = 0, frame = 0
 2930              		@ frame_needed = 0, uses_anonymous_args = 0
 2931 0000 0168     		ldr	r1, [r0]
 2932 0002 826B     		ldr	r2, [r0, #56]
 2933 0004 10B5     		push	{r4, lr}
 2934 0006 CC68     		ldr	r4, [r1, #12]
 2935 0008 22F8024B 		strh	r4, [r2], #2	@ movhi
 2936 000c 8263     		str	r2, [r0, #56]
 2937 000e C28F     		ldrh	r2, [r0, #62]
 2938 0010 013A     		subs	r2, r2, #1
 2939 0012 92B2     		uxth	r2, r2
 2940 0014 C287     		strh	r2, [r0, #62]	@ movhi
 2941 0016 C28F     		ldrh	r2, [r0, #62]
 2942 0018 92B2     		uxth	r2, r2
 2943 001a 8AB9     		cbnz	r2, .L563
 2944 001c 826A     		ldr	r2, [r0, #40]
 2945 001e B2F5005F 		cmp	r2, #8192
 2946 0022 02D1     		bne	.L566
 2947 0024 074A     		ldr	r2, .L568
 2948 0026 0264     		str	r2, [r0, #64]
 2949 0028 10BD     		pop	{r4, pc}
ARM GAS  /tmp/cczGHsCY.s 			page 51


 2950              	.L566:
 2951 002a 4A68     		ldr	r2, [r1, #4]
 2952 002c 22F04002 		bic	r2, r2, #64
 2953 0030 4A60     		str	r2, [r1, #4]
 2954 0032 C38E     		ldrh	r3, [r0, #54]
 2955 0034 9BB2     		uxth	r3, r3
 2956 0036 1BB9     		cbnz	r3, .L563
 2957 0038 BDE81040 		pop	{r4, lr}
 2958 003c FFF7FEBF 		b	SPI_CloseRxTx_ISR
 2959              	.L563:
 2960 0040 10BD     		pop	{r4, pc}
 2961              	.L569:
 2962 0042 00BF     		.align	2
 2963              	.L568:
 2964 0044 00000000 		.word	SPI_2linesRxISR_16BITCRC
 2966              		.section	.text.SPI_2linesRxISR_16BITCRC,"ax",%progbits
 2967              		.align	1
 2968              		.thumb
 2969              		.thumb_func
 2971              	SPI_2linesRxISR_16BITCRC:
 2972              		@ args = 0, pretend = 0, frame = 0
 2973              		@ frame_needed = 0, uses_anonymous_args = 0
 2974              		@ link register save eliminated.
 2975 0000 0368     		ldr	r3, [r0]
 2976 0002 DA68     		ldr	r2, [r3, #12]
 2977 0004 5A68     		ldr	r2, [r3, #4]
 2978 0006 22F04002 		bic	r2, r2, #64
 2979 000a 5A60     		str	r2, [r3, #4]
 2980 000c FFF7FEBF 		b	SPI_CloseRxTx_ISR
 2982              		.section	.text.SPI_DMAReceiveCplt,"ax",%progbits
 2983              		.align	1
 2984              		.thumb
 2985              		.thumb_func
 2987              	SPI_DMAReceiveCplt:
 2988              		@ args = 0, pretend = 0, frame = 0
 2989              		@ frame_needed = 0, uses_anonymous_args = 0
 2990 0000 73B5     		push	{r0, r1, r4, r5, r6, lr}
 2991 0002 0646     		mov	r6, r0
 2992 0004 446A     		ldr	r4, [r0, #36]
 2993 0006 FFF7FEFF 		bl	HAL_GetTick
 2994 000a 3368     		ldr	r3, [r6]
 2995 000c 0546     		mov	r5, r0
 2996 000e 1B68     		ldr	r3, [r3]
 2997 0010 9906     		lsls	r1, r3, #26
 2998 0012 3ED4     		bmi	.L572
 2999 0014 2268     		ldr	r2, [r4]
 3000 0016 5368     		ldr	r3, [r2, #4]
 3001 0018 23F02003 		bic	r3, r3, #32
 3002 001c 5360     		str	r3, [r2, #4]
 3003 001e A36A     		ldr	r3, [r4, #40]
 3004 0020 B3F5005F 		cmp	r3, #8192
 3005 0024 0DD1     		bne	.L573
 3006 0026 0121     		movs	r1, #1
 3007 0028 0090     		str	r0, [sp]
 3008 002a 0A46     		mov	r2, r1
 3009 002c 2046     		mov	r0, r4
 3010 002e 6423     		movs	r3, #100
ARM GAS  /tmp/cczGHsCY.s 			page 52


 3011 0030 FFF7FEFF 		bl	SPI_WaitFlagStateUntilTimeout
 3012 0034 18B1     		cbz	r0, .L574
 3013 0036 636D     		ldr	r3, [r4, #84]
 3014 0038 43F00203 		orr	r3, r3, #2
 3015 003c 6365     		str	r3, [r4, #84]
 3016              	.L574:
 3017 003e 2368     		ldr	r3, [r4]
 3018 0040 DB68     		ldr	r3, [r3, #12]
 3019              	.L573:
 3020 0042 2268     		ldr	r2, [r4]
 3021 0044 2046     		mov	r0, r4
 3022 0046 5368     		ldr	r3, [r2, #4]
 3023 0048 6421     		movs	r1, #100
 3024 004a 23F00303 		bic	r3, r3, #3
 3025 004e 5360     		str	r3, [r2, #4]
 3026 0050 2A46     		mov	r2, r5
 3027 0052 FFF7FEFF 		bl	SPI_EndRxTransaction
 3028 0056 08B1     		cbz	r0, .L575
 3029 0058 2023     		movs	r3, #32
 3030 005a 6365     		str	r3, [r4, #84]
 3031              	.L575:
 3032 005c 0023     		movs	r3, #0
 3033 005e E387     		strh	r3, [r4, #62]	@ movhi
 3034 0060 0123     		movs	r3, #1
 3035 0062 84F85130 		strb	r3, [r4, #81]
 3036 0066 2368     		ldr	r3, [r4]
 3037 0068 9A68     		ldr	r2, [r3, #8]
 3038 006a D206     		lsls	r2, r2, #27
 3039 006c 0BD5     		bpl	.L576
 3040 006e 626D     		ldr	r2, [r4, #84]
 3041 0070 42F00202 		orr	r2, r2, #2
 3042 0074 6265     		str	r2, [r4, #84]
 3043 0076 1A68     		ldr	r2, [r3]
 3044 0078 22F40052 		bic	r2, r2, #8192
 3045 007c 1A60     		str	r2, [r3]
 3046 007e 1A68     		ldr	r2, [r3]
 3047 0080 42F40052 		orr	r2, r2, #8192
 3048 0084 1A60     		str	r2, [r3]
 3049              	.L576:
 3050 0086 636D     		ldr	r3, [r4, #84]
 3051 0088 1BB1     		cbz	r3, .L572
 3052 008a 2046     		mov	r0, r4
 3053 008c FFF7FEFF 		bl	HAL_SPI_ErrorCallback
 3054 0090 02E0     		b	.L571
 3055              	.L572:
 3056 0092 2046     		mov	r0, r4
 3057 0094 FFF7FEFF 		bl	HAL_SPI_RxCpltCallback
 3058              	.L571:
 3059 0098 02B0     		add	sp, sp, #8
 3060              		@ sp needed
 3061 009a 70BD     		pop	{r4, r5, r6, pc}
 3063              		.section	.text.SPI_DMATransmitReceiveCplt,"ax",%progbits
 3064              		.align	1
 3065              		.thumb
 3066              		.thumb_func
 3068              	SPI_DMATransmitReceiveCplt:
 3069              		@ args = 0, pretend = 0, frame = 0
ARM GAS  /tmp/cczGHsCY.s 			page 53


 3070              		@ frame_needed = 0, uses_anonymous_args = 0
 3071 0000 73B5     		push	{r0, r1, r4, r5, r6, lr}
 3072 0002 0646     		mov	r6, r0
 3073 0004 446A     		ldr	r4, [r0, #36]
 3074 0006 FFF7FEFF 		bl	HAL_GetTick
 3075 000a 3368     		ldr	r3, [r6]
 3076 000c 0546     		mov	r5, r0
 3077 000e 1B68     		ldr	r3, [r3]
 3078 0010 9906     		lsls	r1, r3, #26
 3079 0012 40D4     		bmi	.L591
 3080 0014 2268     		ldr	r2, [r4]
 3081 0016 5368     		ldr	r3, [r2, #4]
 3082 0018 23F02003 		bic	r3, r3, #32
 3083 001c 5360     		str	r3, [r2, #4]
 3084 001e A36A     		ldr	r3, [r4, #40]
 3085 0020 B3F5005F 		cmp	r3, #8192
 3086 0024 0DD1     		bne	.L592
 3087 0026 0121     		movs	r1, #1
 3088 0028 0090     		str	r0, [sp]
 3089 002a 0A46     		mov	r2, r1
 3090 002c 2046     		mov	r0, r4
 3091 002e 6423     		movs	r3, #100
 3092 0030 FFF7FEFF 		bl	SPI_WaitFlagStateUntilTimeout
 3093 0034 18B1     		cbz	r0, .L593
 3094 0036 636D     		ldr	r3, [r4, #84]
 3095 0038 43F00203 		orr	r3, r3, #2
 3096 003c 6365     		str	r3, [r4, #84]
 3097              	.L593:
 3098 003e 2368     		ldr	r3, [r4]
 3099 0040 DB68     		ldr	r3, [r3, #12]
 3100              	.L592:
 3101 0042 2046     		mov	r0, r4
 3102 0044 6421     		movs	r1, #100
 3103 0046 2A46     		mov	r2, r5
 3104 0048 FFF7FEFF 		bl	SPI_EndRxTxTransaction
 3105 004c 18B1     		cbz	r0, .L594
 3106 004e 636D     		ldr	r3, [r4, #84]
 3107 0050 43F02003 		orr	r3, r3, #32
 3108 0054 6365     		str	r3, [r4, #84]
 3109              	.L594:
 3110 0056 2368     		ldr	r3, [r4]
 3111 0058 5A68     		ldr	r2, [r3, #4]
 3112 005a 22F00302 		bic	r2, r2, #3
 3113 005e 5A60     		str	r2, [r3, #4]
 3114 0060 0022     		movs	r2, #0
 3115 0062 E286     		strh	r2, [r4, #54]	@ movhi
 3116 0064 E287     		strh	r2, [r4, #62]	@ movhi
 3117 0066 0122     		movs	r2, #1
 3118 0068 84F85120 		strb	r2, [r4, #81]
 3119 006c 9A68     		ldr	r2, [r3, #8]
 3120 006e D206     		lsls	r2, r2, #27
 3121 0070 0BD5     		bpl	.L595
 3122 0072 626D     		ldr	r2, [r4, #84]
 3123 0074 42F00202 		orr	r2, r2, #2
 3124 0078 6265     		str	r2, [r4, #84]
 3125 007a 1A68     		ldr	r2, [r3]
 3126 007c 22F40052 		bic	r2, r2, #8192
ARM GAS  /tmp/cczGHsCY.s 			page 54


 3127 0080 1A60     		str	r2, [r3]
 3128 0082 1A68     		ldr	r2, [r3]
 3129 0084 42F40052 		orr	r2, r2, #8192
 3130 0088 1A60     		str	r2, [r3]
 3131              	.L595:
 3132 008a 636D     		ldr	r3, [r4, #84]
 3133 008c 1BB1     		cbz	r3, .L591
 3134 008e 2046     		mov	r0, r4
 3135 0090 FFF7FEFF 		bl	HAL_SPI_ErrorCallback
 3136 0094 02E0     		b	.L590
 3137              	.L591:
 3138 0096 2046     		mov	r0, r4
 3139 0098 FFF7FEFF 		bl	HAL_SPI_TxRxCpltCallback
 3140              	.L590:
 3141 009c 02B0     		add	sp, sp, #8
 3142              		@ sp needed
 3143 009e 70BD     		pop	{r4, r5, r6, pc}
 3145              		.section	.text.HAL_SPI_AbortCpltCallback,"ax",%progbits
 3146              		.align	1
 3147              		.weak	HAL_SPI_AbortCpltCallback
 3148              		.thumb
 3149              		.thumb_func
 3151              	HAL_SPI_AbortCpltCallback:
 3152              		@ args = 0, pretend = 0, frame = 0
 3153              		@ frame_needed = 0, uses_anonymous_args = 0
 3154              		@ link register save eliminated.
 3155 0000 7047     		bx	lr
 3157              		.section	.text.HAL_SPI_Abort_IT,"ax",%progbits
 3158              		.align	1
 3159              		.global	HAL_SPI_Abort_IT
 3160              		.thumb
 3161              		.thumb_func
 3163              	HAL_SPI_Abort_IT:
 3164              		@ args = 0, pretend = 0, frame = 16
 3165              		@ frame_needed = 0, uses_anonymous_args = 0
 3166 0000 45F6C052 		movw	r2, #24000
 3167 0004 414B     		ldr	r3, .L653
 3168 0006 30B5     		push	{r4, r5, lr}
 3169 0008 1B68     		ldr	r3, [r3]
 3170 000a 85B0     		sub	sp, sp, #20
 3171 000c B3FBF2F2 		udiv	r2, r3, r2
 3172 0010 6423     		movs	r3, #100
 3173 0012 5343     		muls	r3, r2, r3
 3174 0014 0293     		str	r3, [sp, #8]
 3175 0016 029B     		ldr	r3, [sp, #8]
 3176 0018 0446     		mov	r4, r0
 3177 001a 0193     		str	r3, [sp, #4]
 3178 001c 0368     		ldr	r3, [r0]
 3179 001e 5A68     		ldr	r2, [r3, #4]
 3180 0020 22F02002 		bic	r2, r2, #32
 3181 0024 5A60     		str	r2, [r3, #4]
 3182 0026 5A68     		ldr	r2, [r3, #4]
 3183 0028 1006     		lsls	r0, r2, #24
 3184 002a 11D5     		bpl	.L611
 3185 002c 384A     		ldr	r2, .L653+4
 3186 002e 6264     		str	r2, [r4, #68]
 3187              	.L614:
ARM GAS  /tmp/cczGHsCY.s 			page 55


 3188 0030 019A     		ldr	r2, [sp, #4]
 3189 0032 22B9     		cbnz	r2, .L612
 3190 0034 626D     		ldr	r2, [r4, #84]
 3191 0036 42F04002 		orr	r2, r2, #64
 3192 003a 6265     		str	r2, [r4, #84]
 3193 003c 06E0     		b	.L613
 3194              	.L612:
 3195 003e 019A     		ldr	r2, [sp, #4]
 3196 0040 013A     		subs	r2, r2, #1
 3197 0042 0192     		str	r2, [sp, #4]
 3198 0044 94F85120 		ldrb	r2, [r4, #81]	@ zero_extendqisi2
 3199 0048 072A     		cmp	r2, #7
 3200 004a F1D1     		bne	.L614
 3201              	.L613:
 3202 004c 029A     		ldr	r2, [sp, #8]
 3203 004e 0192     		str	r2, [sp, #4]
 3204              	.L611:
 3205 0050 5A68     		ldr	r2, [r3, #4]
 3206 0052 5106     		lsls	r1, r2, #25
 3207 0054 11D5     		bpl	.L615
 3208 0056 2F4A     		ldr	r2, .L653+8
 3209 0058 2264     		str	r2, [r4, #64]
 3210              	.L618:
 3211 005a 019A     		ldr	r2, [sp, #4]
 3212 005c 22B9     		cbnz	r2, .L616
 3213 005e 626D     		ldr	r2, [r4, #84]
 3214 0060 42F04002 		orr	r2, r2, #64
 3215 0064 6265     		str	r2, [r4, #84]
 3216 0066 06E0     		b	.L617
 3217              	.L616:
 3218 0068 019A     		ldr	r2, [sp, #4]
 3219 006a 013A     		subs	r2, r2, #1
 3220 006c 0192     		str	r2, [sp, #4]
 3221 006e 94F85120 		ldrb	r2, [r4, #81]	@ zero_extendqisi2
 3222 0072 072A     		cmp	r2, #7
 3223 0074 F1D1     		bne	.L618
 3224              	.L617:
 3225 0076 029A     		ldr	r2, [sp, #8]
 3226 0078 0192     		str	r2, [sp, #4]
 3227              	.L615:
 3228 007a A06C     		ldr	r0, [r4, #72]
 3229 007c 28B1     		cbz	r0, .L619
 3230 007e 5A68     		ldr	r2, [r3, #4]
 3231 0080 12F00202 		ands	r2, r2, #2
 3232 0084 18BF     		it	ne
 3233 0086 244A     		ldrne	r2, .L653+12
 3234 0088 4263     		str	r2, [r0, #52]
 3235              	.L619:
 3236 008a E16C     		ldr	r1, [r4, #76]
 3237 008c 29B1     		cbz	r1, .L621
 3238 008e 5A68     		ldr	r2, [r3, #4]
 3239 0090 12F00102 		ands	r2, r2, #1
 3240 0094 18BF     		it	ne
 3241 0096 214A     		ldrne	r2, .L653+16
 3242 0098 4A63     		str	r2, [r1, #52]
 3243              	.L621:
 3244 009a 5B68     		ldr	r3, [r3, #4]
ARM GAS  /tmp/cczGHsCY.s 			page 56


 3245 009c 9A07     		lsls	r2, r3, #30
 3246 009e 08D5     		bpl	.L630
 3247 00a0 38B1     		cbz	r0, .L630
 3248 00a2 FFF7FEFF 		bl	HAL_DMA_Abort_IT
 3249 00a6 30B1     		cbz	r0, .L631
 3250 00a8 A36C     		ldr	r3, [r4, #72]
 3251 00aa 0022     		movs	r2, #0
 3252 00ac 5A63     		str	r2, [r3, #52]
 3253 00ae 4023     		movs	r3, #64
 3254 00b0 6365     		str	r3, [r4, #84]
 3255              	.L630:
 3256 00b2 0125     		movs	r5, #1
 3257 00b4 00E0     		b	.L623
 3258              	.L631:
 3259 00b6 0546     		mov	r5, r0
 3260              	.L623:
 3261 00b8 2368     		ldr	r3, [r4]
 3262 00ba 5B68     		ldr	r3, [r3, #4]
 3263 00bc DB07     		lsls	r3, r3, #31
 3264 00be 0BD5     		bpl	.L624
 3265 00c0 E06C     		ldr	r0, [r4, #76]
 3266 00c2 48B1     		cbz	r0, .L624
 3267 00c4 FFF7FEFF 		bl	HAL_DMA_Abort_IT
 3268 00c8 08B9     		cbnz	r0, .L625
 3269              	.L627:
 3270 00ca 0025     		movs	r5, #0
 3271 00cc 1BE0     		b	.L626
 3272              	.L625:
 3273 00ce E36C     		ldr	r3, [r4, #76]
 3274 00d0 0022     		movs	r2, #0
 3275 00d2 5A63     		str	r2, [r3, #52]
 3276 00d4 4023     		movs	r3, #64
 3277 00d6 6365     		str	r3, [r4, #84]
 3278              	.L624:
 3279 00d8 012D     		cmp	r5, #1
 3280 00da F6D1     		bne	.L627
 3281 00dc 0023     		movs	r3, #0
 3282 00de E387     		strh	r3, [r4, #62]	@ movhi
 3283 00e0 E386     		strh	r3, [r4, #54]	@ movhi
 3284 00e2 626D     		ldr	r2, [r4, #84]
 3285 00e4 2046     		mov	r0, r4
 3286 00e6 402A     		cmp	r2, #64
 3287 00e8 1CBF     		itt	ne
 3288 00ea 6365     		strne	r3, [r4, #84]
 3289 00ec 1D46     		movne	r5, r3
 3290 00ee 0393     		str	r3, [sp, #12]
 3291 00f0 2368     		ldr	r3, [r4]
 3292 00f2 DA68     		ldr	r2, [r3, #12]
 3293 00f4 0392     		str	r2, [sp, #12]
 3294 00f6 9B68     		ldr	r3, [r3, #8]
 3295 00f8 0393     		str	r3, [sp, #12]
 3296 00fa 039B     		ldr	r3, [sp, #12]
 3297 00fc 0123     		movs	r3, #1
 3298 00fe 84F85130 		strb	r3, [r4, #81]
 3299 0102 FFF7FEFF 		bl	HAL_SPI_AbortCpltCallback
 3300              	.L626:
 3301 0106 2846     		mov	r0, r5
ARM GAS  /tmp/cczGHsCY.s 			page 57


 3302 0108 05B0     		add	sp, sp, #20
 3303              		@ sp needed
 3304 010a 30BD     		pop	{r4, r5, pc}
 3305              	.L654:
 3306              		.align	2
 3307              	.L653:
 3308 010c 00000000 		.word	SystemCoreClock
 3309 0110 00000000 		.word	SPI_AbortTx_ISR
 3310 0114 00000000 		.word	SPI_AbortRx_ISR
 3311 0118 00000000 		.word	SPI_DMATxAbortCallback
 3312 011c 00000000 		.word	SPI_DMARxAbortCallback
 3314              		.section	.text.SPI_DMARxAbortCallback,"ax",%progbits
 3315              		.align	1
 3316              		.thumb
 3317              		.thumb_func
 3319              	SPI_DMARxAbortCallback:
 3320              		@ args = 0, pretend = 0, frame = 8
 3321              		@ frame_needed = 0, uses_anonymous_args = 0
 3322 0000 13B5     		push	{r0, r1, r4, lr}
 3323 0002 446A     		ldr	r4, [r0, #36]
 3324 0004 0021     		movs	r1, #0
 3325 0006 2368     		ldr	r3, [r4]
 3326 0008 1A68     		ldr	r2, [r3]
 3327 000a 22F04002 		bic	r2, r2, #64
 3328 000e 1A60     		str	r2, [r3]
 3329 0010 E26C     		ldr	r2, [r4, #76]
 3330 0012 5163     		str	r1, [r2, #52]
 3331 0014 5A68     		ldr	r2, [r3, #4]
 3332 0016 22F00102 		bic	r2, r2, #1
 3333 001a 5A60     		str	r2, [r3, #4]
 3334 001c FFF7FEFF 		bl	HAL_GetTick
 3335 0020 6421     		movs	r1, #100
 3336 0022 0246     		mov	r2, r0
 3337 0024 2046     		mov	r0, r4
 3338 0026 FFF7FEFF 		bl	SPI_EndRxTxTransaction
 3339 002a 18B1     		cbz	r0, .L656
 3340 002c 636D     		ldr	r3, [r4, #84]
 3341 002e 43F04003 		orr	r3, r3, #64
 3342 0032 6365     		str	r3, [r4, #84]
 3343              	.L656:
 3344 0034 A36C     		ldr	r3, [r4, #72]
 3345 0036 0BB1     		cbz	r3, .L657
 3346 0038 5B6B     		ldr	r3, [r3, #52]
 3347 003a 9BB9     		cbnz	r3, .L655
 3348              	.L657:
 3349 003c 0023     		movs	r3, #0
 3350 003e E387     		strh	r3, [r4, #62]	@ movhi
 3351 0040 E386     		strh	r3, [r4, #54]	@ movhi
 3352 0042 626D     		ldr	r2, [r4, #84]
 3353 0044 2046     		mov	r0, r4
 3354 0046 402A     		cmp	r2, #64
 3355 0048 18BF     		it	ne
 3356 004a 6365     		strne	r3, [r4, #84]
 3357 004c 0193     		str	r3, [sp, #4]
 3358 004e 2368     		ldr	r3, [r4]
 3359 0050 DA68     		ldr	r2, [r3, #12]
 3360 0052 0192     		str	r2, [sp, #4]
ARM GAS  /tmp/cczGHsCY.s 			page 58


 3361 0054 9B68     		ldr	r3, [r3, #8]
 3362 0056 0193     		str	r3, [sp, #4]
 3363 0058 019B     		ldr	r3, [sp, #4]
 3364 005a 0123     		movs	r3, #1
 3365 005c 84F85130 		strb	r3, [r4, #81]
 3366 0060 FFF7FEFF 		bl	HAL_SPI_AbortCpltCallback
 3367              	.L655:
 3368 0064 02B0     		add	sp, sp, #8
 3369              		@ sp needed
 3370 0066 10BD     		pop	{r4, pc}
 3372              		.section	.text.SPI_DMATxAbortCallback,"ax",%progbits
 3373              		.align	1
 3374              		.thumb
 3375              		.thumb_func
 3377              	SPI_DMATxAbortCallback:
 3378              		@ args = 0, pretend = 0, frame = 8
 3379              		@ frame_needed = 0, uses_anonymous_args = 0
 3380 0000 07B5     		push	{r0, r1, r2, lr}
 3381 0002 406A     		ldr	r0, [r0, #36]
 3382 0004 0022     		movs	r2, #0
 3383 0006 836C     		ldr	r3, [r0, #72]
 3384 0008 5A63     		str	r2, [r3, #52]
 3385 000a 45F6C052 		movw	r2, #24000
 3386 000e 194B     		ldr	r3, .L684
 3387 0010 1B68     		ldr	r3, [r3]
 3388 0012 B3FBF2F2 		udiv	r2, r3, r2
 3389 0016 6423     		movs	r3, #100
 3390 0018 5343     		muls	r3, r2, r3
 3391 001a 0268     		ldr	r2, [r0]
 3392 001c 0093     		str	r3, [sp]
 3393 001e 5368     		ldr	r3, [r2, #4]
 3394 0020 23F00203 		bic	r3, r3, #2
 3395 0024 5360     		str	r3, [r2, #4]
 3396              	.L672:
 3397 0026 009B     		ldr	r3, [sp]
 3398 0028 23B9     		cbnz	r3, .L670
 3399 002a 436D     		ldr	r3, [r0, #84]
 3400 002c 43F04003 		orr	r3, r3, #64
 3401 0030 4365     		str	r3, [r0, #84]
 3402 0032 05E0     		b	.L671
 3403              	.L670:
 3404 0034 009B     		ldr	r3, [sp]
 3405 0036 013B     		subs	r3, r3, #1
 3406 0038 0093     		str	r3, [sp]
 3407 003a 9368     		ldr	r3, [r2, #8]
 3408 003c 9B07     		lsls	r3, r3, #30
 3409 003e F2D5     		bpl	.L672
 3410              	.L671:
 3411 0040 C36C     		ldr	r3, [r0, #76]
 3412 0042 0BB1     		cbz	r3, .L673
 3413 0044 5B6B     		ldr	r3, [r3, #52]
 3414 0046 8BB9     		cbnz	r3, .L669
 3415              	.L673:
 3416 0048 0023     		movs	r3, #0
 3417 004a C387     		strh	r3, [r0, #62]	@ movhi
 3418 004c C386     		strh	r3, [r0, #54]	@ movhi
 3419 004e 416D     		ldr	r1, [r0, #84]
ARM GAS  /tmp/cczGHsCY.s 			page 59


 3420 0050 4029     		cmp	r1, #64
 3421 0052 18BF     		it	ne
 3422 0054 4365     		strne	r3, [r0, #84]
 3423 0056 0193     		str	r3, [sp, #4]
 3424 0058 D368     		ldr	r3, [r2, #12]
 3425 005a 0193     		str	r3, [sp, #4]
 3426 005c 9368     		ldr	r3, [r2, #8]
 3427 005e 0193     		str	r3, [sp, #4]
 3428 0060 019B     		ldr	r3, [sp, #4]
 3429 0062 0123     		movs	r3, #1
 3430 0064 80F85130 		strb	r3, [r0, #81]
 3431 0068 FFF7FEFF 		bl	HAL_SPI_AbortCpltCallback
 3432              	.L669:
 3433 006c 03B0     		add	sp, sp, #12
 3434              		@ sp needed
 3435 006e 5DF804FB 		ldr	pc, [sp], #4
 3436              	.L685:
 3437 0072 00BF     		.align	2
 3438              	.L684:
 3439 0074 00000000 		.word	SystemCoreClock
 3441              		.section	.text.HAL_SPI_GetState,"ax",%progbits
 3442              		.align	1
 3443              		.global	HAL_SPI_GetState
 3444              		.thumb
 3445              		.thumb_func
 3447              	HAL_SPI_GetState:
 3448              		@ args = 0, pretend = 0, frame = 0
 3449              		@ frame_needed = 0, uses_anonymous_args = 0
 3450              		@ link register save eliminated.
 3451 0000 90F85100 		ldrb	r0, [r0, #81]	@ zero_extendqisi2
 3452 0004 7047     		bx	lr
 3454              		.section	.text.HAL_SPI_GetError,"ax",%progbits
 3455              		.align	1
 3456              		.global	HAL_SPI_GetError
 3457              		.thumb
 3458              		.thumb_func
 3460              	HAL_SPI_GetError:
 3461              		@ args = 0, pretend = 0, frame = 0
 3462              		@ frame_needed = 0, uses_anonymous_args = 0
 3463              		@ link register save eliminated.
 3464 0000 406D     		ldr	r0, [r0, #84]
 3465 0002 7047     		bx	lr
 3467              		.section	.text.SPI_ISCRCErrorValid,"ax",%progbits
 3468              		.align	1
 3469              		.global	SPI_ISCRCErrorValid
 3470              		.thumb
 3471              		.thumb_func
 3473              	SPI_ISCRCErrorValid:
 3474              		@ args = 0, pretend = 0, frame = 0
 3475              		@ frame_needed = 0, uses_anonymous_args = 0
 3476              		@ link register save eliminated.
 3477 0000 0120     		movs	r0, #1
 3478 0002 7047     		bx	lr
 3480              		.ident	"GCC: (15:4.9.3+svn231177-1) 4.9.3 20150529 (prerelease)"
ARM GAS  /tmp/cczGHsCY.s 			page 60

