ARM GAS  /tmp/ccF3jdhA.s 			page 1


   1              		.cpu cortex-m3
   2              		.eabi_attribute 20, 1
   3              		.eabi_attribute 21, 1
   4              		.eabi_attribute 23, 3
   5              		.eabi_attribute 24, 1
   6              		.eabi_attribute 25, 1
   7              		.eabi_attribute 26, 1
   8              		.eabi_attribute 30, 4
   9              		.eabi_attribute 34, 1
  10              		.eabi_attribute 18, 4
  11              		.file	"stm32f1xx_hal_i2s.c"
  12              		.section	.text.I2S_WaitFlagStateUntilTimeout,"ax",%progbits
  13              		.align	1
  14              		.syntax unified
  15              		.thumb
  16              		.thumb_func
  17              		.fpu softvfp
  19              	I2S_WaitFlagStateUntilTimeout:
  20              		@ args = 0, pretend = 0, frame = 0
  21              		@ frame_needed = 0, uses_anonymous_args = 0
  22 0000 2DE9F041 		push	{r4, r5, r6, r7, r8, lr}
  23 0004 0446     		mov	r4, r0
  24 0006 0F46     		mov	r7, r1
  25 0008 1646     		mov	r6, r2
  26 000a 1D46     		mov	r5, r3
  27 000c FFF7FEFF 		bl	HAL_GetTick
  28 0010 8046     		mov	r8, r0
  29              	.L2:
  30 0012 2268     		ldr	r2, [r4]
  31              	.L3:
  32 0014 9368     		ldr	r3, [r2, #8]
  33 0016 37EA0303 		bics	r3, r7, r3
  34 001a 0CBF     		ite	eq
  35 001c 0123     		moveq	r3, #1
  36 001e 0023     		movne	r3, #0
  37 0020 B342     		cmp	r3, r6
  38 0022 02D1     		bne	.L5
  39 0024 0020     		movs	r0, #0
  40 0026 BDE8F081 		pop	{r4, r5, r6, r7, r8, pc}
  41              	.L5:
  42 002a 6B1C     		adds	r3, r5, #1
  43 002c F2D0     		beq	.L3
  44 002e FFF7FEFF 		bl	HAL_GetTick
  45 0032 A0EB0800 		sub	r0, r0, r8
  46 0036 8542     		cmp	r5, r0
  47 0038 EBD8     		bhi	.L2
  48 003a 0123     		movs	r3, #1
  49 003c 84F83530 		strb	r3, [r4, #53]
  50 0040 0023     		movs	r3, #0
  51 0042 0320     		movs	r0, #3
  52 0044 84F83430 		strb	r3, [r4, #52]
  53 0048 BDE8F081 		pop	{r4, r5, r6, r7, r8, pc}
  55              		.section	.text.HAL_I2S_MspInit,"ax",%progbits
  56              		.align	1
  57              		.weak	HAL_I2S_MspInit
  58              		.syntax unified
  59              		.thumb
ARM GAS  /tmp/ccF3jdhA.s 			page 2


  60              		.thumb_func
  61              		.fpu softvfp
  63              	HAL_I2S_MspInit:
  64              		@ args = 0, pretend = 0, frame = 0
  65              		@ frame_needed = 0, uses_anonymous_args = 0
  66              		@ link register save eliminated.
  67 0000 7047     		bx	lr
  69              		.section	.text.HAL_I2S_Init,"ax",%progbits
  70              		.align	1
  71              		.global	HAL_I2S_Init
  72              		.syntax unified
  73              		.thumb
  74              		.thumb_func
  75              		.fpu softvfp
  77              	HAL_I2S_Init:
  78              		@ args = 0, pretend = 0, frame = 0
  79              		@ frame_needed = 0, uses_anonymous_args = 0
  80 0000 38B5     		push	{r3, r4, r5, lr}
  81 0002 0446     		mov	r4, r0
  82 0004 0028     		cmp	r0, #0
  83 0006 42D0     		beq	.L23
  84 0008 90F83530 		ldrb	r3, [r0, #53]	@ zero_extendqisi2
  85 000c 03F0FF02 		and	r2, r3, #255
  86 0010 1BB9     		cbnz	r3, .L12
  87 0012 80F83420 		strb	r2, [r0, #52]
  88 0016 FFF7FEFF 		bl	HAL_I2S_MspInit
  89              	.L12:
  90 001a 0221     		movs	r1, #2
  91 001c 2268     		ldr	r2, [r4]
  92 001e 84F83510 		strb	r1, [r4, #53]
  93 0022 D369     		ldr	r3, [r2, #28]
  94 0024 23F47B63 		bic	r3, r3, #4016
  95 0028 23F00F03 		bic	r3, r3, #15
  96 002c D361     		str	r3, [r2, #28]
  97 002e 6369     		ldr	r3, [r4, #20]
  98 0030 1162     		str	r1, [r2, #32]
  99 0032 8B42     		cmp	r3, r1
 100 0034 3CD0     		beq	.L24
 101 0036 E368     		ldr	r3, [r4, #12]
 102 0038 002B     		cmp	r3, #0
 103 003a 0CBF     		ite	eq
 104 003c 1025     		moveq	r5, #16
 105 003e 2025     		movne	r5, #32
 106 0040 A368     		ldr	r3, [r4, #8]
 107 0042 202B     		cmp	r3, #32
 108 0044 294B     		ldr	r3, .L29
 109 0046 98BF     		it	ls
 110 0048 6D00     		lslls	r5, r5, #1
 111 004a 9A42     		cmp	r2, r3
 112 004c 21D1     		bne	.L16
 113 004e 0420     		movs	r0, #4
 114              	.L26:
 115 0050 FFF7FEFF 		bl	HAL_RCCEx_GetPeriphCLKFreq
 116              	.L17:
 117 0054 2369     		ldr	r3, [r4, #16]
 118 0056 6169     		ldr	r1, [r4, #20]
 119 0058 B3F5007F 		cmp	r3, #512
ARM GAS  /tmp/ccF3jdhA.s 			page 3


 120 005c 23D1     		bne	.L19
 121 005e E368     		ldr	r3, [r4, #12]
 122 0060 0A22     		movs	r2, #10
 123 0062 F3B1     		cbz	r3, .L20
 124 0064 AB00     		lsls	r3, r5, #2
 125              	.L28:
 126 0066 B0FBF3F3 		udiv	r3, r0, r3
 127 006a 5343     		muls	r3, r2, r3
 128              	.L27:
 129 006c B3FBF1F3 		udiv	r3, r3, r1
 130 0070 0A22     		movs	r2, #10
 131 0072 0533     		adds	r3, r3, #5
 132 0074 B3FBF2F3 		udiv	r3, r3, r2
 133 0078 03F00102 		and	r2, r3, #1
 134 007c 1202     		lsls	r2, r2, #8
 135 007e 5B08     		lsrs	r3, r3, #1
 136              	.L13:
 137 0080 991E     		subs	r1, r3, #2
 138 0082 FD29     		cmp	r1, #253
 139 0084 16D9     		bls	.L22
 140 0086 A36B     		ldr	r3, [r4, #56]
 141 0088 43F01003 		orr	r3, r3, #16
 142 008c A363     		str	r3, [r4, #56]
 143              	.L23:
 144 008e 0120     		movs	r0, #1
 145 0090 38BD     		pop	{r3, r4, r5, pc}
 146              	.L16:
 147 0092 174B     		ldr	r3, .L29+4
 148 0094 9A42     		cmp	r2, r3
 149 0096 01D1     		bne	.L18
 150 0098 0820     		movs	r0, #8
 151 009a D9E7     		b	.L26
 152              	.L18:
 153 009c FFF7FEFF 		bl	HAL_RCC_GetSysClockFreq
 154 00a0 D8E7     		b	.L17
 155              	.L20:
 156 00a2 EB00     		lsls	r3, r5, #3
 157 00a4 DFE7     		b	.L28
 158              	.L19:
 159 00a6 B0FBF5F0 		udiv	r0, r0, r5
 160 00aa 0A23     		movs	r3, #10
 161 00ac 4343     		muls	r3, r0, r3
 162 00ae DDE7     		b	.L27
 163              	.L24:
 164 00b0 0022     		movs	r2, #0
 165 00b2 E5E7     		b	.L13
 166              	.L22:
 167 00b4 1343     		orrs	r3, r3, r2
 168 00b6 2269     		ldr	r2, [r4, #16]
 169 00b8 2168     		ldr	r1, [r4]
 170 00ba 1343     		orrs	r3, r3, r2
 171 00bc 0B62     		str	r3, [r1, #32]
 172 00be A068     		ldr	r0, [r4, #8]
 173 00c0 6368     		ldr	r3, [r4, #4]
 174 00c2 CA69     		ldr	r2, [r1, #28]
 175 00c4 0343     		orrs	r3, r3, r0
 176 00c6 E068     		ldr	r0, [r4, #12]
ARM GAS  /tmp/ccF3jdhA.s 			page 4


 177 00c8 43F40063 		orr	r3, r3, #2048
 178 00cc 0343     		orrs	r3, r3, r0
 179 00ce A069     		ldr	r0, [r4, #24]
 180 00d0 22F47B62 		bic	r2, r2, #4016
 181 00d4 0343     		orrs	r3, r3, r0
 182 00d6 22F00F02 		bic	r2, r2, #15
 183 00da 1343     		orrs	r3, r3, r2
 184 00dc CB61     		str	r3, [r1, #28]
 185 00de 0020     		movs	r0, #0
 186 00e0 0123     		movs	r3, #1
 187 00e2 A063     		str	r0, [r4, #56]
 188 00e4 84F83530 		strb	r3, [r4, #53]
 189 00e8 38BD     		pop	{r3, r4, r5, pc}
 190              	.L30:
 191 00ea 00BF     		.align	2
 192              	.L29:
 193 00ec 00380040 		.word	1073756160
 194 00f0 003C0040 		.word	1073757184
 196              		.section	.text.HAL_I2S_MspDeInit,"ax",%progbits
 197              		.align	1
 198              		.weak	HAL_I2S_MspDeInit
 199              		.syntax unified
 200              		.thumb
 201              		.thumb_func
 202              		.fpu softvfp
 204              	HAL_I2S_MspDeInit:
 205              		@ args = 0, pretend = 0, frame = 0
 206              		@ frame_needed = 0, uses_anonymous_args = 0
 207              		@ link register save eliminated.
 208 0000 7047     		bx	lr
 210              		.section	.text.HAL_I2S_DeInit,"ax",%progbits
 211              		.align	1
 212              		.global	HAL_I2S_DeInit
 213              		.syntax unified
 214              		.thumb
 215              		.thumb_func
 216              		.fpu softvfp
 218              	HAL_I2S_DeInit:
 219              		@ args = 0, pretend = 0, frame = 0
 220              		@ frame_needed = 0, uses_anonymous_args = 0
 221 0000 10B5     		push	{r4, lr}
 222 0002 0446     		mov	r4, r0
 223 0004 80B1     		cbz	r0, .L34
 224 0006 0223     		movs	r3, #2
 225 0008 0268     		ldr	r2, [r0]
 226 000a 80F83530 		strb	r3, [r0, #53]
 227 000e D369     		ldr	r3, [r2, #28]
 228 0010 23F48063 		bic	r3, r3, #1024
 229 0014 D361     		str	r3, [r2, #28]
 230 0016 FFF7FEFF 		bl	HAL_I2S_MspDeInit
 231 001a 0020     		movs	r0, #0
 232 001c A063     		str	r0, [r4, #56]
 233 001e 84F83500 		strb	r0, [r4, #53]
 234 0022 84F83400 		strb	r0, [r4, #52]
 235 0026 10BD     		pop	{r4, pc}
 236              	.L34:
 237 0028 0120     		movs	r0, #1
ARM GAS  /tmp/ccF3jdhA.s 			page 5


 238 002a 10BD     		pop	{r4, pc}
 240              		.section	.text.HAL_I2S_Transmit,"ax",%progbits
 241              		.align	1
 242              		.global	HAL_I2S_Transmit
 243              		.syntax unified
 244              		.thumb
 245              		.thumb_func
 246              		.fpu softvfp
 248              	HAL_I2S_Transmit:
 249              		@ args = 0, pretend = 0, frame = 8
 250              		@ frame_needed = 0, uses_anonymous_args = 0
 251 0000 F7B5     		push	{r0, r1, r2, r4, r5, r6, r7, lr}
 252 0002 0446     		mov	r4, r0
 253 0004 1F46     		mov	r7, r3
 254 0006 0029     		cmp	r1, #0
 255 0008 7CD0     		beq	.L48
 256 000a 002A     		cmp	r2, #0
 257 000c 7AD0     		beq	.L48
 258 000e 90F83430 		ldrb	r3, [r0, #52]	@ zero_extendqisi2
 259 0012 012B     		cmp	r3, #1
 260 0014 0AD0     		beq	.L49
 261 0016 0123     		movs	r3, #1
 262 0018 80F83430 		strb	r3, [r0, #52]
 263 001c 90F83530 		ldrb	r3, [r0, #53]	@ zero_extendqisi2
 264 0020 012B     		cmp	r3, #1
 265 0022 4FF00003 		mov	r3, #0
 266 0026 03D0     		beq	.L37
 267 0028 80F83430 		strb	r3, [r0, #52]
 268              	.L49:
 269 002c 0225     		movs	r5, #2
 270 002e 62E0     		b	.L36
 271              	.L37:
 272 0030 0320     		movs	r0, #3
 273 0032 84F83500 		strb	r0, [r4, #53]
 274 0036 A363     		str	r3, [r4, #56]
 275 0038 2368     		ldr	r3, [r4]
 276 003a E161     		str	r1, [r4, #28]
 277 003c D969     		ldr	r1, [r3, #28]
 278 003e 01F00701 		and	r1, r1, #7
 279 0042 8142     		cmp	r1, r0
 280 0044 01D0     		beq	.L38
 281 0046 0529     		cmp	r1, #5
 282 0048 01D1     		bne	.L39
 283              	.L38:
 284 004a 5200     		lsls	r2, r2, #1
 285 004c 92B2     		uxth	r2, r2
 286              	.L39:
 287 004e 2284     		strh	r2, [r4, #32]	@ movhi
 288 0050 6284     		strh	r2, [r4, #34]	@ movhi
 289 0052 DE69     		ldr	r6, [r3, #28]
 290 0054 DA69     		ldr	r2, [r3, #28]
 291 0056 2046     		mov	r0, r4
 292 0058 5105     		lsls	r1, r2, #21
 293 005a 58BF     		it	pl
 294 005c DA69     		ldrpl	r2, [r3, #28]
 295 005e 4FF00201 		mov	r1, #2
 296 0062 5CBF     		itt	pl
ARM GAS  /tmp/ccF3jdhA.s 			page 6


 297 0064 42F48062 		orrpl	r2, r2, #1024
 298 0068 DA61     		strpl	r2, [r3, #28]
 299 006a 3B46     		mov	r3, r7
 300 006c 0122     		movs	r2, #1
 301 006e FFF7FEFF 		bl	I2S_WaitFlagStateUntilTimeout
 302 0072 0546     		mov	r5, r0
 303 0074 40B3     		cbz	r0, .L44
 304              	.L60:
 305 0076 0125     		movs	r5, #1
 306 0078 A36B     		ldr	r3, [r4, #56]
 307 007a 43F00103 		orr	r3, r3, #1
 308 007e A363     		str	r3, [r4, #56]
 309 0080 84F83550 		strb	r5, [r4, #53]
 310              	.L59:
 311 0084 0023     		movs	r3, #0
 312 0086 84F83430 		strb	r3, [r4, #52]
 313 008a 34E0     		b	.L36
 314              	.L45:
 315 008c E369     		ldr	r3, [r4, #28]
 316 008e 2268     		ldr	r2, [r4]
 317 0090 33F8021B 		ldrh	r1, [r3], #2
 318 0094 2046     		mov	r0, r4
 319 0096 D160     		str	r1, [r2, #12]
 320 0098 E361     		str	r3, [r4, #28]
 321 009a 638C     		ldrh	r3, [r4, #34]
 322 009c 0122     		movs	r2, #1
 323 009e 013B     		subs	r3, r3, #1
 324 00a0 9BB2     		uxth	r3, r3
 325 00a2 6384     		strh	r3, [r4, #34]	@ movhi
 326 00a4 0221     		movs	r1, #2
 327 00a6 3B46     		mov	r3, r7
 328 00a8 FFF7FEFF 		bl	I2S_WaitFlagStateUntilTimeout
 329 00ac 0028     		cmp	r0, #0
 330 00ae E2D1     		bne	.L60
 331 00b0 2368     		ldr	r3, [r4]
 332 00b2 9A68     		ldr	r2, [r3, #8]
 333 00b4 1207     		lsls	r2, r2, #28
 334 00b6 07D5     		bpl	.L44
 335 00b8 0190     		str	r0, [sp, #4]
 336 00ba 9B68     		ldr	r3, [r3, #8]
 337 00bc 0193     		str	r3, [sp, #4]
 338 00be 019B     		ldr	r3, [sp, #4]
 339 00c0 A36B     		ldr	r3, [r4, #56]
 340 00c2 43F00403 		orr	r3, r3, #4
 341 00c6 A363     		str	r3, [r4, #56]
 342              	.L44:
 343 00c8 638C     		ldrh	r3, [r4, #34]
 344 00ca 9BB2     		uxth	r3, r3
 345 00cc 002B     		cmp	r3, #0
 346 00ce DDD1     		bne	.L45
 347 00d0 16F40076 		ands	r6, r6, #512
 348 00d4 12D1     		bne	.L46
 349 00d6 3B46     		mov	r3, r7
 350 00d8 3246     		mov	r2, r6
 351 00da 8021     		movs	r1, #128
 352 00dc 2046     		mov	r0, r4
 353 00de FFF7FEFF 		bl	I2S_WaitFlagStateUntilTimeout
ARM GAS  /tmp/ccF3jdhA.s 			page 7


 354 00e2 58B1     		cbz	r0, .L46
 355 00e4 0125     		movs	r5, #1
 356 00e6 A36B     		ldr	r3, [r4, #56]
 357 00e8 43F00103 		orr	r3, r3, #1
 358 00ec A363     		str	r3, [r4, #56]
 359 00ee 84F83550 		strb	r5, [r4, #53]
 360 00f2 84F83460 		strb	r6, [r4, #52]
 361              	.L36:
 362 00f6 2846     		mov	r0, r5
 363 00f8 03B0     		add	sp, sp, #12
 364              		@ sp needed
 365 00fa F0BD     		pop	{r4, r5, r6, r7, pc}
 366              	.L46:
 367 00fc 0123     		movs	r3, #1
 368 00fe 84F83530 		strb	r3, [r4, #53]
 369 0102 BFE7     		b	.L59
 370              	.L48:
 371 0104 0125     		movs	r5, #1
 372 0106 F6E7     		b	.L36
 374              		.section	.text.HAL_I2S_Receive,"ax",%progbits
 375              		.align	1
 376              		.global	HAL_I2S_Receive
 377              		.syntax unified
 378              		.thumb
 379              		.thumb_func
 380              		.fpu softvfp
 382              	HAL_I2S_Receive:
 383              		@ args = 0, pretend = 0, frame = 8
 384              		@ frame_needed = 0, uses_anonymous_args = 0
 385 0000 37B5     		push	{r0, r1, r2, r4, r5, lr}
 386 0002 0446     		mov	r4, r0
 387 0004 1D46     		mov	r5, r3
 388 0006 0029     		cmp	r1, #0
 389 0008 6BD0     		beq	.L74
 390 000a 002A     		cmp	r2, #0
 391 000c 69D0     		beq	.L74
 392 000e 90F83430 		ldrb	r3, [r0, #52]	@ zero_extendqisi2
 393 0012 012B     		cmp	r3, #1
 394 0014 0AD0     		beq	.L75
 395 0016 0123     		movs	r3, #1
 396 0018 80F83430 		strb	r3, [r0, #52]
 397 001c 90F83530 		ldrb	r3, [r0, #53]	@ zero_extendqisi2
 398 0020 012B     		cmp	r3, #1
 399 0022 4FF00003 		mov	r3, #0
 400 0026 03D0     		beq	.L63
 401 0028 80F83430 		strb	r3, [r0, #52]
 402              	.L75:
 403 002c 0220     		movs	r0, #2
 404 002e 3EE0     		b	.L62
 405              	.L63:
 406 0030 0420     		movs	r0, #4
 407 0032 84F83500 		strb	r0, [r4, #53]
 408 0036 A363     		str	r3, [r4, #56]
 409 0038 2368     		ldr	r3, [r4]
 410 003a 6162     		str	r1, [r4, #36]
 411 003c D969     		ldr	r1, [r3, #28]
 412 003e 01F00701 		and	r1, r1, #7
ARM GAS  /tmp/ccF3jdhA.s 			page 8


 413 0042 0329     		cmp	r1, #3
 414 0044 01D0     		beq	.L64
 415 0046 0529     		cmp	r1, #5
 416 0048 01D1     		bne	.L65
 417              	.L64:
 418 004a 5200     		lsls	r2, r2, #1
 419 004c 92B2     		uxth	r2, r2
 420              	.L65:
 421 004e 2285     		strh	r2, [r4, #40]	@ movhi
 422 0050 6285     		strh	r2, [r4, #42]	@ movhi
 423 0052 DA69     		ldr	r2, [r3, #28]
 424 0054 5205     		lsls	r2, r2, #21
 425 0056 5EBF     		ittt	pl
 426 0058 DA69     		ldrpl	r2, [r3, #28]
 427 005a 42F48062 		orrpl	r2, r2, #1024
 428 005e DA61     		strpl	r2, [r3, #28]
 429 0060 DA69     		ldr	r2, [r3, #28]
 430 0062 02F44072 		and	r2, r2, #768
 431 0066 B2F5407F 		cmp	r2, #768
 432 006a 06D1     		bne	.L71
 433 006c 0022     		movs	r2, #0
 434 006e 0092     		str	r2, [sp]
 435 0070 DA68     		ldr	r2, [r3, #12]
 436 0072 0092     		str	r2, [sp]
 437 0074 9B68     		ldr	r3, [r3, #8]
 438 0076 0093     		str	r3, [sp]
 439 0078 009B     		ldr	r3, [sp]
 440              	.L71:
 441 007a 608D     		ldrh	r0, [r4, #42]
 442 007c 80B2     		uxth	r0, r0
 443 007e 28B9     		cbnz	r0, .L72
 444 0080 0123     		movs	r3, #1
 445 0082 84F83530 		strb	r3, [r4, #53]
 446 0086 84F83400 		strb	r0, [r4, #52]
 447 008a 10E0     		b	.L62
 448              	.L72:
 449 008c 0122     		movs	r2, #1
 450 008e 2B46     		mov	r3, r5
 451 0090 1146     		mov	r1, r2
 452 0092 2046     		mov	r0, r4
 453 0094 FFF7FEFF 		bl	I2S_WaitFlagStateUntilTimeout
 454 0098 58B1     		cbz	r0, .L70
 455 009a A36B     		ldr	r3, [r4, #56]
 456 009c 0120     		movs	r0, #1
 457 009e 43F00103 		orr	r3, r3, #1
 458 00a2 A363     		str	r3, [r4, #56]
 459 00a4 0023     		movs	r3, #0
 460 00a6 84F83500 		strb	r0, [r4, #53]
 461 00aa 84F83430 		strb	r3, [r4, #52]
 462              	.L62:
 463 00ae 03B0     		add	sp, sp, #12
 464              		@ sp needed
 465 00b0 30BD     		pop	{r4, r5, pc}
 466              	.L70:
 467 00b2 2268     		ldr	r2, [r4]
 468 00b4 636A     		ldr	r3, [r4, #36]
 469 00b6 D168     		ldr	r1, [r2, #12]
ARM GAS  /tmp/ccF3jdhA.s 			page 9


 470 00b8 23F8021B 		strh	r1, [r3], #2	@ movhi
 471 00bc 6362     		str	r3, [r4, #36]
 472 00be 638D     		ldrh	r3, [r4, #42]
 473 00c0 013B     		subs	r3, r3, #1
 474 00c2 9BB2     		uxth	r3, r3
 475 00c4 6385     		strh	r3, [r4, #42]	@ movhi
 476 00c6 9368     		ldr	r3, [r2, #8]
 477 00c8 5B06     		lsls	r3, r3, #25
 478 00ca D6D5     		bpl	.L71
 479 00cc 0190     		str	r0, [sp, #4]
 480 00ce D368     		ldr	r3, [r2, #12]
 481 00d0 0193     		str	r3, [sp, #4]
 482 00d2 9368     		ldr	r3, [r2, #8]
 483 00d4 0193     		str	r3, [sp, #4]
 484 00d6 019B     		ldr	r3, [sp, #4]
 485 00d8 A36B     		ldr	r3, [r4, #56]
 486 00da 43F00203 		orr	r3, r3, #2
 487 00de A363     		str	r3, [r4, #56]
 488 00e0 CBE7     		b	.L71
 489              	.L74:
 490 00e2 0120     		movs	r0, #1
 491 00e4 E3E7     		b	.L62
 493              		.section	.text.HAL_I2S_Transmit_IT,"ax",%progbits
 494              		.align	1
 495              		.global	HAL_I2S_Transmit_IT
 496              		.syntax unified
 497              		.thumb
 498              		.thumb_func
 499              		.fpu softvfp
 501              	HAL_I2S_Transmit_IT:
 502              		@ args = 0, pretend = 0, frame = 0
 503              		@ frame_needed = 0, uses_anonymous_args = 0
 504 0000 10B5     		push	{r4, lr}
 505 0002 0029     		cmp	r1, #0
 506 0004 33D0     		beq	.L89
 507 0006 002A     		cmp	r2, #0
 508 0008 31D0     		beq	.L89
 509 000a 90F83430 		ldrb	r3, [r0, #52]	@ zero_extendqisi2
 510 000e 012B     		cmp	r3, #1
 511 0010 0AD0     		beq	.L90
 512 0012 0123     		movs	r3, #1
 513 0014 80F83430 		strb	r3, [r0, #52]
 514 0018 90F83530 		ldrb	r3, [r0, #53]	@ zero_extendqisi2
 515 001c 012B     		cmp	r3, #1
 516 001e 4FF00003 		mov	r3, #0
 517 0022 03D0     		beq	.L83
 518 0024 80F83430 		strb	r3, [r0, #52]
 519              	.L90:
 520 0028 0220     		movs	r0, #2
 521 002a 10BD     		pop	{r4, pc}
 522              	.L83:
 523 002c 0324     		movs	r4, #3
 524 002e 80F83540 		strb	r4, [r0, #53]
 525 0032 8363     		str	r3, [r0, #56]
 526 0034 0368     		ldr	r3, [r0]
 527 0036 C161     		str	r1, [r0, #28]
 528 0038 D969     		ldr	r1, [r3, #28]
ARM GAS  /tmp/ccF3jdhA.s 			page 10


 529 003a 01F00701 		and	r1, r1, #7
 530 003e A142     		cmp	r1, r4
 531 0040 01D0     		beq	.L84
 532 0042 0529     		cmp	r1, #5
 533 0044 01D1     		bne	.L85
 534              	.L84:
 535 0046 5200     		lsls	r2, r2, #1
 536 0048 92B2     		uxth	r2, r2
 537              	.L85:
 538 004a 0284     		strh	r2, [r0, #32]	@ movhi
 539 004c 4284     		strh	r2, [r0, #34]	@ movhi
 540 004e 5A68     		ldr	r2, [r3, #4]
 541 0050 42F0A002 		orr	r2, r2, #160
 542 0054 5A60     		str	r2, [r3, #4]
 543 0056 DA69     		ldr	r2, [r3, #28]
 544 0058 5205     		lsls	r2, r2, #21
 545 005a 5EBF     		ittt	pl
 546 005c DA69     		ldrpl	r2, [r3, #28]
 547 005e 42F48062 		orrpl	r2, r2, #1024
 548 0062 DA61     		strpl	r2, [r3, #28]
 549 0064 0023     		movs	r3, #0
 550 0066 80F83430 		strb	r3, [r0, #52]
 551 006a 1846     		mov	r0, r3
 552 006c 10BD     		pop	{r4, pc}
 553              	.L89:
 554 006e 0120     		movs	r0, #1
 555 0070 10BD     		pop	{r4, pc}
 557              		.section	.text.HAL_I2S_Receive_IT,"ax",%progbits
 558              		.align	1
 559              		.global	HAL_I2S_Receive_IT
 560              		.syntax unified
 561              		.thumb
 562              		.thumb_func
 563              		.fpu softvfp
 565              	HAL_I2S_Receive_IT:
 566              		@ args = 0, pretend = 0, frame = 0
 567              		@ frame_needed = 0, uses_anonymous_args = 0
 568 0000 10B5     		push	{r4, lr}
 569 0002 0029     		cmp	r1, #0
 570 0004 33D0     		beq	.L102
 571 0006 002A     		cmp	r2, #0
 572 0008 31D0     		beq	.L102
 573 000a 90F83430 		ldrb	r3, [r0, #52]	@ zero_extendqisi2
 574 000e 012B     		cmp	r3, #1
 575 0010 0AD0     		beq	.L103
 576 0012 0123     		movs	r3, #1
 577 0014 80F83430 		strb	r3, [r0, #52]
 578 0018 90F83530 		ldrb	r3, [r0, #53]	@ zero_extendqisi2
 579 001c 012B     		cmp	r3, #1
 580 001e 4FF00003 		mov	r3, #0
 581 0022 03D0     		beq	.L96
 582 0024 80F83430 		strb	r3, [r0, #52]
 583              	.L103:
 584 0028 0220     		movs	r0, #2
 585 002a 10BD     		pop	{r4, pc}
 586              	.L96:
 587 002c 0424     		movs	r4, #4
ARM GAS  /tmp/ccF3jdhA.s 			page 11


 588 002e 80F83540 		strb	r4, [r0, #53]
 589 0032 8363     		str	r3, [r0, #56]
 590 0034 0368     		ldr	r3, [r0]
 591 0036 4162     		str	r1, [r0, #36]
 592 0038 D969     		ldr	r1, [r3, #28]
 593 003a 01F00701 		and	r1, r1, #7
 594 003e 0329     		cmp	r1, #3
 595 0040 01D0     		beq	.L97
 596 0042 0529     		cmp	r1, #5
 597 0044 01D1     		bne	.L98
 598              	.L97:
 599 0046 5200     		lsls	r2, r2, #1
 600 0048 92B2     		uxth	r2, r2
 601              	.L98:
 602 004a 0285     		strh	r2, [r0, #40]	@ movhi
 603 004c 4285     		strh	r2, [r0, #42]	@ movhi
 604 004e 5A68     		ldr	r2, [r3, #4]
 605 0050 42F06002 		orr	r2, r2, #96
 606 0054 5A60     		str	r2, [r3, #4]
 607 0056 DA69     		ldr	r2, [r3, #28]
 608 0058 5205     		lsls	r2, r2, #21
 609 005a 5EBF     		ittt	pl
 610 005c DA69     		ldrpl	r2, [r3, #28]
 611 005e 42F48062 		orrpl	r2, r2, #1024
 612 0062 DA61     		strpl	r2, [r3, #28]
 613 0064 0023     		movs	r3, #0
 614 0066 80F83430 		strb	r3, [r0, #52]
 615 006a 1846     		mov	r0, r3
 616 006c 10BD     		pop	{r4, pc}
 617              	.L102:
 618 006e 0120     		movs	r0, #1
 619 0070 10BD     		pop	{r4, pc}
 621              		.section	.text.HAL_I2S_Transmit_DMA,"ax",%progbits
 622              		.align	1
 623              		.global	HAL_I2S_Transmit_DMA
 624              		.syntax unified
 625              		.thumb
 626              		.thumb_func
 627              		.fpu softvfp
 629              	HAL_I2S_Transmit_DMA:
 630              		@ args = 0, pretend = 0, frame = 0
 631              		@ frame_needed = 0, uses_anonymous_args = 0
 632 0000 38B5     		push	{r3, r4, r5, lr}
 633 0002 0446     		mov	r4, r0
 634 0004 0029     		cmp	r1, #0
 635 0006 4FD0     		beq	.L117
 636 0008 002A     		cmp	r2, #0
 637 000a 4DD0     		beq	.L117
 638 000c 90F83430 		ldrb	r3, [r0, #52]	@ zero_extendqisi2
 639 0010 012B     		cmp	r3, #1
 640 0012 0AD0     		beq	.L118
 641 0014 0123     		movs	r3, #1
 642 0016 80F83430 		strb	r3, [r0, #52]
 643 001a 90F83530 		ldrb	r3, [r0, #53]	@ zero_extendqisi2
 644 001e 012B     		cmp	r3, #1
 645 0020 4FF00003 		mov	r3, #0
 646 0024 03D0     		beq	.L109
ARM GAS  /tmp/ccF3jdhA.s 			page 12


 647 0026 80F83430 		strb	r3, [r0, #52]
 648              	.L118:
 649 002a 0220     		movs	r0, #2
 650 002c 38BD     		pop	{r3, r4, r5, pc}
 651              	.L109:
 652 002e 0320     		movs	r0, #3
 653 0030 2568     		ldr	r5, [r4]
 654 0032 84F83500 		strb	r0, [r4, #53]
 655 0036 A363     		str	r3, [r4, #56]
 656 0038 EB69     		ldr	r3, [r5, #28]
 657 003a E161     		str	r1, [r4, #28]
 658 003c 03F00703 		and	r3, r3, #7
 659 0040 8342     		cmp	r3, r0
 660 0042 01D0     		beq	.L110
 661 0044 052B     		cmp	r3, #5
 662 0046 1CD1     		bne	.L111
 663              	.L110:
 664 0048 5300     		lsls	r3, r2, #1
 665 004a 9BB2     		uxth	r3, r3
 666 004c 2384     		strh	r3, [r4, #32]	@ movhi
 667 004e 6384     		strh	r3, [r4, #34]	@ movhi
 668              	.L112:
 669 0050 E06A     		ldr	r0, [r4, #44]
 670 0052 164B     		ldr	r3, .L122
 671 0054 05F10C02 		add	r2, r5, #12
 672 0058 C362     		str	r3, [r0, #44]
 673 005a 154B     		ldr	r3, .L122+4
 674 005c 8362     		str	r3, [r0, #40]
 675 005e 154B     		ldr	r3, .L122+8
 676 0060 0363     		str	r3, [r0, #48]
 677 0062 238C     		ldrh	r3, [r4, #32]
 678 0064 9BB2     		uxth	r3, r3
 679 0066 FFF7FEFF 		bl	HAL_DMA_Start_IT
 680 006a 68B1     		cbz	r0, .L113
 681 006c 0120     		movs	r0, #1
 682 006e A36B     		ldr	r3, [r4, #56]
 683 0070 43F00803 		orr	r3, r3, #8
 684 0074 A363     		str	r3, [r4, #56]
 685 0076 84F83500 		strb	r0, [r4, #53]
 686              	.L115:
 687 007a 0023     		movs	r3, #0
 688 007c 84F83430 		strb	r3, [r4, #52]
 689 0080 38BD     		pop	{r3, r4, r5, pc}
 690              	.L111:
 691 0082 2284     		strh	r2, [r4, #32]	@ movhi
 692 0084 6284     		strh	r2, [r4, #34]	@ movhi
 693 0086 E3E7     		b	.L112
 694              	.L113:
 695 0088 2368     		ldr	r3, [r4]
 696 008a DA69     		ldr	r2, [r3, #28]
 697 008c 5105     		lsls	r1, r2, #21
 698 008e 5EBF     		ittt	pl
 699 0090 DA69     		ldrpl	r2, [r3, #28]
 700 0092 42F48062 		orrpl	r2, r2, #1024
 701 0096 DA61     		strpl	r2, [r3, #28]
 702 0098 5A68     		ldr	r2, [r3, #4]
 703 009a 9207     		lsls	r2, r2, #30
ARM GAS  /tmp/ccF3jdhA.s 			page 13


 704 009c 5EBF     		ittt	pl
 705 009e 5A68     		ldrpl	r2, [r3, #4]
 706 00a0 42F00202 		orrpl	r2, r2, #2
 707 00a4 5A60     		strpl	r2, [r3, #4]
 708 00a6 E8E7     		b	.L115
 709              	.L117:
 710 00a8 0120     		movs	r0, #1
 711 00aa 38BD     		pop	{r3, r4, r5, pc}
 712              	.L123:
 713              		.align	2
 714              	.L122:
 715 00ac 00000000 		.word	I2S_DMATxHalfCplt
 716 00b0 00000000 		.word	I2S_DMATxCplt
 717 00b4 00000000 		.word	I2S_DMAError
 719              		.section	.text.HAL_I2S_Receive_DMA,"ax",%progbits
 720              		.align	1
 721              		.global	HAL_I2S_Receive_DMA
 722              		.syntax unified
 723              		.thumb
 724              		.thumb_func
 725              		.fpu softvfp
 727              	HAL_I2S_Receive_DMA:
 728              		@ args = 0, pretend = 0, frame = 8
 729              		@ frame_needed = 0, uses_anonymous_args = 0
 730 0000 13B5     		push	{r0, r1, r4, lr}
 731 0002 1346     		mov	r3, r2
 732 0004 0446     		mov	r4, r0
 733 0006 0A46     		mov	r2, r1
 734 0008 0029     		cmp	r1, #0
 735 000a 59D0     		beq	.L135
 736 000c 002B     		cmp	r3, #0
 737 000e 57D0     		beq	.L135
 738 0010 90F83410 		ldrb	r1, [r0, #52]	@ zero_extendqisi2
 739 0014 0129     		cmp	r1, #1
 740 0016 0AD0     		beq	.L136
 741 0018 0121     		movs	r1, #1
 742 001a 80F83410 		strb	r1, [r0, #52]
 743 001e 90F83510 		ldrb	r1, [r0, #53]	@ zero_extendqisi2
 744 0022 0129     		cmp	r1, #1
 745 0024 4FF00001 		mov	r1, #0
 746 0028 03D0     		beq	.L126
 747 002a 80F83410 		strb	r1, [r0, #52]
 748              	.L136:
 749 002e 0220     		movs	r0, #2
 750 0030 34E0     		b	.L125
 751              	.L126:
 752 0032 0420     		movs	r0, #4
 753 0034 84F83500 		strb	r0, [r4, #53]
 754 0038 A163     		str	r1, [r4, #56]
 755 003a 2168     		ldr	r1, [r4]
 756 003c 6262     		str	r2, [r4, #36]
 757 003e C869     		ldr	r0, [r1, #28]
 758 0040 00F00700 		and	r0, r0, #7
 759 0044 0328     		cmp	r0, #3
 760 0046 01D0     		beq	.L127
 761 0048 0528     		cmp	r0, #5
 762 004a 01D1     		bne	.L128
ARM GAS  /tmp/ccF3jdhA.s 			page 14


 763              	.L127:
 764 004c 5B00     		lsls	r3, r3, #1
 765 004e 9BB2     		uxth	r3, r3
 766              	.L128:
 767 0050 2385     		strh	r3, [r4, #40]	@ movhi
 768 0052 206B     		ldr	r0, [r4, #48]
 769 0054 6385     		strh	r3, [r4, #42]	@ movhi
 770 0056 1B4B     		ldr	r3, .L140
 771 0058 C362     		str	r3, [r0, #44]
 772 005a 1B4B     		ldr	r3, .L140+4
 773 005c 8362     		str	r3, [r0, #40]
 774 005e 1B4B     		ldr	r3, .L140+8
 775 0060 0363     		str	r3, [r0, #48]
 776 0062 CB69     		ldr	r3, [r1, #28]
 777 0064 03F44073 		and	r3, r3, #768
 778 0068 B3F5407F 		cmp	r3, #768
 779 006c 06D1     		bne	.L130
 780 006e 0023     		movs	r3, #0
 781 0070 0193     		str	r3, [sp, #4]
 782 0072 CB68     		ldr	r3, [r1, #12]
 783 0074 0193     		str	r3, [sp, #4]
 784 0076 8B68     		ldr	r3, [r1, #8]
 785 0078 0193     		str	r3, [sp, #4]
 786 007a 019B     		ldr	r3, [sp, #4]
 787              	.L130:
 788 007c 238D     		ldrh	r3, [r4, #40]
 789 007e 0C31     		adds	r1, r1, #12
 790 0080 9BB2     		uxth	r3, r3
 791 0082 FFF7FEFF 		bl	HAL_DMA_Start_IT
 792 0086 58B1     		cbz	r0, .L131
 793 0088 0120     		movs	r0, #1
 794 008a A36B     		ldr	r3, [r4, #56]
 795 008c 43F00803 		orr	r3, r3, #8
 796 0090 A363     		str	r3, [r4, #56]
 797 0092 84F83500 		strb	r0, [r4, #53]
 798              	.L133:
 799 0096 0023     		movs	r3, #0
 800 0098 84F83430 		strb	r3, [r4, #52]
 801              	.L125:
 802 009c 02B0     		add	sp, sp, #8
 803              		@ sp needed
 804 009e 10BD     		pop	{r4, pc}
 805              	.L131:
 806 00a0 2368     		ldr	r3, [r4]
 807 00a2 DA69     		ldr	r2, [r3, #28]
 808 00a4 5105     		lsls	r1, r2, #21
 809 00a6 5EBF     		ittt	pl
 810 00a8 DA69     		ldrpl	r2, [r3, #28]
 811 00aa 42F48062 		orrpl	r2, r2, #1024
 812 00ae DA61     		strpl	r2, [r3, #28]
 813 00b0 5A68     		ldr	r2, [r3, #4]
 814 00b2 D207     		lsls	r2, r2, #31
 815 00b4 5EBF     		ittt	pl
 816 00b6 5A68     		ldrpl	r2, [r3, #4]
 817 00b8 42F00102 		orrpl	r2, r2, #1
 818 00bc 5A60     		strpl	r2, [r3, #4]
 819 00be EAE7     		b	.L133
ARM GAS  /tmp/ccF3jdhA.s 			page 15


 820              	.L135:
 821 00c0 0120     		movs	r0, #1
 822 00c2 EBE7     		b	.L125
 823              	.L141:
 824              		.align	2
 825              	.L140:
 826 00c4 00000000 		.word	I2S_DMARxHalfCplt
 827 00c8 00000000 		.word	I2S_DMARxCplt
 828 00cc 00000000 		.word	I2S_DMAError
 830              		.section	.text.HAL_I2S_DMAPause,"ax",%progbits
 831              		.align	1
 832              		.global	HAL_I2S_DMAPause
 833              		.syntax unified
 834              		.thumb
 835              		.thumb_func
 836              		.fpu softvfp
 838              	HAL_I2S_DMAPause:
 839              		@ args = 0, pretend = 0, frame = 0
 840              		@ frame_needed = 0, uses_anonymous_args = 0
 841              		@ link register save eliminated.
 842 0000 90F83430 		ldrb	r3, [r0, #52]	@ zero_extendqisi2
 843 0004 012B     		cmp	r3, #1
 844 0006 19D0     		beq	.L146
 845 0008 0123     		movs	r3, #1
 846 000a 80F83430 		strb	r3, [r0, #52]
 847 000e 90F83530 		ldrb	r3, [r0, #53]	@ zero_extendqisi2
 848 0012 032B     		cmp	r3, #3
 849 0014 09D1     		bne	.L144
 850 0016 0268     		ldr	r2, [r0]
 851 0018 5368     		ldr	r3, [r2, #4]
 852 001a 23F00203 		bic	r3, r3, #2
 853              	.L147:
 854 001e 5360     		str	r3, [r2, #4]
 855              	.L145:
 856 0020 0023     		movs	r3, #0
 857 0022 80F83430 		strb	r3, [r0, #52]
 858 0026 1846     		mov	r0, r3
 859 0028 7047     		bx	lr
 860              	.L144:
 861 002a 90F83530 		ldrb	r3, [r0, #53]	@ zero_extendqisi2
 862 002e 042B     		cmp	r3, #4
 863 0030 F6D1     		bne	.L145
 864 0032 0268     		ldr	r2, [r0]
 865 0034 5368     		ldr	r3, [r2, #4]
 866 0036 23F00103 		bic	r3, r3, #1
 867 003a F0E7     		b	.L147
 868              	.L146:
 869 003c 0220     		movs	r0, #2
 870 003e 7047     		bx	lr
 872              		.section	.text.HAL_I2S_DMAResume,"ax",%progbits
 873              		.align	1
 874              		.global	HAL_I2S_DMAResume
 875              		.syntax unified
 876              		.thumb
 877              		.thumb_func
 878              		.fpu softvfp
 880              	HAL_I2S_DMAResume:
ARM GAS  /tmp/ccF3jdhA.s 			page 16


 881              		@ args = 0, pretend = 0, frame = 0
 882              		@ frame_needed = 0, uses_anonymous_args = 0
 883              		@ link register save eliminated.
 884 0000 90F83430 		ldrb	r3, [r0, #52]	@ zero_extendqisi2
 885 0004 012B     		cmp	r3, #1
 886 0006 1FD0     		beq	.L153
 887 0008 0123     		movs	r3, #1
 888 000a 80F83430 		strb	r3, [r0, #52]
 889 000e 90F83530 		ldrb	r3, [r0, #53]	@ zero_extendqisi2
 890 0012 032B     		cmp	r3, #3
 891 0014 0368     		ldr	r3, [r0]
 892 0016 0FD1     		bne	.L150
 893 0018 5A68     		ldr	r2, [r3, #4]
 894 001a 42F00202 		orr	r2, r2, #2
 895              	.L154:
 896 001e 5A60     		str	r2, [r3, #4]
 897              	.L151:
 898 0020 DA69     		ldr	r2, [r3, #28]
 899 0022 5205     		lsls	r2, r2, #21
 900 0024 5EBF     		ittt	pl
 901 0026 DA69     		ldrpl	r2, [r3, #28]
 902 0028 42F48062 		orrpl	r2, r2, #1024
 903 002c DA61     		strpl	r2, [r3, #28]
 904 002e 0023     		movs	r3, #0
 905 0030 80F83430 		strb	r3, [r0, #52]
 906 0034 1846     		mov	r0, r3
 907 0036 7047     		bx	lr
 908              	.L150:
 909 0038 90F83520 		ldrb	r2, [r0, #53]	@ zero_extendqisi2
 910 003c 042A     		cmp	r2, #4
 911 003e EFD1     		bne	.L151
 912 0040 5A68     		ldr	r2, [r3, #4]
 913 0042 42F00102 		orr	r2, r2, #1
 914 0046 EAE7     		b	.L154
 915              	.L153:
 916 0048 0220     		movs	r0, #2
 917 004a 7047     		bx	lr
 919              		.section	.text.HAL_I2S_DMAStop,"ax",%progbits
 920              		.align	1
 921              		.global	HAL_I2S_DMAStop
 922              		.syntax unified
 923              		.thumb
 924              		.thumb_func
 925              		.fpu softvfp
 927              	HAL_I2S_DMAStop:
 928              		@ args = 0, pretend = 0, frame = 0
 929              		@ frame_needed = 0, uses_anonymous_args = 0
 930 0000 38B5     		push	{r3, r4, r5, lr}
 931 0002 0368     		ldr	r3, [r0]
 932 0004 0446     		mov	r4, r0
 933 0006 5A68     		ldr	r2, [r3, #4]
 934 0008 C06A     		ldr	r0, [r0, #44]
 935 000a 22F00202 		bic	r2, r2, #2
 936 000e 5A60     		str	r2, [r3, #4]
 937 0010 5A68     		ldr	r2, [r3, #4]
 938 0012 22F00102 		bic	r2, r2, #1
 939 0016 5A60     		str	r2, [r3, #4]
ARM GAS  /tmp/ccF3jdhA.s 			page 17


 940 0018 A0B9     		cbnz	r0, .L156
 941              	.L158:
 942 001a 0025     		movs	r5, #0
 943              	.L157:
 944 001c 206B     		ldr	r0, [r4, #48]
 945 001e 38B1     		cbz	r0, .L159
 946 0020 FFF7FEFF 		bl	HAL_DMA_Abort
 947 0024 20B1     		cbz	r0, .L159
 948 0026 0125     		movs	r5, #1
 949 0028 A36B     		ldr	r3, [r4, #56]
 950 002a 43F00803 		orr	r3, r3, #8
 951 002e A363     		str	r3, [r4, #56]
 952              	.L159:
 953 0030 2268     		ldr	r2, [r4]
 954 0032 2846     		mov	r0, r5
 955 0034 D369     		ldr	r3, [r2, #28]
 956 0036 23F48063 		bic	r3, r3, #1024
 957 003a D361     		str	r3, [r2, #28]
 958 003c 0123     		movs	r3, #1
 959 003e 84F83530 		strb	r3, [r4, #53]
 960 0042 38BD     		pop	{r3, r4, r5, pc}
 961              	.L156:
 962 0044 FFF7FEFF 		bl	HAL_DMA_Abort
 963 0048 0028     		cmp	r0, #0
 964 004a E6D0     		beq	.L158
 965 004c A36B     		ldr	r3, [r4, #56]
 966 004e 0125     		movs	r5, #1
 967 0050 43F00803 		orr	r3, r3, #8
 968 0054 A363     		str	r3, [r4, #56]
 969 0056 E1E7     		b	.L157
 971              		.section	.text.HAL_I2S_TxHalfCpltCallback,"ax",%progbits
 972              		.align	1
 973              		.weak	HAL_I2S_TxHalfCpltCallback
 974              		.syntax unified
 975              		.thumb
 976              		.thumb_func
 977              		.fpu softvfp
 979              	HAL_I2S_TxHalfCpltCallback:
 980              		@ args = 0, pretend = 0, frame = 0
 981              		@ frame_needed = 0, uses_anonymous_args = 0
 982              		@ link register save eliminated.
 983 0000 7047     		bx	lr
 985              		.section	.text.I2S_DMATxHalfCplt,"ax",%progbits
 986              		.align	1
 987              		.syntax unified
 988              		.thumb
 989              		.thumb_func
 990              		.fpu softvfp
 992              	I2S_DMATxHalfCplt:
 993              		@ args = 0, pretend = 0, frame = 0
 994              		@ frame_needed = 0, uses_anonymous_args = 0
 995 0000 08B5     		push	{r3, lr}
 996 0002 406A     		ldr	r0, [r0, #36]
 997 0004 FFF7FEFF 		bl	HAL_I2S_TxHalfCpltCallback
 998 0008 08BD     		pop	{r3, pc}
 1000              		.section	.text.HAL_I2S_TxCpltCallback,"ax",%progbits
 1001              		.align	1
ARM GAS  /tmp/ccF3jdhA.s 			page 18


 1002              		.weak	HAL_I2S_TxCpltCallback
 1003              		.syntax unified
 1004              		.thumb
 1005              		.thumb_func
 1006              		.fpu softvfp
 1008              	HAL_I2S_TxCpltCallback:
 1009              		@ args = 0, pretend = 0, frame = 0
 1010              		@ frame_needed = 0, uses_anonymous_args = 0
 1011              		@ link register save eliminated.
 1012 0000 7047     		bx	lr
 1014              		.section	.text.I2S_DMATxCplt,"ax",%progbits
 1015              		.align	1
 1016              		.syntax unified
 1017              		.thumb
 1018              		.thumb_func
 1019              		.fpu softvfp
 1021              	I2S_DMATxCplt:
 1022              		@ args = 0, pretend = 0, frame = 0
 1023              		@ frame_needed = 0, uses_anonymous_args = 0
 1024 0000 8169     		ldr	r1, [r0, #24]
 1025 0002 08B5     		push	{r3, lr}
 1026 0004 436A     		ldr	r3, [r0, #36]
 1027 0006 41B9     		cbnz	r1, .L173
 1028 0008 1868     		ldr	r0, [r3]
 1029 000a 4268     		ldr	r2, [r0, #4]
 1030 000c 22F00202 		bic	r2, r2, #2
 1031 0010 4260     		str	r2, [r0, #4]
 1032 0012 0122     		movs	r2, #1
 1033 0014 5984     		strh	r1, [r3, #34]	@ movhi
 1034 0016 83F83520 		strb	r2, [r3, #53]
 1035              	.L173:
 1036 001a 1846     		mov	r0, r3
 1037 001c FFF7FEFF 		bl	HAL_I2S_TxCpltCallback
 1038 0020 08BD     		pop	{r3, pc}
 1040              		.section	.text.HAL_I2S_RxHalfCpltCallback,"ax",%progbits
 1041              		.align	1
 1042              		.weak	HAL_I2S_RxHalfCpltCallback
 1043              		.syntax unified
 1044              		.thumb
 1045              		.thumb_func
 1046              		.fpu softvfp
 1048              	HAL_I2S_RxHalfCpltCallback:
 1049              		@ args = 0, pretend = 0, frame = 0
 1050              		@ frame_needed = 0, uses_anonymous_args = 0
 1051              		@ link register save eliminated.
 1052 0000 7047     		bx	lr
 1054              		.section	.text.I2S_DMARxHalfCplt,"ax",%progbits
 1055              		.align	1
 1056              		.syntax unified
 1057              		.thumb
 1058              		.thumb_func
 1059              		.fpu softvfp
 1061              	I2S_DMARxHalfCplt:
 1062              		@ args = 0, pretend = 0, frame = 0
 1063              		@ frame_needed = 0, uses_anonymous_args = 0
 1064 0000 08B5     		push	{r3, lr}
 1065 0002 406A     		ldr	r0, [r0, #36]
ARM GAS  /tmp/ccF3jdhA.s 			page 19


 1066 0004 FFF7FEFF 		bl	HAL_I2S_RxHalfCpltCallback
 1067 0008 08BD     		pop	{r3, pc}
 1069              		.section	.text.HAL_I2S_RxCpltCallback,"ax",%progbits
 1070              		.align	1
 1071              		.weak	HAL_I2S_RxCpltCallback
 1072              		.syntax unified
 1073              		.thumb
 1074              		.thumb_func
 1075              		.fpu softvfp
 1077              	HAL_I2S_RxCpltCallback:
 1078              		@ args = 0, pretend = 0, frame = 0
 1079              		@ frame_needed = 0, uses_anonymous_args = 0
 1080              		@ link register save eliminated.
 1081 0000 7047     		bx	lr
 1083              		.section	.text.I2S_DMARxCplt,"ax",%progbits
 1084              		.align	1
 1085              		.syntax unified
 1086              		.thumb
 1087              		.thumb_func
 1088              		.fpu softvfp
 1090              	I2S_DMARxCplt:
 1091              		@ args = 0, pretend = 0, frame = 0
 1092              		@ frame_needed = 0, uses_anonymous_args = 0
 1093 0000 8169     		ldr	r1, [r0, #24]
 1094 0002 08B5     		push	{r3, lr}
 1095 0004 436A     		ldr	r3, [r0, #36]
 1096 0006 41B9     		cbnz	r1, .L178
 1097 0008 1868     		ldr	r0, [r3]
 1098 000a 4268     		ldr	r2, [r0, #4]
 1099 000c 22F00102 		bic	r2, r2, #1
 1100 0010 4260     		str	r2, [r0, #4]
 1101 0012 0122     		movs	r2, #1
 1102 0014 5985     		strh	r1, [r3, #42]	@ movhi
 1103 0016 83F83520 		strb	r2, [r3, #53]
 1104              	.L178:
 1105 001a 1846     		mov	r0, r3
 1106 001c FFF7FEFF 		bl	HAL_I2S_RxCpltCallback
 1107 0020 08BD     		pop	{r3, pc}
 1109              		.section	.text.HAL_I2S_ErrorCallback,"ax",%progbits
 1110              		.align	1
 1111              		.weak	HAL_I2S_ErrorCallback
 1112              		.syntax unified
 1113              		.thumb
 1114              		.thumb_func
 1115              		.fpu softvfp
 1117              	HAL_I2S_ErrorCallback:
 1118              		@ args = 0, pretend = 0, frame = 0
 1119              		@ frame_needed = 0, uses_anonymous_args = 0
 1120              		@ link register save eliminated.
 1121 0000 7047     		bx	lr
 1123              		.section	.text.I2S_DMAError,"ax",%progbits
 1124              		.align	1
 1125              		.syntax unified
 1126              		.thumb
 1127              		.thumb_func
 1128              		.fpu softvfp
 1130              	I2S_DMAError:
ARM GAS  /tmp/ccF3jdhA.s 			page 20


 1131              		@ args = 0, pretend = 0, frame = 0
 1132              		@ frame_needed = 0, uses_anonymous_args = 0
 1133 0000 406A     		ldr	r0, [r0, #36]
 1134 0002 08B5     		push	{r3, lr}
 1135 0004 0268     		ldr	r2, [r0]
 1136 0006 5368     		ldr	r3, [r2, #4]
 1137 0008 23F00303 		bic	r3, r3, #3
 1138 000c 5360     		str	r3, [r2, #4]
 1139 000e 0023     		movs	r3, #0
 1140 0010 4384     		strh	r3, [r0, #34]	@ movhi
 1141 0012 4385     		strh	r3, [r0, #42]	@ movhi
 1142 0014 0123     		movs	r3, #1
 1143 0016 80F83530 		strb	r3, [r0, #53]
 1144 001a 836B     		ldr	r3, [r0, #56]
 1145 001c 43F00803 		orr	r3, r3, #8
 1146 0020 8363     		str	r3, [r0, #56]
 1147 0022 FFF7FEFF 		bl	HAL_I2S_ErrorCallback
 1148 0026 08BD     		pop	{r3, pc}
 1150              		.section	.text.HAL_I2S_IRQHandler,"ax",%progbits
 1151              		.align	1
 1152              		.global	HAL_I2S_IRQHandler
 1153              		.syntax unified
 1154              		.thumb
 1155              		.thumb_func
 1156              		.fpu softvfp
 1158              	HAL_I2S_IRQHandler:
 1159              		@ args = 0, pretend = 0, frame = 0
 1160              		@ frame_needed = 0, uses_anonymous_args = 0
 1161 0000 0268     		ldr	r2, [r0]
 1162 0002 38B5     		push	{r3, r4, r5, lr}
 1163 0004 5468     		ldr	r4, [r2, #4]
 1164 0006 9168     		ldr	r1, [r2, #8]
 1165 0008 0346     		mov	r3, r0
 1166 000a 01F04105 		and	r5, r1, #65
 1167 000e 012D     		cmp	r5, #1
 1168 0010 18D1     		bne	.L182
 1169 0012 14F0400F 		tst	r4, #64
 1170 0016 15D0     		beq	.L182
 1171 0018 D468     		ldr	r4, [r2, #12]
 1172 001a 416A     		ldr	r1, [r0, #36]
 1173 001c 21F8024B 		strh	r4, [r1], #2	@ movhi
 1174 0020 4162     		str	r1, [r0, #36]
 1175 0022 418D     		ldrh	r1, [r0, #42]
 1176 0024 0139     		subs	r1, r1, #1
 1177 0026 89B2     		uxth	r1, r1
 1178 0028 4185     		strh	r1, [r0, #42]	@ movhi
 1179 002a 418D     		ldrh	r1, [r0, #42]
 1180 002c 89B2     		uxth	r1, r1
 1181 002e 0029     		cmp	r1, #0
 1182 0030 3FD1     		bne	.L181
 1183 0032 5168     		ldr	r1, [r2, #4]
 1184 0034 21F06001 		bic	r1, r1, #96
 1185 0038 5160     		str	r1, [r2, #4]
 1186 003a 80F83550 		strb	r5, [r0, #53]
 1187 003e FFF7FEFF 		bl	HAL_I2S_RxCpltCallback
 1188 0042 38BD     		pop	{r3, r4, r5, pc}
 1189              	.L182:
ARM GAS  /tmp/ccF3jdhA.s 			page 21


 1190 0044 8807     		lsls	r0, r1, #30
 1191 0046 18D5     		bpl	.L185
 1192 0048 2506     		lsls	r5, r4, #24
 1193 004a 16D5     		bpl	.L185
 1194 004c D969     		ldr	r1, [r3, #28]
 1195 004e 31F8020B 		ldrh	r0, [r1], #2
 1196 0052 D060     		str	r0, [r2, #12]
 1197 0054 D961     		str	r1, [r3, #28]
 1198 0056 598C     		ldrh	r1, [r3, #34]
 1199 0058 0139     		subs	r1, r1, #1
 1200 005a 89B2     		uxth	r1, r1
 1201 005c 5984     		strh	r1, [r3, #34]	@ movhi
 1202 005e 598C     		ldrh	r1, [r3, #34]
 1203 0060 89B2     		uxth	r1, r1
 1204 0062 31BB     		cbnz	r1, .L181
 1205 0064 5168     		ldr	r1, [r2, #4]
 1206 0066 1846     		mov	r0, r3
 1207 0068 21F0A001 		bic	r1, r1, #160
 1208 006c 5160     		str	r1, [r2, #4]
 1209 006e 0122     		movs	r2, #1
 1210 0070 83F83520 		strb	r2, [r3, #53]
 1211 0074 FFF7FEFF 		bl	HAL_I2S_TxCpltCallback
 1212 0078 38BD     		pop	{r3, r4, r5, pc}
 1213              	.L185:
 1214 007a A406     		lsls	r4, r4, #26
 1215 007c 19D5     		bpl	.L181
 1216 007e 4806     		lsls	r0, r1, #25
 1217 0080 07D5     		bpl	.L187
 1218 0082 5068     		ldr	r0, [r2, #4]
 1219 0084 20F06000 		bic	r0, r0, #96
 1220 0088 5060     		str	r0, [r2, #4]
 1221 008a 986B     		ldr	r0, [r3, #56]
 1222 008c 40F00200 		orr	r0, r0, #2
 1223 0090 9863     		str	r0, [r3, #56]
 1224              	.L187:
 1225 0092 0907     		lsls	r1, r1, #28
 1226 0094 07D5     		bpl	.L188
 1227 0096 5168     		ldr	r1, [r2, #4]
 1228 0098 21F0A001 		bic	r1, r1, #160
 1229 009c 5160     		str	r1, [r2, #4]
 1230 009e 9A6B     		ldr	r2, [r3, #56]
 1231 00a0 42F00402 		orr	r2, r2, #4
 1232 00a4 9A63     		str	r2, [r3, #56]
 1233              	.L188:
 1234 00a6 0122     		movs	r2, #1
 1235 00a8 1846     		mov	r0, r3
 1236 00aa 83F83520 		strb	r2, [r3, #53]
 1237 00ae FFF7FEFF 		bl	HAL_I2S_ErrorCallback
 1238              	.L181:
 1239 00b2 38BD     		pop	{r3, r4, r5, pc}
 1241              		.section	.text.HAL_I2S_GetState,"ax",%progbits
 1242              		.align	1
 1243              		.global	HAL_I2S_GetState
 1244              		.syntax unified
 1245              		.thumb
 1246              		.thumb_func
 1247              		.fpu softvfp
ARM GAS  /tmp/ccF3jdhA.s 			page 22


 1249              	HAL_I2S_GetState:
 1250              		@ args = 0, pretend = 0, frame = 0
 1251              		@ frame_needed = 0, uses_anonymous_args = 0
 1252              		@ link register save eliminated.
 1253 0000 90F83500 		ldrb	r0, [r0, #53]	@ zero_extendqisi2
 1254 0004 7047     		bx	lr
 1256              		.section	.text.HAL_I2S_GetError,"ax",%progbits
 1257              		.align	1
 1258              		.global	HAL_I2S_GetError
 1259              		.syntax unified
 1260              		.thumb
 1261              		.thumb_func
 1262              		.fpu softvfp
 1264              	HAL_I2S_GetError:
 1265              		@ args = 0, pretend = 0, frame = 0
 1266              		@ frame_needed = 0, uses_anonymous_args = 0
 1267              		@ link register save eliminated.
 1268 0000 806B     		ldr	r0, [r0, #56]
 1269 0002 7047     		bx	lr
 1271              		.ident	"GCC: (15:6.3.1+svn253039-1build1) 6.3.1 20170620"
ARM GAS  /tmp/ccF3jdhA.s 			page 23

